 talib

 Timestamp is 5d7a9625 (Thu Sep 12 21:01:57 2019)

 Preferred load address is 0000000180000000

 Start         Length     Name                   Class
 0001:00000000 00069ce0H .text$mn                CODE
 0001:00069ce0 00000020H .text$mn$00             CODE
 0001:00069d00 00000250H .text$x                 CODE
 0002:00000000 00000258H .idata$5                DATA
 0002:00000258 00000010H .00cfg                  DATA
 0002:00000268 00000008H .CRT$XCA                DATA
 0002:00000270 00000008H .CRT$XCU                DATA
 0002:00000278 00000008H .CRT$XCZ                DATA
 0002:00000280 00000008H .CRT$XIA                DATA
 0002:00000288 00000018H .CRT$XIC                DATA
 0002:000002a0 00000008H .CRT$XIZ                DATA
 0002:000002a8 00000008H .CRT$XPA                DATA
 0002:000002b0 00000010H .CRT$XPX                DATA
 0002:000002c0 00000008H .CRT$XPXA               DATA
 0002:000002c8 00000008H .CRT$XPZ                DATA
 0002:000002d0 00000008H .CRT$XTA                DATA
 0002:000002d8 00000008H .CRT$XTZ                DATA
 0002:000002e0 00000000H .gfids$y                DATA
 0002:000002e0 00012e40H .rdata                  DATA
 0002:00013120 000002fcH .rdata$r                DATA
 0002:0001341c 000003d4H .rdata$zzzdbg           DATA
 0002:000137f0 00000008H .rtc$IAA                DATA
 0002:000137f8 00000008H .rtc$IZZ                DATA
 0002:00013800 00000008H .rtc$TAA                DATA
 0002:00013808 00000008H .rtc$TZZ                DATA
 0002:00013810 00007ba0H .xdata                  DATA
 0002:0001b3b0 0000017cH .xdata$x                DATA
 0002:0001b52c 00000020H .didat$2                DATA
 0002:0001b54c 00000024H .didat$3                DATA
 0002:0001b570 000001c0H .didat$4                DATA
 0002:0001b730 00001010H .didat$6                DATA
 0002:0001c740 000001c0H .didat$7                DATA
 0002:0001c900 00000074H .edata                  DATA
 0002:0001c974 00000014H .idata$2                DATA
 0002:0001c988 00000018H .idata$3                DATA
 0002:0001c9a0 00000258H .idata$4                DATA
 0002:0001cbf8 00000574H .idata$6                DATA
 0003:00000000 000057c0H .data                   DATA
 0003:000057c0 000000f0H .data$r                 DATA
 0003:000058b0 000001c0H .didat$5                DATA
 0003:00005a70 000016f0H .bss                    DATA
 0004:00000000 000058c8H .pdata                  DATA
 0005:00000000 00000060H .rsrc$01                DATA
 0005:00000060 00000180H .rsrc$02                DATA

  Address         Publics by Value              Rva+Base               Lib:Object

 0000:00000000       __guard_longjmp_count      0000000000000000     <absolute>
 0000:00000000       __guard_fids_count         0000000000000000     <absolute>
 0000:00000000       __guard_iat_table          0000000000000000     <absolute>
 0000:00000000       __hybrid_code_map_count    0000000000000000     <absolute>
 0000:00000000       __hybrid_code_map          0000000000000000     <absolute>
 0000:00000000       __guard_iat_count          0000000000000000     <absolute>
 0000:00000000       __guard_longjmp_table      0000000000000000     <absolute>
 0000:00000000       __volatile_metadata        0000000000000000     <absolute>
 0000:00000000       __enclave_config           0000000000000000     <absolute>
 0000:00000000       ___safe_se_handler_table   0000000000000000     <absolute>
 0000:00000000       ___safe_se_handler_count   0000000000000000     <absolute>
 0000:00000000       __guard_fids_table         0000000000000000     <absolute>
 0000:00000000       __hybrid_auxiliary_iat     0000000000000000     <absolute>
 0000:00000000       __dynamic_value_reloc_table 0000000000000000     <absolute>
 0000:00000100       __guard_flags              0000000000000100     <absolute>
 0000:00000000       __ImageBase                0000000180000000     <linker-defined>
 0001:000001d0       ?Get@Nan@@YA?AV?$MaybeLocal@VValue@v8@@@v8@@V?$Local@VObject@v8@@@3@V?$Local@VValue@v8@@@3@@Z 00000001800011d0 f i talib.obj
 0001:00000250       ?HasOwnProperty@Nan@@YA?AV?$Maybe@_N@1@V?$Local@VObject@v8@@@v8@@V?$Local@VString@v8@@@4@@Z 0000000180001250 f i talib.obj
 0001:000002e0       ??0AsyncResource@Nan@@QEAA@PEBDV?$Local@VObject@v8@@@v8@@@Z 00000001800012e0 f i talib.obj
 0001:000003a0       ?ThrowTypeError@Nan@@YAXPEBD@Z 00000001800013a0 f i talib.obj
 0001:00000430       ??0Utf8String@Nan@@QEAA@V?$Local@VValue@v8@@@v8@@@Z 0000000180001430 f i talib.obj
 0001:00000560       ?Call@Callback@Nan@@QEBA?AV?$Local@VValue@v8@@@v8@@HQEAV34@@Z 0000000180001560 f i talib.obj
 0001:00000780       ?Call_@Callback@Nan@@AEBA?AV?$MaybeLocal@VValue@v8@@@v8@@PEAVIsolate@4@V?$Local@VObject@v8@@@4@HQEAV?$Local@VValue@v8@@@4@PEAVAsyncResource@2@@Z 0000000180001780 f i talib.obj
 0001:00000870       ??1AsyncWorker@Nan@@UEAA@XZ 0000000180001870 f i talib.obj
 0001:00000940       ?WorkComplete@AsyncWorker@Nan@@UEAAXXZ 0000000180001940 f i talib.obj
 0001:000009d0       ?Destroy@AsyncWorker@Nan@@UEAAXXZ 00000001800019d0 f i talib.obj
 0001:000009f0       ?HandleOKCallback@AsyncWorker@Nan@@MEAAXXZ 00000001800019f0 f i talib.obj
 0001:00000a90       ?HandleErrorCallback@AsyncWorker@Nan@@MEAAXXZ 0000000180001a90 f i talib.obj
 0001:00000b90       ??_GAsyncWorker@Nan@@UEAAPEAXI@Z 0000000180001b90 f i talib.obj
 0001:00000b90       ??_EAsyncWorker@Nan@@UEAAPEAXI@Z 0000000180001b90 f i * CIL library *:* CIL module *
 0001:00000bd0       ?AsyncExecute@Nan@@YAXPEAUuv_work_s@@@Z 0000000180001bd0 f i talib.obj
 0001:00000be0       ?AsyncExecuteComplete@Nan@@YAXPEAUuv_work_s@@@Z 0000000180001be0 f i talib.obj
 0001:00000c10       ?SetAccessor@Nan@@YA_NV?$Local@VObject@v8@@@v8@@V?$Local@VString@v8@@@3@P6AX1AEBV?$PropertyCallbackInfo@VValue@v8@@@1@@ZP6AX1V?$Local@VValue@v8@@@3@AEBV?$PropertyCallbackInfo@X@1@@Z4W4AccessControl@3@W4PropertyAttribute@3@@Z 0000000180001c10 f i talib.obj
 0001:00003830       ?Functions@@YAXV?$Local@VString@v8@@@v8@@AEBV?$PropertyCallbackInfo@VValue@v8@@@Nan@@@Z 0000000180004830 f   talib.obj
 0001:00003a00       ?Explain@@YAXAEBV?$FunctionCallbackInfo@VValue@v8@@@Nan@@@Z 0000000180004a00 f   talib.obj
 0001:00003b30       ?FunctionUnstIds@@YAXV?$Local@VString@v8@@@v8@@AEBV?$PropertyCallbackInfo@VValue@v8@@@Nan@@@Z 0000000180004b30 f   talib.obj
 0001:00005470       ?SetUnstablePeriod@@YAXAEBV?$FunctionCallbackInfo@VValue@v8@@@Nan@@@Z 0000000180006470 f   talib.obj
 0001:000055e0       ?Execute@ExecuteWorker@@UEAAXXZ 00000001800065e0 f i talib.obj
 0001:00005620       ?HandleOKCallback@ExecuteWorker@@UEAAXXZ 0000000180006620 f i talib.obj
 0001:000056a0       ??_GExecuteWorker@@UEAAPEAXI@Z 00000001800066a0 f i talib.obj
 0001:000056a0       ??_EExecuteWorker@@UEAAPEAXI@Z 00000001800066a0 f i * CIL library *:* CIL module *
 0001:000057f0       ?Execute@@YAXAEBV?$FunctionCallbackInfo@VValue@v8@@@Nan@@@Z 00000001800067f0 f   talib.obj
 0001:00007300       ?Init@@YAXV?$Local@VObject@v8@@@v8@@V?$Local@VContext@v8@@@2@@Z 0000000180008300 f   talib.obj
 0001:00007760       node_register_module_v64   0000000180008760 f   talib.obj
 0001:00007770       ??0?$basic_string@DU?$char_traits@D@std@@V?$allocator@D@2@@std@@QEAA@QEBD@Z 0000000180008770 f i talib.obj
 0001:000078e0       ??$New@VFunctionTemplate@v8@@@Nan@@YA?AV?$Local@VFunctionTemplate@v8@@@v8@@P6AXAEBV?$FunctionCallbackInfo@VValue@v8@@@0@@ZV?$Local@VValue@v8@@@2@@Z 00000001800088e0 f i talib.obj
 0001:00007aa0       ??$?HDU?$char_traits@D@std@@V?$allocator@D@1@@std@@YA?AV?$basic_string@DU?$char_traits@D@std@@V?$allocator@D@2@@0@$$QEAV10@0@Z 0000000180008aa0 f i talib.obj
 0001:00007c50       ??$_Reallocate_grow_by@V<lambda_65e615be2a453ca0576c979606f46740>@@PEBD_K@?$basic_string@DU?$char_traits@D@std@@V?$allocator@D@2@@std@@QEAAAEAV01@_KV<lambda_65e615be2a453ca0576c979606f46740>@@PEBD_K@Z 0000000180008c50 f i talib.obj
 0001:00007dd0       ?_Xlen@?$basic_string@DU?$char_traits@D@std@@V?$allocator@D@2@@std@@SAXXZ 0000000180008dd0 f i talib.obj
 0001:00007df0       ??$_Reallocate_grow_by@V<lambda_f3a66ab6a0570788f31503db83886f49>@@_KPEBD_K@?$basic_string@DU?$char_traits@D@std@@V?$allocator@D@2@@std@@QEAAAEAV01@_KV<lambda_f3a66ab6a0570788f31503db83886f49>@@_KPEBD2@Z 0000000180008df0 f i talib.obj
 0001:00007f9c       __imp_load_uv_queue_work   0000000180008f9c f   node:node.exe
 0001:00007fa8       __tailMerge_node_exe       0000000180008fa8     node:node.exe
 0001:00008021       __imp_load_?Global@Context@v8@@QEAA?AV?$Local@VObject@v8@@@2@XZ 0000000180009021 f   node:node.exe
 0001:0000802d       __imp_load_?Value@External@v8@@QEBAPEAXXZ 000000018000902d f   node:node.exe
 0001:00008039       __imp_load_?New@External@v8@@SA?AV?$Local@VExternal@v8@@@2@PEAVIsolate@2@PEAX@Z 0000000180009039 f   node:node.exe
 0001:00008045       __imp_load_?New@Integer@v8@@SA?AV?$Local@VInteger@v8@@@2@PEAVIsolate@2@H@Z 0000000180009045 f   node:node.exe
 0001:00008051       __imp_load_?ThrowException@Isolate@v8@@QEAA?AV?$Local@VValue@v8@@@2@V32@@Z 0000000180009051 f   node:node.exe
 0001:0000805d       __imp_load_?GetCurrentContext@Isolate@v8@@QEAA?AV?$Local@VContext@v8@@@2@XZ 000000018000905d f   node:node.exe
 0001:00008069       __imp_load_?GetCurrent@Isolate@v8@@SAPEAV12@XZ 0000000180009069 f   node:node.exe
 0001:00008075       __imp_load_?CreateHandle@HandleScope@v8@@KAPEAPEAVObject@internal@2@PEAVIsolate@42@PEAV342@@Z 0000000180009075 f   node:node.exe
 0001:00008081       __imp_load_?CreateHandle@HandleScope@v8@@CAPEAPEAVObject@internal@2@PEAVHeapObject@42@PEAV342@@Z 0000000180009081 f   node:node.exe
 0001:0000808d       __imp_load_??1HandleScope@v8@@QEAA@XZ 000000018000908d f   node:node.exe
 0001:00008099       __imp_load_??0HandleScope@v8@@QEAA@PEAVIsolate@1@@Z 0000000180009099 f   node:node.exe
 0001:000080a5       __imp_load_?Error@Exception@v8@@SA?AV?$Local@VValue@v8@@@2@V?$Local@VString@v8@@@2@@Z 00000001800090a5 f   node:node.exe
 0001:000080b1       __imp_load_?TypeError@Exception@v8@@SA?AV?$Local@VValue@v8@@@2@V?$Local@VString@v8@@@2@@Z 00000001800090b1 f   node:node.exe
 0001:000080bd       __imp_load_?New@Array@v8@@SA?AV?$Local@VArray@v8@@@2@PEAVIsolate@2@H@Z 00000001800090bd f   node:node.exe
 0001:000080c9       __imp_load_?Length@Array@v8@@QEBAIXZ 00000001800090c9 f   node:node.exe
 0001:000080d5       __imp_load_?GetFunction@FunctionTemplate@v8@@QEAA?AV?$MaybeLocal@VFunction@v8@@@2@V?$Local@VContext@v8@@@2@@Z 00000001800090d5 f   node:node.exe
 0001:000080e1       __imp_load_?New@FunctionTemplate@v8@@SA?AV?$Local@VFunctionTemplate@v8@@@2@PEAVIsolate@2@P6AXAEBV?$FunctionCallbackInfo@VValue@v8@@@2@@ZV?$Local@VValue@v8@@@2@V?$Local@VSignature@v8@@@2@HW4ConstructorBehavior@2@W4SideEffectType@2@@Z 00000001800090e1 f   node:node.exe
 0001:000080ed       __imp_load_?ToLocalEmpty@V8@v8@@CAXXZ 00000001800090ed f   node:node.exe
 0001:000080f9       __imp_load_?FromJustIsNothing@V8@v8@@CAXXZ 00000001800090f9 f   node:node.exe
 0001:00008105       __imp_load_?DisposeGlobal@V8@v8@@CAXPEAPEAVObject@internal@2@@Z 0000000180009105 f   node:node.exe
 0001:00008111       __imp_load_?GlobalizeReference@V8@v8@@CAPEAPEAVObject@internal@2@PEAVIsolate@42@PEAPEAV342@@Z 0000000180009111 f   node:node.exe
 0001:0000811d       __imp_load_?Int32Value@Value@v8@@QEBA?AV?$Maybe@H@2@V?$Local@VContext@v8@@@2@@Z 000000018000911d f   node:node.exe
 0001:00008129       __imp_load_?Uint32Value@Value@v8@@QEBA?AV?$Maybe@I@2@V?$Local@VContext@v8@@@2@@Z 0000000180009129 f   node:node.exe
 0001:00008135       __imp_load_?IntegerValue@Value@v8@@QEBA?AV?$Maybe@_J@2@V?$Local@VContext@v8@@@2@@Z 0000000180009135 f   node:node.exe
 0001:00008141       __imp_load_?NumberValue@Value@v8@@QEBA?AV?$Maybe@N@2@V?$Local@VContext@v8@@@2@@Z 0000000180009141 f   node:node.exe
 0001:0000814d       __imp_load_?ToInt32@Value@v8@@QEBA?AV?$MaybeLocal@VInt32@v8@@@2@V?$Local@VContext@v8@@@2@@Z 000000018000914d f   node:node.exe
 0001:00008159       __imp_load_?ToObject@Value@v8@@QEBA?AV?$MaybeLocal@VObject@v8@@@2@V?$Local@VContext@v8@@@2@@Z 0000000180009159 f   node:node.exe
 0001:00008165       __imp_load_?ToString@Value@v8@@QEBA?AV?$MaybeLocal@VString@v8@@@2@V?$Local@VContext@v8@@@2@@Z 0000000180009165 f   node:node.exe
 0001:00008171       __imp_load_?IsNumber@Value@v8@@QEBA_NXZ 0000000180009171 f   node:node.exe
 0001:0000817d       __imp_load_?IsObject@Value@v8@@QEBA_NXZ 000000018000917d f   node:node.exe
 0001:00008189       __imp_load_?IsFunction@Value@v8@@QEBA_NXZ 0000000180009189 f   node:node.exe
 0001:00008195       __imp_load_?Escape@EscapableHandleScope@v8@@AEAAPEAPEAVObject@internal@2@PEAPEAV342@@Z 0000000180009195 f   node:node.exe
 0001:000081a1       __imp_load_??0EscapableHandleScope@v8@@QEAA@PEAVIsolate@1@@Z 00000001800091a1 f   node:node.exe
 0001:000081ad       __imp_load_?NewFromUtf8@String@v8@@SA?AV?$MaybeLocal@VString@v8@@@2@PEAVIsolate@2@PEBDW4NewStringType@2@H@Z 00000001800091ad f   node:node.exe
 0001:000081b9       __imp_load_?WriteUtf8@String@v8@@QEBAHPEADHPEAHH@Z 00000001800091b9 f   node:node.exe
 0001:000081c5       __imp_load_?Length@String@v8@@QEBAHXZ 00000001800091c5 f   node:node.exe
 0001:000081d1       __imp_load_?New@Number@v8@@SA?AV?$Local@VNumber@v8@@@2@PEAVIsolate@2@N@Z 00000001800091d1 f   node:node.exe
 0001:000081dd       __imp_load_?SlowGetInternalField@Object@v8@@AEAA?AV?$Local@VValue@v8@@@2@H@Z 00000001800091dd f   node:node.exe
 0001:000081e9       __imp_load_?New@Object@v8@@SA?AV?$Local@VObject@v8@@@2@PEAVIsolate@2@@Z 00000001800091e9 f   node:node.exe
 0001:000081f5       __imp_load_?HasOwnProperty@Object@v8@@QEAA?AV?$Maybe@_N@2@V?$Local@VContext@v8@@@2@V?$Local@VName@v8@@@2@@Z 00000001800091f5 f   node:node.exe
 0001:00008201       __imp_load_?SetInternalField@Object@v8@@QEAAXHV?$Local@VValue@v8@@@2@@Z 0000000180009201 f   node:node.exe
 0001:0000820d       __imp_load_?SetAccessor@Object@v8@@QEAA?AV?$Maybe@_N@2@V?$Local@VContext@v8@@@2@V?$Local@VName@v8@@@2@P6AX1AEBV?$PropertyCallbackInfo@VValue@v8@@@2@@ZP6AX1V?$Local@VValue@v8@@@2@AEBV?$PropertyCallbackInfo@X@2@@ZV?$MaybeLocal@VValue@v8@@@2@W4AccessControl@2@W4PropertyAttribute@2@W4SideEffectType@2@@Z 000000018000920d f   node:node.exe
 0001:00008219       __imp_load_?Get@Object@v8@@QEAA?AV?$MaybeLocal@VValue@v8@@@2@V?$Local@VContext@v8@@@2@V?$Local@VValue@v8@@@2@@Z 0000000180009219 f   node:node.exe
 0001:00008225       __imp_load_?Get@Object@v8@@QEAA?AV?$MaybeLocal@VValue@v8@@@2@V?$Local@VContext@v8@@@2@I@Z 0000000180009225 f   node:node.exe
 0001:00008231       __imp_load_?Set@Object@v8@@QEAA?AV?$Maybe@_N@2@V?$Local@VContext@v8@@@2@V?$Local@VValue@v8@@@2@1@Z 0000000180009231 f   node:node.exe
 0001:0000823d       __imp_load_?Set@Object@v8@@QEAA?AV?$Maybe@_N@2@V?$Local@VContext@v8@@@2@IV?$Local@VValue@v8@@@2@@Z 000000018000923d f   node:node.exe
 0001:00008249       __imp_load_?SetInternalFieldCount@ObjectTemplate@v8@@QEAAXH@Z 0000000180009249 f   node:node.exe
 0001:00008255       __imp_load_?NewInstance@ObjectTemplate@v8@@QEAA?AV?$MaybeLocal@VObject@v8@@@2@V?$Local@VContext@v8@@@2@@Z 0000000180009255 f   node:node.exe
 0001:00008261       __imp_load_?New@ObjectTemplate@v8@@SA?AV?$Local@VObjectTemplate@v8@@@2@PEAVIsolate@2@V?$Local@VFunctionTemplate@v8@@@2@@Z 0000000180009261 f   node:node.exe
 0001:0000826d       __imp_load_?EmitAsyncDestroy@node@@YAXPEAVIsolate@v8@@Uasync_context@1@@Z 000000018000926d f   node:node.exe
 0001:00008279       __imp_load_node_module_register 0000000180009279 f   node:node.exe
 0001:00008285       __imp_load_?MakeCallback@node@@YA?AV?$MaybeLocal@VValue@v8@@@v8@@PEAVIsolate@3@V?$Local@VObject@v8@@@3@V?$Local@VFunction@v8@@@3@HPEAV?$Local@VValue@v8@@@3@Uasync_context@1@@Z 0000000180009285 f   node:node.exe
 0001:00008291       __imp_load_?EmitAsyncInit@node@@YA?AUasync_context@1@PEAVIsolate@v8@@V?$Local@VObject@v8@@@4@V?$Local@VString@v8@@@4@N@Z 0000000180009291 f   node:node.exe
 0001:0000829d       __imp_load_?GetCurrentEventLoop@node@@YAPEAUuv_loop_s@@PEAVIsolate@v8@@@Z 000000018000929d f   node:node.exe
 0001:000082b0       TA_CallFunc                00000001800092b0 f   ta_libc_csr:ta_abstract.obj
 0001:00008330       TA_FuncTableAlloc          0000000180009330 f   ta_libc_csr:ta_abstract.obj
 0001:00008460       TA_FuncTableFree           0000000180009460 f   ta_libc_csr:ta_abstract.obj
 0001:000084c0       TA_GetFuncHandle           00000001800094c0 f   ta_libc_csr:ta_abstract.obj
 0001:000085e0       TA_GetFuncInfo             00000001800095e0 f   ta_libc_csr:ta_abstract.obj
 0001:00008620       TA_GetInputParameterInfo   0000000180009620 f   ta_libc_csr:ta_abstract.obj
 0001:00008680       TA_GetOptInputParameterInfo 0000000180009680 f   ta_libc_csr:ta_abstract.obj
 0001:000086e0       TA_GetOutputParameterInfo  00000001800096e0 f   ta_libc_csr:ta_abstract.obj
 0001:00008740       TA_GroupTableAlloc         0000000180009740 f   ta_libc_csr:ta_abstract.obj
 0001:000087b0       TA_GroupTableFree          00000001800097b0 f   ta_libc_csr:ta_abstract.obj
 0001:000087f0       TA_ParamHolderAlloc        00000001800097f0 f   ta_libc_csr:ta_abstract.obj
 0001:00008a60       TA_ParamHolderFree         0000000180009a60 f   ta_libc_csr:ta_abstract.obj
 0001:00008ae0       TA_SetInputParamIntegerPtr 0000000180009ae0 f   ta_libc_csr:ta_abstract.obj
 0001:00008b50       TA_SetInputParamPricePtr   0000000180009b50 f   ta_libc_csr:ta_abstract.obj
 0001:00008c80       TA_SetInputParamRealPtr    0000000180009c80 f   ta_libc_csr:ta_abstract.obj
 0001:00008cf0       TA_SetOptInputParamInteger 0000000180009cf0 f   ta_libc_csr:ta_abstract.obj
 0001:00008d50       TA_SetOptInputParamReal    0000000180009d50 f   ta_libc_csr:ta_abstract.obj
 0001:00008db0       TA_SetOutputParamIntegerPtr 0000000180009db0 f   ta_libc_csr:ta_abstract.obj
 0001:00008e20       TA_SetOutputParamRealPtr   0000000180009e20 f   ta_libc_csr:ta_abstract.obj
 0001:00008f50       TA_SetUnstablePeriod       0000000180009f50 f   ta_libc_csr:ta_utility.obj
 0001:00008f90       TA_Initialize              0000000180009f90 f   ta_libc_csr:ta_global.obj
 0001:00008fd0       TA_RestoreCandleDefaultSettings 0000000180009fd0 f   ta_libc_csr:ta_global.obj
 0001:000091c0       TA_SetRetCodeInfo          000000018000a1c0 f   ta_libc_csr:ta_retcode.obj
 0001:00009220       TA_ACCBANDS_FramePP        000000018000a220 f   ta_libc_csr:ta_frame.obj
 0001:000092a0       TA_ACCBANDS_FramePPLB      000000018000a2a0 f   ta_libc_csr:ta_frame.obj
 0001:000092b0       TA_ACOS_FramePP            000000018000a2b0 f   ta_libc_csr:ta_frame.obj
 0001:000092f0       TA_COSH_FramePPLB          000000018000a2f0 f   ta_libc_csr:ta_frame.obj
 0001:000092f0       TA_OBV_FramePPLB           000000018000a2f0 f   ta_libc_csr:ta_frame.obj
 0001:000092f0       TA_ADD_FramePPLB           000000018000a2f0 f   ta_libc_csr:ta_frame.obj
 0001:000092f0       TA_SINH_FramePPLB          000000018000a2f0 f   ta_libc_csr:ta_frame.obj
 0001:000092f0       TA_TANH_FramePPLB          000000018000a2f0 f   ta_libc_csr:ta_frame.obj
 0001:000092f0       TA_SIN_FramePPLB           000000018000a2f0 f   ta_libc_csr:ta_frame.obj
 0001:000092f0       TA_DIV_FramePPLB           000000018000a2f0 f   ta_libc_csr:ta_frame.obj
 0001:000092f0       TA_FLOOR_FramePPLB         000000018000a2f0 f   ta_libc_csr:ta_frame.obj
 0001:000092f0       TA_MEDPRICE_FramePPLB      000000018000a2f0 f   ta_libc_csr:ta_frame.obj
 0001:000092f0       TA_TAN_FramePPLB           000000018000a2f0 f   ta_libc_csr:ta_frame.obj
 0001:000092f0       TA_AVGPRICE_FramePPLB      000000018000a2f0 f   ta_libc_csr:ta_frame.obj
 0001:000092f0       TA_AD_FramePPLB            000000018000a2f0 f   ta_libc_csr:ta_frame.obj
 0001:000092f0       TA_CEIL_FramePPLB          000000018000a2f0 f   ta_libc_csr:ta_frame.obj
 0001:000092f0       TA_LN_FramePPLB            000000018000a2f0 f   ta_libc_csr:ta_frame.obj
 0001:000092f0       TA_TYPPRICE_FramePPLB      000000018000a2f0 f   ta_libc_csr:ta_frame.obj
 0001:000092f0       TA_ACOS_FramePPLB          000000018000a2f0 f   ta_libc_csr:ta_frame.obj
 0001:000092f0       TA_ASIN_FramePPLB          000000018000a2f0 f   ta_libc_csr:ta_frame.obj
 0001:000092f0       TA_LOG10_FramePPLB         000000018000a2f0 f   ta_libc_csr:ta_frame.obj
 0001:000092f0       TA_EXP_FramePPLB           000000018000a2f0 f   ta_libc_csr:ta_frame.obj
 0001:000092f0       TA_COS_FramePPLB           000000018000a2f0 f   ta_libc_csr:ta_frame.obj
 0001:000092f0       TA_SUB_FramePPLB           000000018000a2f0 f   ta_libc_csr:ta_frame.obj
 0001:000092f0       TA_BOP_FramePPLB           000000018000a2f0 f   ta_libc_csr:ta_frame.obj
 0001:000092f0       TA_SQRT_FramePPLB          000000018000a2f0 f   ta_libc_csr:ta_frame.obj
 0001:000092f0       TA_ATAN_FramePPLB          000000018000a2f0 f   ta_libc_csr:ta_frame.obj
 0001:000092f0       TA_WCLPRICE_FramePPLB      000000018000a2f0 f   ta_libc_csr:ta_frame.obj
 0001:000092f0       TA_MULT_FramePPLB          000000018000a2f0 f   ta_libc_csr:ta_frame.obj
 0001:00009300       TA_ADD_FramePP             000000018000a300 f   ta_libc_csr:ta_frame.obj
 0001:00009340       TA_ADOSC_FramePP           000000018000a340 f   ta_libc_csr:ta_frame.obj
 0001:000093b0       TA_ADOSC_FramePPLB         000000018000a3b0 f   ta_libc_csr:ta_frame.obj
 0001:000093c0       TA_ADXR_FramePP            000000018000a3c0 f   ta_libc_csr:ta_frame.obj
 0001:00009420       TA_ADXR_FramePPLB          000000018000a420 f   ta_libc_csr:ta_frame.obj
 0001:00009430       TA_ADX_FramePP             000000018000a430 f   ta_libc_csr:ta_frame.obj
 0001:00009490       TA_ADX_FramePPLB           000000018000a490 f   ta_libc_csr:ta_frame.obj
 0001:000094a0       TA_AD_FramePP              000000018000a4a0 f   ta_libc_csr:ta_frame.obj
 0001:00009500       TA_APO_FramePP             000000018000a500 f   ta_libc_csr:ta_frame.obj
 0001:00009560       TA_PPO_FramePPLB           000000018000a560 f   ta_libc_csr:ta_frame.obj
 0001:00009560       TA_APO_FramePPLB           000000018000a560 f   ta_libc_csr:ta_frame.obj
 0001:00009580       TA_AROONOSC_FramePP        000000018000a580 f   ta_libc_csr:ta_frame.obj
 0001:000095d0       TA_AROON_FramePPLB         000000018000a5d0 f   ta_libc_csr:ta_frame.obj
 0001:000095d0       TA_AROONOSC_FramePPLB      000000018000a5d0 f   ta_libc_csr:ta_frame.obj
 0001:000095e0       TA_AROON_FramePP           000000018000a5e0 f   ta_libc_csr:ta_frame.obj
 0001:00009650       TA_ASIN_FramePP            000000018000a650 f   ta_libc_csr:ta_frame.obj
 0001:00009690       TA_ATAN_FramePP            000000018000a690 f   ta_libc_csr:ta_frame.obj
 0001:000096d0       TA_ATR_FramePP             000000018000a6d0 f   ta_libc_csr:ta_frame.obj
 0001:00009730       TA_ATR_FramePPLB           000000018000a730 f   ta_libc_csr:ta_frame.obj
 0001:00009740       TA_AVGDEV_FramePP          000000018000a740 f   ta_libc_csr:ta_frame.obj
 0001:00009790       TA_LINEARREG_ANGLE_FramePPLB 000000018000a790 f   ta_libc_csr:ta_frame.obj
 0001:00009790       TA_LINEARREG_FramePPLB     000000018000a790 f   ta_libc_csr:ta_frame.obj
 0001:00009790       TA_WILLR_FramePPLB         000000018000a790 f   ta_libc_csr:ta_frame.obj
 0001:00009790       TA_MIDPRICE_FramePPLB      000000018000a790 f   ta_libc_csr:ta_frame.obj
 0001:00009790       TA_MIDPOINT_FramePPLB      000000018000a790 f   ta_libc_csr:ta_frame.obj
 0001:00009790       TA_TSF_FramePPLB           000000018000a790 f   ta_libc_csr:ta_frame.obj
 0001:00009790       TA_AVGDEV_FramePPLB        000000018000a790 f   ta_libc_csr:ta_frame.obj
 0001:00009790       TA_LINEARREG_SLOPE_FramePPLB 000000018000a790 f   ta_libc_csr:ta_frame.obj
 0001:00009790       TA_CCI_FramePPLB           000000018000a790 f   ta_libc_csr:ta_frame.obj
 0001:00009790       TA_LINEARREG_INTERCEPT_FramePPLB 000000018000a790 f   ta_libc_csr:ta_frame.obj
 0001:000097a0       TA_AVGPRICE_FramePP        000000018000a7a0 f   ta_libc_csr:ta_frame.obj
 0001:00009800       TA_BBANDS_FramePP          000000018000a800 f   ta_libc_csr:ta_frame.obj
 0001:00009890       TA_BBANDS_FramePPLB        000000018000a890 f   ta_libc_csr:ta_frame.obj
 0001:000098b0       TA_BETA_FramePP            000000018000a8b0 f   ta_libc_csr:ta_frame.obj
 0001:00009900       TA_BETA_FramePPLB          000000018000a900 f   ta_libc_csr:ta_frame.obj
 0001:00009910       TA_BOP_FramePP             000000018000a910 f   ta_libc_csr:ta_frame.obj
 0001:00009970       TA_CCI_FramePP             000000018000a970 f   ta_libc_csr:ta_frame.obj
 0001:000099d0       TA_CDL2CROWS_FramePP       000000018000a9d0 f   ta_libc_csr:ta_frame.obj
 0001:00009a30       TA_CDL2CROWS_FramePPLB     000000018000aa30 f   ta_libc_csr:ta_frame.obj
 0001:00009a40       TA_CDL3BLACKCROWS_FramePP  000000018000aa40 f   ta_libc_csr:ta_frame.obj
 0001:00009aa0       TA_CDL3BLACKCROWS_FramePPLB 000000018000aaa0 f   ta_libc_csr:ta_frame.obj
 0001:00009aa0       TA_CDLCONCEALBABYSWALL_FramePPLB 000000018000aaa0 f   ta_libc_csr:ta_frame.obj
 0001:00009ab0       TA_CDL3INSIDE_FramePP      000000018000aab0 f   ta_libc_csr:ta_frame.obj
 0001:00009b10       TA_CDLUNIQUE3RIVER_FramePPLB 000000018000ab10 f   ta_libc_csr:ta_frame.obj
 0001:00009b10       TA_CDLUPSIDEGAP2CROWS_FramePPLB 000000018000ab10 f   ta_libc_csr:ta_frame.obj
 0001:00009b10       TA_CDL3INSIDE_FramePPLB    000000018000ab10 f   ta_libc_csr:ta_frame.obj
 0001:00009b20       TA_CDL3LINESTRIKE_FramePP  000000018000ab20 f   ta_libc_csr:ta_frame.obj
 0001:00009b80       TA_CDL3LINESTRIKE_FramePPLB 000000018000ab80 f   ta_libc_csr:ta_frame.obj
 0001:00009b90       TA_CDL3OUTSIDE_FramePP     000000018000ab90 f   ta_libc_csr:ta_frame.obj
 0001:00009bf0       TA_CDL3OUTSIDE_FramePPLB   000000018000abf0 f   ta_libc_csr:ta_frame.obj
 0001:00009c00       TA_CDL3STARSINSOUTH_FramePP 000000018000ac00 f   ta_libc_csr:ta_frame.obj
 0001:00009c60       TA_CDL3STARSINSOUTH_FramePPLB 000000018000ac60 f   ta_libc_csr:ta_frame.obj
 0001:00009c70       TA_CDL3WHITESOLDIERS_FramePP 000000018000ac70 f   ta_libc_csr:ta_frame.obj
 0001:00009cd0       TA_CDL3WHITESOLDIERS_FramePPLB 000000018000acd0 f   ta_libc_csr:ta_frame.obj
 0001:00009ce0       TA_CDLABANDONEDBABY_FramePP 000000018000ace0 f   ta_libc_csr:ta_frame.obj
 0001:00009d50       TA_CDLABANDONEDBABY_FramePPLB 000000018000ad50 f   ta_libc_csr:ta_frame.obj
 0001:00009d50       TA_CDLEVENINGDOJISTAR_FramePPLB 000000018000ad50 f   ta_libc_csr:ta_frame.obj
 0001:00009d50       TA_CDLMORNINGDOJISTAR_FramePPLB 000000018000ad50 f   ta_libc_csr:ta_frame.obj
 0001:00009d60       TA_CDLADVANCEBLOCK_FramePP 000000018000ad60 f   ta_libc_csr:ta_frame.obj
 0001:00009dc0       TA_CDLADVANCEBLOCK_FramePPLB 000000018000adc0 f   ta_libc_csr:ta_frame.obj
 0001:00009dd0       TA_CDLBELTHOLD_FramePP     000000018000add0 f   ta_libc_csr:ta_frame.obj
 0001:00009e30       TA_CDLMARUBOZU_FramePPLB   000000018000ae30 f   ta_libc_csr:ta_frame.obj
 0001:00009e30       TA_CDLCLOSINGMARUBOZU_FramePPLB 000000018000ae30 f   ta_libc_csr:ta_frame.obj
 0001:00009e30       TA_CDLBELTHOLD_FramePPLB   000000018000ae30 f   ta_libc_csr:ta_frame.obj
 0001:00009e40       TA_CDLBREAKAWAY_FramePP    000000018000ae40 f   ta_libc_csr:ta_frame.obj
 0001:00009ea0       TA_CDLBREAKAWAY_FramePPLB  000000018000aea0 f   ta_libc_csr:ta_frame.obj
 0001:00009eb0       TA_CDLCLOSINGMARUBOZU_FramePP 000000018000aeb0 f   ta_libc_csr:ta_frame.obj
 0001:00009f10       TA_CDLCONCEALBABYSWALL_FramePP 000000018000af10 f   ta_libc_csr:ta_frame.obj
 0001:00009f70       TA_CDLCOUNTERATTACK_FramePP 000000018000af70 f   ta_libc_csr:ta_frame.obj
 0001:00009fd0       TA_CDLTHRUSTING_FramePPLB  000000018000afd0 f   ta_libc_csr:ta_frame.obj
 0001:00009fd0       TA_CDLCOUNTERATTACK_FramePPLB 000000018000afd0 f   ta_libc_csr:ta_frame.obj
 0001:00009fd0       TA_CDLONNECK_FramePPLB     000000018000afd0 f   ta_libc_csr:ta_frame.obj
 0001:00009fd0       TA_CDLINNECK_FramePPLB     000000018000afd0 f   ta_libc_csr:ta_frame.obj
 0001:00009fe0       TA_CDLDARKCLOUDCOVER_FramePP 000000018000afe0 f   ta_libc_csr:ta_frame.obj
 0001:0000a050       TA_CDLDARKCLOUDCOVER_FramePPLB 000000018000b050 f   ta_libc_csr:ta_frame.obj
 0001:0000a060       TA_CDLDOJISTAR_FramePP     000000018000b060 f   ta_libc_csr:ta_frame.obj
 0001:0000a0c0       TA_CDLHARAMICROSS_FramePPLB 000000018000b0c0 f   ta_libc_csr:ta_frame.obj
 0001:0000a0c0       TA_CDLDOJISTAR_FramePPLB   000000018000b0c0 f   ta_libc_csr:ta_frame.obj
 0001:0000a0d0       TA_CDLDOJI_FramePP         000000018000b0d0 f   ta_libc_csr:ta_frame.obj
 0001:0000a130       TA_CDLDOJI_FramePPLB       000000018000b130 f   ta_libc_csr:ta_frame.obj
 0001:0000a140       TA_CDLDRAGONFLYDOJI_FramePP 000000018000b140 f   ta_libc_csr:ta_frame.obj
 0001:0000a1a0       TA_CDLDRAGONFLYDOJI_FramePPLB 000000018000b1a0 f   ta_libc_csr:ta_frame.obj
 0001:0000a1a0       TA_CDLGRAVESTONEDOJI_FramePPLB 000000018000b1a0 f   ta_libc_csr:ta_frame.obj
 0001:0000a1b0       TA_CDLENGULFING_FramePP    000000018000b1b0 f   ta_libc_csr:ta_frame.obj
 0001:0000a210       TA_CDLXSIDEGAP3METHODS_FramePPLB 000000018000b210 f   ta_libc_csr:ta_frame.obj
 0001:0000a210       TA_CDLENGULFING_FramePPLB  000000018000b210 f   ta_libc_csr:ta_frame.obj
 0001:0000a220       TA_CDLEVENINGDOJISTAR_FramePP 000000018000b220 f   ta_libc_csr:ta_frame.obj
 0001:0000a290       TA_CDLEVENINGSTAR_FramePP  000000018000b290 f   ta_libc_csr:ta_frame.obj
 0001:0000a300       TA_CDLMORNINGSTAR_FramePPLB 000000018000b300 f   ta_libc_csr:ta_frame.obj
 0001:0000a300       TA_CDLEVENINGSTAR_FramePPLB 000000018000b300 f   ta_libc_csr:ta_frame.obj
 0001:0000a310       TA_CDLGAPSIDESIDEWHITE_FramePP 000000018000b310 f   ta_libc_csr:ta_frame.obj
 0001:0000a370       TA_CDLGAPSIDESIDEWHITE_FramePPLB 000000018000b370 f   ta_libc_csr:ta_frame.obj
 0001:0000a380       TA_CDLGRAVESTONEDOJI_FramePP 000000018000b380 f   ta_libc_csr:ta_frame.obj
 0001:0000a3e0       TA_CDLHAMMER_FramePP       000000018000b3e0 f   ta_libc_csr:ta_frame.obj
 0001:0000a440       TA_CDLHAMMER_FramePPLB     000000018000b440 f   ta_libc_csr:ta_frame.obj
 0001:0000a440       TA_CDLHANGINGMAN_FramePPLB 000000018000b440 f   ta_libc_csr:ta_frame.obj
 0001:0000a450       TA_CDLHANGINGMAN_FramePP   000000018000b450 f   ta_libc_csr:ta_frame.obj
 0001:0000a4b0       TA_CDLHARAMICROSS_FramePP  000000018000b4b0 f   ta_libc_csr:ta_frame.obj
 0001:0000a510       TA_CDLHARAMI_FramePP       000000018000b510 f   ta_libc_csr:ta_frame.obj
 0001:0000a570       TA_CDLHARAMI_FramePPLB     000000018000b570 f   ta_libc_csr:ta_frame.obj
 0001:0000a570       TA_CDLHOMINGPIGEON_FramePPLB 000000018000b570 f   ta_libc_csr:ta_frame.obj
 0001:0000a580       TA_CDLHIGHWAVE_FramePP     000000018000b580 f   ta_libc_csr:ta_frame.obj
 0001:0000a5e0       TA_CDLHIGHWAVE_FramePPLB   000000018000b5e0 f   ta_libc_csr:ta_frame.obj
 0001:0000a5f0       TA_CDLHIKKAKEMOD_FramePP   000000018000b5f0 f   ta_libc_csr:ta_frame.obj
 0001:0000a650       TA_CDLHIKKAKEMOD_FramePPLB 000000018000b650 f   ta_libc_csr:ta_frame.obj
 0001:0000a660       TA_CDLHIKKAKE_FramePP      000000018000b660 f   ta_libc_csr:ta_frame.obj
 0001:0000a6c0       TA_CDLHIKKAKE_FramePPLB    000000018000b6c0 f   ta_libc_csr:ta_frame.obj
 0001:0000a6d0       TA_CDLHOMINGPIGEON_FramePP 000000018000b6d0 f   ta_libc_csr:ta_frame.obj
 0001:0000a730       TA_CDLIDENTICAL3CROWS_FramePP 000000018000b730 f   ta_libc_csr:ta_frame.obj
 0001:0000a790       TA_CDLIDENTICAL3CROWS_FramePPLB 000000018000b790 f   ta_libc_csr:ta_frame.obj
 0001:0000a7a0       TA_CDLINNECK_FramePP       000000018000b7a0 f   ta_libc_csr:ta_frame.obj
 0001:0000a800       TA_CDLINVERTEDHAMMER_FramePP 000000018000b800 f   ta_libc_csr:ta_frame.obj
 0001:0000a860       TA_CDLINVERTEDHAMMER_FramePPLB 000000018000b860 f   ta_libc_csr:ta_frame.obj
 0001:0000a860       TA_CDLSHOOTINGSTAR_FramePPLB 000000018000b860 f   ta_libc_csr:ta_frame.obj
 0001:0000a870       TA_CDLKICKINGBYLENGTH_FramePP 000000018000b870 f   ta_libc_csr:ta_frame.obj
 0001:0000a8d0       TA_CDLKICKING_FramePPLB    000000018000b8d0 f   ta_libc_csr:ta_frame.obj
 0001:0000a8d0       TA_CDLKICKINGBYLENGTH_FramePPLB 000000018000b8d0 f   ta_libc_csr:ta_frame.obj
 0001:0000a8e0       TA_CDLKICKING_FramePP      000000018000b8e0 f   ta_libc_csr:ta_frame.obj
 0001:0000a940       TA_CDLLADDERBOTTOM_FramePP 000000018000b940 f   ta_libc_csr:ta_frame.obj
 0001:0000a9a0       TA_CDLLADDERBOTTOM_FramePPLB 000000018000b9a0 f   ta_libc_csr:ta_frame.obj
 0001:0000a9b0       TA_CDLLONGLEGGEDDOJI_FramePP 000000018000b9b0 f   ta_libc_csr:ta_frame.obj
 0001:0000aa10       TA_CDLLONGLEGGEDDOJI_FramePPLB 000000018000ba10 f   ta_libc_csr:ta_frame.obj
 0001:0000aa20       TA_CDLLONGLINE_FramePP     000000018000ba20 f   ta_libc_csr:ta_frame.obj
 0001:0000aa80       TA_CDLLONGLINE_FramePPLB   000000018000ba80 f   ta_libc_csr:ta_frame.obj
 0001:0000aa90       TA_CDLMARUBOZU_FramePP     000000018000ba90 f   ta_libc_csr:ta_frame.obj
 0001:0000aaf0       TA_CDLMATCHINGLOW_FramePP  000000018000baf0 f   ta_libc_csr:ta_frame.obj
 0001:0000ab50       TA_CDLMATCHINGLOW_FramePPLB 000000018000bb50 f   ta_libc_csr:ta_frame.obj
 0001:0000ab60       TA_CDLMATHOLD_FramePP      000000018000bb60 f   ta_libc_csr:ta_frame.obj
 0001:0000abd0       TA_CDLMATHOLD_FramePPLB    000000018000bbd0 f   ta_libc_csr:ta_frame.obj
 0001:0000abe0       TA_CDLMORNINGDOJISTAR_FramePP 000000018000bbe0 f   ta_libc_csr:ta_frame.obj
 0001:0000ac50       TA_CDLMORNINGSTAR_FramePP  000000018000bc50 f   ta_libc_csr:ta_frame.obj
 0001:0000acc0       TA_CDLONNECK_FramePP       000000018000bcc0 f   ta_libc_csr:ta_frame.obj
 0001:0000ad20       TA_CDLPIERCING_FramePP     000000018000bd20 f   ta_libc_csr:ta_frame.obj
 0001:0000ad80       TA_CDLPIERCING_FramePPLB   000000018000bd80 f   ta_libc_csr:ta_frame.obj
 0001:0000ad90       TA_CDLRICKSHAWMAN_FramePP  000000018000bd90 f   ta_libc_csr:ta_frame.obj
 0001:0000adf0       TA_CDLRICKSHAWMAN_FramePPLB 000000018000bdf0 f   ta_libc_csr:ta_frame.obj
 0001:0000ae00       TA_CDLRISEFALL3METHODS_FramePP 000000018000be00 f   ta_libc_csr:ta_frame.obj
 0001:0000ae60       TA_CDLRISEFALL3METHODS_FramePPLB 000000018000be60 f   ta_libc_csr:ta_frame.obj
 0001:0000ae70       TA_CDLSEPARATINGLINES_FramePP 000000018000be70 f   ta_libc_csr:ta_frame.obj
 0001:0000aed0       TA_CDLSEPARATINGLINES_FramePPLB 000000018000bed0 f   ta_libc_csr:ta_frame.obj
 0001:0000aee0       TA_CDLSHOOTINGSTAR_FramePP 000000018000bee0 f   ta_libc_csr:ta_frame.obj
 0001:0000af40       TA_CDLSHORTLINE_FramePP    000000018000bf40 f   ta_libc_csr:ta_frame.obj
 0001:0000afa0       TA_CDLSHORTLINE_FramePPLB  000000018000bfa0 f   ta_libc_csr:ta_frame.obj
 0001:0000afb0       TA_CDLSPINNINGTOP_FramePP  000000018000bfb0 f   ta_libc_csr:ta_frame.obj
 0001:0000b010       TA_CDLSPINNINGTOP_FramePPLB 000000018000c010 f   ta_libc_csr:ta_frame.obj
 0001:0000b020       TA_CDLSTALLEDPATTERN_FramePP 000000018000c020 f   ta_libc_csr:ta_frame.obj
 0001:0000b080       TA_CDLSTALLEDPATTERN_FramePPLB 000000018000c080 f   ta_libc_csr:ta_frame.obj
 0001:0000b090       TA_CDLSTICKSANDWICH_FramePP 000000018000c090 f   ta_libc_csr:ta_frame.obj
 0001:0000b0f0       TA_CDLSTICKSANDWICH_FramePPLB 000000018000c0f0 f   ta_libc_csr:ta_frame.obj
 0001:0000b100       TA_CDLTAKURI_FramePP       000000018000c100 f   ta_libc_csr:ta_frame.obj
 0001:0000b160       TA_CDLTAKURI_FramePPLB     000000018000c160 f   ta_libc_csr:ta_frame.obj
 0001:0000b170       TA_CDLTASUKIGAP_FramePP    000000018000c170 f   ta_libc_csr:ta_frame.obj
 0001:0000b1d0       TA_CDLTASUKIGAP_FramePPLB  000000018000c1d0 f   ta_libc_csr:ta_frame.obj
 0001:0000b1e0       TA_CDLTHRUSTING_FramePP    000000018000c1e0 f   ta_libc_csr:ta_frame.obj
 0001:0000b240       TA_CDLTRISTAR_FramePP      000000018000c240 f   ta_libc_csr:ta_frame.obj
 0001:0000b2a0       TA_CDLTRISTAR_FramePPLB    000000018000c2a0 f   ta_libc_csr:ta_frame.obj
 0001:0000b2b0       TA_CDLUNIQUE3RIVER_FramePP 000000018000c2b0 f   ta_libc_csr:ta_frame.obj
 0001:0000b310       TA_CDLUPSIDEGAP2CROWS_FramePP 000000018000c310 f   ta_libc_csr:ta_frame.obj
 0001:0000b370       TA_CDLXSIDEGAP3METHODS_FramePP 000000018000c370 f   ta_libc_csr:ta_frame.obj
 0001:0000b3d0       TA_CEIL_FramePP            000000018000c3d0 f   ta_libc_csr:ta_frame.obj
 0001:0000b410       TA_CMO_FramePP             000000018000c410 f   ta_libc_csr:ta_frame.obj
 0001:0000b460       TA_CMO_FramePPLB           000000018000c460 f   ta_libc_csr:ta_frame.obj
 0001:0000b470       TA_CORREL_FramePP          000000018000c470 f   ta_libc_csr:ta_frame.obj
 0001:0000b4c0       TA_CORREL_FramePPLB        000000018000c4c0 f   ta_libc_csr:ta_frame.obj
 0001:0000b4d0       TA_COSH_FramePP            000000018000c4d0 f   ta_libc_csr:ta_frame.obj
 0001:0000b510       TA_COS_FramePP             000000018000c510 f   ta_libc_csr:ta_frame.obj
 0001:0000b550       TA_DEMA_FramePP            000000018000c550 f   ta_libc_csr:ta_frame.obj
 0001:0000b5a0       TA_DEMA_FramePPLB          000000018000c5a0 f   ta_libc_csr:ta_frame.obj
 0001:0000b5b0       TA_DIV_FramePP             000000018000c5b0 f   ta_libc_csr:ta_frame.obj
 0001:0000b5f0       TA_DX_FramePP              000000018000c5f0 f   ta_libc_csr:ta_frame.obj
 0001:0000b650       TA_DX_FramePPLB            000000018000c650 f   ta_libc_csr:ta_frame.obj
 0001:0000b660       TA_EMA_FramePP             000000018000c660 f   ta_libc_csr:ta_frame.obj
 0001:0000b6b0       TA_EMA_FramePPLB           000000018000c6b0 f   ta_libc_csr:ta_frame.obj
 0001:0000b6c0       TA_EXP_FramePP             000000018000c6c0 f   ta_libc_csr:ta_frame.obj
 0001:0000b700       TA_FLOOR_FramePP           000000018000c700 f   ta_libc_csr:ta_frame.obj
 0001:0000b740       TA_HT_DCPERIOD_FramePP     000000018000c740 f   ta_libc_csr:ta_frame.obj
 0001:0000b780       TA_HT_DCPERIOD_FramePPLB   000000018000c780 f   ta_libc_csr:ta_frame.obj
 0001:0000b790       TA_HT_DCPHASE_FramePP      000000018000c790 f   ta_libc_csr:ta_frame.obj
 0001:0000b7d0       TA_HT_DCPHASE_FramePPLB    000000018000c7d0 f   ta_libc_csr:ta_frame.obj
 0001:0000b7e0       TA_HT_PHASOR_FramePP       000000018000c7e0 f   ta_libc_csr:ta_frame.obj
 0001:0000b830       TA_HT_PHASOR_FramePPLB     000000018000c830 f   ta_libc_csr:ta_frame.obj
 0001:0000b840       TA_HT_SINE_FramePP         000000018000c840 f   ta_libc_csr:ta_frame.obj
 0001:0000b890       TA_HT_SINE_FramePPLB       000000018000c890 f   ta_libc_csr:ta_frame.obj
 0001:0000b8a0       TA_HT_TRENDLINE_FramePP    000000018000c8a0 f   ta_libc_csr:ta_frame.obj
 0001:0000b8e0       TA_HT_TRENDLINE_FramePPLB  000000018000c8e0 f   ta_libc_csr:ta_frame.obj
 0001:0000b8f0       TA_HT_TRENDMODE_FramePP    000000018000c8f0 f   ta_libc_csr:ta_frame.obj
 0001:0000b930       TA_HT_TRENDMODE_FramePPLB  000000018000c930 f   ta_libc_csr:ta_frame.obj
 0001:0000b940       TA_IMI_FramePP             000000018000c940 f   ta_libc_csr:ta_frame.obj
 0001:0000b990       TA_IMI_FramePPLB           000000018000c990 f   ta_libc_csr:ta_frame.obj
 0001:0000b9a0       TA_KAMA_FramePP            000000018000c9a0 f   ta_libc_csr:ta_frame.obj
 0001:0000b9f0       TA_KAMA_FramePPLB          000000018000c9f0 f   ta_libc_csr:ta_frame.obj
 0001:0000ba00       TA_LINEARREG_ANGLE_FramePP 000000018000ca00 f   ta_libc_csr:ta_frame.obj
 0001:0000ba50       TA_LINEARREG_FramePP       000000018000ca50 f   ta_libc_csr:ta_frame.obj
 0001:0000baa0       TA_LINEARREG_INTERCEPT_FramePP 000000018000caa0 f   ta_libc_csr:ta_frame.obj
 0001:0000baf0       TA_LINEARREG_SLOPE_FramePP 000000018000caf0 f   ta_libc_csr:ta_frame.obj
 0001:0000bb40       TA_LN_FramePP              000000018000cb40 f   ta_libc_csr:ta_frame.obj
 0001:0000bb80       TA_LOG10_FramePP           000000018000cb80 f   ta_libc_csr:ta_frame.obj
 0001:0000bbc0       TA_MACDEXT_FramePP         000000018000cbc0 f   ta_libc_csr:ta_frame.obj
 0001:0000bc50       TA_MACDEXT_FramePPLB       000000018000cc50 f   ta_libc_csr:ta_frame.obj
 0001:0000bc90       TA_MACDFIX_FramePP         000000018000cc90 f   ta_libc_csr:ta_frame.obj
 0001:0000bd00       TA_MACDFIX_FramePPLB       000000018000cd00 f   ta_libc_csr:ta_frame.obj
 0001:0000bd10       TA_MACD_FramePP            000000018000cd10 f   ta_libc_csr:ta_frame.obj
 0001:0000bd90       TA_MACD_FramePPLB          000000018000cd90 f   ta_libc_csr:ta_frame.obj
 0001:0000bdb0       TA_MAMA_FramePP            000000018000cdb0 f   ta_libc_csr:ta_frame.obj
 0001:0000be20       TA_MAMA_FramePPLB          000000018000ce20 f   ta_libc_csr:ta_frame.obj
 0001:0000be40       TA_MAVP_FramePP            000000018000ce40 f   ta_libc_csr:ta_frame.obj
 0001:0000bea0       TA_MAVP_FramePPLB          000000018000cea0 f   ta_libc_csr:ta_frame.obj
 0001:0000bec0       TA_MAXINDEX_FramePP        000000018000cec0 f   ta_libc_csr:ta_frame.obj
 0001:0000bf10       TA_SUM_FramePPLB           000000018000cf10 f   ta_libc_csr:ta_frame.obj
 0001:0000bf10       TA_MININDEX_FramePPLB      000000018000cf10 f   ta_libc_csr:ta_frame.obj
 0001:0000bf10       TA_MINMAX_FramePPLB        000000018000cf10 f   ta_libc_csr:ta_frame.obj
 0001:0000bf10       TA_TRIMA_FramePPLB         000000018000cf10 f   ta_libc_csr:ta_frame.obj
 0001:0000bf10       TA_MIN_FramePPLB           000000018000cf10 f   ta_libc_csr:ta_frame.obj
 0001:0000bf10       TA_MAXINDEX_FramePPLB      000000018000cf10 f   ta_libc_csr:ta_frame.obj
 0001:0000bf10       TA_SMA_FramePPLB           000000018000cf10 f   ta_libc_csr:ta_frame.obj
 0001:0000bf10       TA_WMA_FramePPLB           000000018000cf10 f   ta_libc_csr:ta_frame.obj
 0001:0000bf10       TA_MAX_FramePPLB           000000018000cf10 f   ta_libc_csr:ta_frame.obj
 0001:0000bf10       TA_MINMAXINDEX_FramePPLB   000000018000cf10 f   ta_libc_csr:ta_frame.obj
 0001:0000bf20       TA_MAX_FramePP             000000018000cf20 f   ta_libc_csr:ta_frame.obj
 0001:0000bf70       TA_MA_FramePP              000000018000cf70 f   ta_libc_csr:ta_frame.obj
 0001:0000bfc0       TA_MA_FramePPLB            000000018000cfc0 f   ta_libc_csr:ta_frame.obj
 0001:0000bfd0       TA_MEDPRICE_FramePP        000000018000cfd0 f   ta_libc_csr:ta_frame.obj
 0001:0000c020       TA_MFI_FramePP             000000018000d020 f   ta_libc_csr:ta_frame.obj
 0001:0000c090       TA_MFI_FramePPLB           000000018000d090 f   ta_libc_csr:ta_frame.obj
 0001:0000c0a0       TA_MIDPOINT_FramePP        000000018000d0a0 f   ta_libc_csr:ta_frame.obj
 0001:0000c0f0       TA_MIDPRICE_FramePP        000000018000d0f0 f   ta_libc_csr:ta_frame.obj
 0001:0000c140       TA_MININDEX_FramePP        000000018000d140 f   ta_libc_csr:ta_frame.obj
 0001:0000c190       TA_MINMAXINDEX_FramePP     000000018000d190 f   ta_libc_csr:ta_frame.obj
 0001:0000c1f0       TA_MINMAX_FramePP          000000018000d1f0 f   ta_libc_csr:ta_frame.obj
 0001:0000c250       TA_MINUS_DI_FramePP        000000018000d250 f   ta_libc_csr:ta_frame.obj
 0001:0000c2b0       TA_MINUS_DI_FramePPLB      000000018000d2b0 f   ta_libc_csr:ta_frame.obj
 0001:0000c2c0       TA_MINUS_DM_FramePP        000000018000d2c0 f   ta_libc_csr:ta_frame.obj
 0001:0000c310       TA_MINUS_DM_FramePPLB      000000018000d310 f   ta_libc_csr:ta_frame.obj
 0001:0000c320       TA_MIN_FramePP             000000018000d320 f   ta_libc_csr:ta_frame.obj
 0001:0000c370       TA_MOM_FramePP             000000018000d370 f   ta_libc_csr:ta_frame.obj
 0001:0000c3c0       TA_ROC_FramePPLB           000000018000d3c0 f   ta_libc_csr:ta_frame.obj
 0001:0000c3c0       TA_MOM_FramePPLB           000000018000d3c0 f   ta_libc_csr:ta_frame.obj
 0001:0000c3c0       TA_ROCR_FramePPLB          000000018000d3c0 f   ta_libc_csr:ta_frame.obj
 0001:0000c3c0       TA_ROCR100_FramePPLB       000000018000d3c0 f   ta_libc_csr:ta_frame.obj
 0001:0000c3c0       TA_ROCP_FramePPLB          000000018000d3c0 f   ta_libc_csr:ta_frame.obj
 0001:0000c3d0       TA_MULT_FramePP            000000018000d3d0 f   ta_libc_csr:ta_frame.obj
 0001:0000c410       TA_NATR_FramePP            000000018000d410 f   ta_libc_csr:ta_frame.obj
 0001:0000c470       TA_NATR_FramePPLB          000000018000d470 f   ta_libc_csr:ta_frame.obj
 0001:0000c480       TA_OBV_FramePP             000000018000d480 f   ta_libc_csr:ta_frame.obj
 0001:0000c4c0       TA_PLUS_DI_FramePP         000000018000d4c0 f   ta_libc_csr:ta_frame.obj
 0001:0000c520       TA_PLUS_DI_FramePPLB       000000018000d520 f   ta_libc_csr:ta_frame.obj
 0001:0000c530       TA_PLUS_DM_FramePP         000000018000d530 f   ta_libc_csr:ta_frame.obj
 0001:0000c580       TA_PLUS_DM_FramePPLB       000000018000d580 f   ta_libc_csr:ta_frame.obj
 0001:0000c590       TA_PPO_FramePP             000000018000d590 f   ta_libc_csr:ta_frame.obj
 0001:0000c5f0       TA_ROCP_FramePP            000000018000d5f0 f   ta_libc_csr:ta_frame.obj
 0001:0000c640       TA_ROCR100_FramePP         000000018000d640 f   ta_libc_csr:ta_frame.obj
 0001:0000c690       TA_ROCR_FramePP            000000018000d690 f   ta_libc_csr:ta_frame.obj
 0001:0000c6e0       TA_ROC_FramePP             000000018000d6e0 f   ta_libc_csr:ta_frame.obj
 0001:0000c730       TA_RSI_FramePP             000000018000d730 f   ta_libc_csr:ta_frame.obj
 0001:0000c780       TA_RSI_FramePPLB           000000018000d780 f   ta_libc_csr:ta_frame.obj
 0001:0000c790       TA_SAREXT_FramePP          000000018000d790 f   ta_libc_csr:ta_frame.obj
 0001:0000c840       TA_SAREXT_FramePPLB        000000018000d840 f   ta_libc_csr:ta_frame.obj
 0001:0000c8a0       TA_SAR_FramePP             000000018000d8a0 f   ta_libc_csr:ta_frame.obj
 0001:0000c900       TA_SAR_FramePPLB           000000018000d900 f   ta_libc_csr:ta_frame.obj
 0001:0000c920       TA_SINH_FramePP            000000018000d920 f   ta_libc_csr:ta_frame.obj
 0001:0000c960       TA_SIN_FramePP             000000018000d960 f   ta_libc_csr:ta_frame.obj
 0001:0000c9a0       TA_SMA_FramePP             000000018000d9a0 f   ta_libc_csr:ta_frame.obj
 0001:0000c9f0       TA_SQRT_FramePP            000000018000d9f0 f   ta_libc_csr:ta_frame.obj
 0001:0000ca30       TA_STDDEV_FramePP          000000018000da30 f   ta_libc_csr:ta_frame.obj
 0001:0000ca90       TA_STDDEV_FramePPLB        000000018000da90 f   ta_libc_csr:ta_frame.obj
 0001:0000caa0       TA_STOCHF_FramePP          000000018000daa0 f   ta_libc_csr:ta_frame.obj
 0001:0000cb20       TA_STOCHF_FramePPLB        000000018000db20 f   ta_libc_csr:ta_frame.obj
 0001:0000cb40       TA_STOCHRSI_FramePP        000000018000db40 f   ta_libc_csr:ta_frame.obj
 0001:0000cbb0       TA_STOCHRSI_FramePPLB      000000018000dbb0 f   ta_libc_csr:ta_frame.obj
 0001:0000cbd0       TA_STOCH_FramePP           000000018000dbd0 f   ta_libc_csr:ta_frame.obj
 0001:0000cc60       TA_STOCH_FramePPLB         000000018000dc60 f   ta_libc_csr:ta_frame.obj
 0001:0000cc90       TA_SUB_FramePP             000000018000dc90 f   ta_libc_csr:ta_frame.obj
 0001:0000ccd0       TA_SUM_FramePP             000000018000dcd0 f   ta_libc_csr:ta_frame.obj
 0001:0000cd20       TA_T3_FramePP              000000018000dd20 f   ta_libc_csr:ta_frame.obj
 0001:0000cd80       TA_T3_FramePPLB            000000018000dd80 f   ta_libc_csr:ta_frame.obj
 0001:0000cd90       TA_TANH_FramePP            000000018000dd90 f   ta_libc_csr:ta_frame.obj
 0001:0000cdd0       TA_TAN_FramePP             000000018000ddd0 f   ta_libc_csr:ta_frame.obj
 0001:0000ce10       TA_TEMA_FramePP            000000018000de10 f   ta_libc_csr:ta_frame.obj
 0001:0000ce60       TA_TEMA_FramePPLB          000000018000de60 f   ta_libc_csr:ta_frame.obj
 0001:0000ce70       TA_TRANGE_FramePP          000000018000de70 f   ta_libc_csr:ta_frame.obj
 0001:0000cec0       TA_TRANGE_FramePPLB        000000018000dec0 f   ta_libc_csr:ta_frame.obj
 0001:0000ced0       TA_TRIMA_FramePP           000000018000ded0 f   ta_libc_csr:ta_frame.obj
 0001:0000cf20       TA_TRIX_FramePP            000000018000df20 f   ta_libc_csr:ta_frame.obj
 0001:0000cf70       TA_TRIX_FramePPLB          000000018000df70 f   ta_libc_csr:ta_frame.obj
 0001:0000cf80       TA_TSF_FramePP             000000018000df80 f   ta_libc_csr:ta_frame.obj
 0001:0000cfd0       TA_TYPPRICE_FramePP        000000018000dfd0 f   ta_libc_csr:ta_frame.obj
 0001:0000d020       TA_ULTOSC_FramePP          000000018000e020 f   ta_libc_csr:ta_frame.obj
 0001:0000d090       TA_ULTOSC_FramePPLB        000000018000e090 f   ta_libc_csr:ta_frame.obj
 0001:0000d0b0       TA_VAR_FramePP             000000018000e0b0 f   ta_libc_csr:ta_frame.obj
 0001:0000d110       TA_VAR_FramePPLB           000000018000e110 f   ta_libc_csr:ta_frame.obj
 0001:0000d120       TA_WCLPRICE_FramePP        000000018000e120 f   ta_libc_csr:ta_frame.obj
 0001:0000d170       TA_WILLR_FramePP           000000018000e170 f   ta_libc_csr:ta_frame.obj
 0001:0000d1d0       TA_WMA_FramePP             000000018000e1d0 f   ta_libc_csr:ta_frame.obj
 0001:0000d220       TA_ACCBANDS                000000018000e220 f   ta_libc_csr:ta_ACCBANDS.obj
 0001:0000d820       TA_ACCBANDS_Lookback       000000018000e820 f   ta_libc_csr:ta_ACCBANDS.obj
 0001:0000d850       TA_ACOS                    000000018000e850 f   ta_libc_csr:ta_ACOS.obj
 0001:0000d940       TA_DIV_Lookback            000000018000e940 f   ta_libc_csr:ta_DIV.obj
 0001:0000d940       TA_SUB_Lookback            000000018000e940 f   ta_libc_csr:ta_SUB.obj
 0001:0000d940       TA_CEIL_Lookback           000000018000e940 f   ta_libc_csr:ta_CEIL.obj
 0001:0000d940       TA_ASIN_Lookback           000000018000e940 f   ta_libc_csr:ta_ASIN.obj
 0001:0000d940       TA_MULT_Lookback           000000018000e940 f   ta_libc_csr:ta_MULT.obj
 0001:0000d940       TA_LOG10_Lookback          000000018000e940 f   ta_libc_csr:ta_LOG10.obj
 0001:0000d940       TA_TYPPRICE_Lookback       000000018000e940 f   ta_libc_csr:ta_TYPPRICE.obj
 0001:0000d940       TA_COS_Lookback            000000018000e940 f   ta_libc_csr:ta_COS.obj
 0001:0000d940       TA_AD_Lookback             000000018000e940 f   ta_libc_csr:ta_AD.obj
 0001:0000d940       TA_LN_Lookback             000000018000e940 f   ta_libc_csr:ta_LN.obj
 0001:0000d940       TA_WCLPRICE_Lookback       000000018000e940 f   ta_libc_csr:ta_WCLPRICE.obj
 0001:0000d940       TA_SIN_Lookback            000000018000e940 f   ta_libc_csr:ta_SIN.obj
 0001:0000d940       TA_SINH_Lookback           000000018000e940 f   ta_libc_csr:ta_SINH.obj
 0001:0000d940       TA_SQRT_Lookback           000000018000e940 f   ta_libc_csr:ta_SQRT.obj
 0001:0000d940       TA_EXP_Lookback            000000018000e940 f   ta_libc_csr:ta_EXP.obj
 0001:0000d940       TA_COSH_Lookback           000000018000e940 f   ta_libc_csr:ta_COSH.obj
 0001:0000d940       TA_AVGPRICE_Lookback       000000018000e940 f   ta_libc_csr:ta_AVGPRICE.obj
 0001:0000d940       TA_TAN_Lookback            000000018000e940 f   ta_libc_csr:ta_TAN.obj
 0001:0000d940       TA_ADD_Lookback            000000018000e940 f   ta_libc_csr:ta_ADD.obj
 0001:0000d940       TA_ATAN_Lookback           000000018000e940 f   ta_libc_csr:ta_ATAN.obj
 0001:0000d940       TA_BOP_Lookback            000000018000e940 f   ta_libc_csr:ta_BOP.obj
 0001:0000d940       TA_TANH_Lookback           000000018000e940 f   ta_libc_csr:ta_TANH.obj
 0001:0000d940       TA_OBV_Lookback            000000018000e940 f   ta_libc_csr:ta_OBV.obj
 0001:0000d940       TA_ACOS_Lookback           000000018000e940 f   ta_libc_csr:ta_ACOS.obj
 0001:0000d940       TA_MEDPRICE_Lookback       000000018000e940 f   ta_libc_csr:ta_MEDPRICE.obj
 0001:0000d940       TA_FLOOR_Lookback          000000018000e940 f   ta_libc_csr:ta_FLOOR.obj
 0001:0000d950       TA_AD                      000000018000e950 f   ta_libc_csr:ta_AD.obj
 0001:0000da70       TA_ADD                     000000018000ea70 f   ta_libc_csr:ta_ADD.obj
 0001:0000dc00       TA_ADOSC                   000000018000ec00 f   ta_libc_csr:ta_ADOSC.obj
 0001:0000e400       TA_ADOSC_Lookback          000000018000f400 f   ta_libc_csr:ta_ADOSC.obj
 0001:0000e450       TA_ADX                     000000018000f450 f   ta_libc_csr:ta_ADX.obj
 0001:0000eb30       TA_ADX_Lookback            000000018000fb30 f   ta_libc_csr:ta_ADX.obj
 0001:0000eb70       TA_ADXR                    000000018000fb70 f   ta_libc_csr:ta_ADXR.obj
 0001:0000ed90       TA_ADXR_Lookback           000000018000fd90 f   ta_libc_csr:ta_ADXR.obj
 0001:0000edf0       TA_APO                     000000018000fdf0 f   ta_libc_csr:ta_APO.obj
 0001:0000ef90       TA_APO_Lookback            000000018000ff90 f   ta_libc_csr:ta_APO.obj
 0001:0000ef90       TA_PPO_Lookback            000000018000ff90 f   ta_libc_csr:ta_PPO.obj
 0001:0000f000       TA_INT_PO                  0000000180010000 f   ta_libc_csr:ta_APO.obj
 0001:0000f1f0       TA_AROON                   00000001800101f0 f   ta_libc_csr:ta_AROON.obj
 0001:0000f630       TA_AROONOSC_Lookback       0000000180010630 f   ta_libc_csr:ta_AROONOSC.obj
 0001:0000f630       TA_AROON_Lookback          0000000180010630 f   ta_libc_csr:ta_AROON.obj
 0001:0000f660       TA_AROONOSC                0000000180010660 f   ta_libc_csr:ta_AROONOSC.obj
 0001:0000fa40       TA_ASIN                    0000000180010a40 f   ta_libc_csr:ta_ASIN.obj
 0001:0000fb30       TA_ATAN                    0000000180010b30 f   ta_libc_csr:ta_ATAN.obj
 0001:0000fc20       TA_ATR                     0000000180010c20 f   ta_libc_csr:ta_ATR.obj
 0001:0000ff10       TA_ATR_Lookback            0000000180010f10 f   ta_libc_csr:ta_ATR.obj
 0001:0000ff50       TA_AVGPRICE                0000000180010f50 f   ta_libc_csr:ta_AVGPRICE.obj
 0001:00010200       TA_AVGDEV                  0000000180011200 f   ta_libc_csr:ta_AVGDEV.obj
 0001:00010440       TA_LINEARREG_ANGLE_Lookback 0000000180011440 f   ta_libc_csr:ta_LINEARREG_ANGLE.obj
 0001:00010440       TA_LINEARREG_SLOPE_Lookback 0000000180011440 f   ta_libc_csr:ta_LINEARREG_SLOPE.obj
 0001:00010440       TA_WILLR_Lookback          0000000180011440 f   ta_libc_csr:ta_WILLR.obj
 0001:00010440       TA_CCI_Lookback            0000000180011440 f   ta_libc_csr:ta_CCI.obj
 0001:00010440       TA_LINEARREG_Lookback      0000000180011440 f   ta_libc_csr:ta_LINEARREG.obj
 0001:00010440       TA_AVGDEV_Lookback         0000000180011440 f   ta_libc_csr:ta_AVGDEV.obj
 0001:00010440       TA_MIDPRICE_Lookback       0000000180011440 f   ta_libc_csr:ta_MIDPRICE.obj
 0001:00010440       TA_TSF_Lookback            0000000180011440 f   ta_libc_csr:ta_TSF.obj
 0001:00010440       TA_LINEARREG_INTERCEPT_Lookback 0000000180011440 f   ta_libc_csr:ta_LINEARREG_INTERCEPT.obj
 0001:00010440       TA_MIDPOINT_Lookback       0000000180011440 f   ta_libc_csr:ta_MIDPOINT.obj
 0001:00010470       TA_BBANDS                  0000000180011470 f   ta_libc_csr:ta_BBANDS.obj
 0001:00010950       TA_BBANDS_Lookback         0000000180011950 f   ta_libc_csr:ta_BBANDS.obj
 0001:000109d0       TA_BETA                    00000001800119d0 f   ta_libc_csr:ta_BETA.obj
 0001:00010d90       TA_BETA_Lookback           0000000180011d90 f   ta_libc_csr:ta_BETA.obj
 0001:00010dc0       TA_BOP                     0000000180011dc0 f   ta_libc_csr:ta_BOP.obj
 0001:00011050       TA_CCI                     0000000180012050 f   ta_libc_csr:ta_CCI.obj
 0001:000114a0       TA_CDL2CROWS               00000001800124a0 f   ta_libc_csr:ta_CDL2CROWS.obj
 0001:00011b80       TA_CDL2CROWS_Lookback      0000000180012b80 f   ta_libc_csr:ta_CDL2CROWS.obj
 0001:00011ba0       TA_CDL3BLACKCROWS          0000000180012ba0 f   ta_libc_csr:ta_CDL3BLACKCROWS.obj
 0001:000123c0       TA_CDL3BLACKCROWS_Lookback 00000001800133c0 f   ta_libc_csr:ta_CDL3BLACKCROWS.obj
 0001:000123c0       TA_CDLCONCEALBABYSWALL_Lookback 00000001800133c0 f   ta_libc_csr:ta_CDLCONCEALBABYSWALL.obj
 0001:000123e0       TA_CDL3INSIDE              00000001800133e0 f   ta_libc_csr:ta_CDL3INSIDE.obj
 0001:00012ff0       TA_CDL3INSIDE_Lookback     0000000180013ff0 f   ta_libc_csr:ta_CDL3INSIDE.obj
 0001:00012ff0       TA_CDLUNIQUE3RIVER_Lookback 0000000180013ff0 f   ta_libc_csr:ta_CDLUNIQUE3RIVER.obj
 0001:00012ff0       TA_CDLUPSIDEGAP2CROWS_Lookback 0000000180013ff0 f   ta_libc_csr:ta_CDLUPSIDEGAP2CROWS.obj
 0001:00013010       TA_CDL3LINESTRIKE          0000000180014010 f   ta_libc_csr:ta_CDL3LINESTRIKE.obj
 0001:000138f0       TA_CDL3LINESTRIKE_Lookback 00000001800148f0 f   ta_libc_csr:ta_CDL3LINESTRIKE.obj
 0001:00013910       TA_CDL3OUTSIDE             0000000180014910 f   ta_libc_csr:ta_CDL3OUTSIDE.obj
 0001:00013ae0       TA_CDL3OUTSIDE_Lookback    0000000180014ae0 f   ta_libc_csr:ta_CDL3OUTSIDE.obj
 0001:00013af0       TA_CDL3STARSINSOUTH        0000000180014af0 f   ta_libc_csr:ta_CDL3STARSINSOUTH.obj
 0001:00015020       TA_CDL3STARSINSOUTH_Lookback 0000000180016020 f   ta_libc_csr:ta_CDL3STARSINSOUTH.obj
 0001:00015070       TA_CDL3WHITESOLDIERS       0000000180016070 f   ta_libc_csr:ta_CDL3WHITESOLDIERS.obj
 0001:00016560       TA_CDL3WHITESOLDIERS_Lookback 0000000180017560 f   ta_libc_csr:ta_CDL3WHITESOLDIERS.obj
 0001:000165b0       TA_CDLABANDONEDBABY        00000001800175b0 f   ta_libc_csr:ta_CDLABANDONEDBABY.obj
 0001:00017730       TA_CDLEVENINGDOJISTAR_Lookback 0000000180018730 f   ta_libc_csr:ta_CDLEVENINGDOJISTAR.obj
 0001:00017730       TA_CDLMORNINGDOJISTAR_Lookback 0000000180018730 f   ta_libc_csr:ta_CDLMORNINGDOJISTAR.obj
 0001:00017730       TA_CDLABANDONEDBABY_Lookback 0000000180018730 f   ta_libc_csr:ta_CDLABANDONEDBABY.obj
 0001:00017790       TA_CDLADVANCEBLOCK         0000000180018790 f   ta_libc_csr:ta_CDLADVANCEBLOCK.obj
 0001:00019040       TA_CDLADVANCEBLOCK_Lookback 000000018001a040 f   ta_libc_csr:ta_CDLADVANCEBLOCK.obj
 0001:000190d0       TA_CDLBELTHOLD             000000018001a0d0 f   ta_libc_csr:ta_CDLBELTHOLD.obj
 0001:00019c20       TA_CDLBELTHOLD_Lookback    000000018001ac20 f   ta_libc_csr:ta_CDLBELTHOLD.obj
 0001:00019c20       TA_CDLCLOSINGMARUBOZU_Lookback 000000018001ac20 f   ta_libc_csr:ta_CDLCLOSINGMARUBOZU.obj
 0001:00019c20       TA_CDLMARUBOZU_Lookback    000000018001ac20 f   ta_libc_csr:ta_CDLMARUBOZU.obj
 0001:00019c40       TA_CDLBREAKAWAY            000000018001ac40 f   ta_libc_csr:ta_CDLBREAKAWAY.obj
 0001:0001a4d0       TA_CDLBREAKAWAY_Lookback   000000018001b4d0 f   ta_libc_csr:ta_CDLBREAKAWAY.obj
 0001:0001a4f0       TA_CDLCLOSINGMARUBOZU      000000018001b4f0 f   ta_libc_csr:ta_CDLCLOSINGMARUBOZU.obj
 0001:0001b040       TA_CDLCONCEALBABYSWALL     000000018001c040 f   ta_libc_csr:ta_CDLCONCEALBABYSWALL.obj
 0001:0001ba10       TA_CDLCOUNTERATTACK        000000018001ca10 f   ta_libc_csr:ta_CDLCOUNTERATTACK.obj
 0001:0001c580       TA_CDLONNECK_Lookback      000000018001d580 f   ta_libc_csr:ta_CDLONNECK.obj
 0001:0001c580       TA_CDLINNECK_Lookback      000000018001d580 f   ta_libc_csr:ta_CDLINNECK.obj
 0001:0001c580       TA_CDLTHRUSTING_Lookback   000000018001d580 f   ta_libc_csr:ta_CDLTHRUSTING.obj
 0001:0001c580       TA_CDLCOUNTERATTACK_Lookback 000000018001d580 f   ta_libc_csr:ta_CDLCOUNTERATTACK.obj
 0001:0001c5a0       TA_CDLDARKCLOUDCOVER       000000018001d5a0 f   ta_libc_csr:ta_CDLDARKCLOUDCOVER.obj
 0001:0001cca0       TA_CDLDARKCLOUDCOVER_Lookback 000000018001dca0 f   ta_libc_csr:ta_CDLDARKCLOUDCOVER.obj
 0001:0001cce0       TA_CDLDOJI                 000000018001dce0 f   ta_libc_csr:ta_CDLDOJI.obj
 0001:0001d2b0       TA_CDLDOJI_Lookback        000000018001e2b0 f   ta_libc_csr:ta_CDLDOJI.obj
 0001:0001d2c0       TA_CDLDOJISTAR             000000018001e2c0 f   ta_libc_csr:ta_CDLDOJISTAR.obj
 0001:0001dde0       TA_CDLDOJISTAR_Lookback    000000018001ede0 f   ta_libc_csr:ta_CDLDOJISTAR.obj
 0001:0001dde0       TA_CDLHARAMICROSS_Lookback 000000018001ede0 f   ta_libc_csr:ta_CDLHARAMICROSS.obj
 0001:0001de00       TA_CDLDRAGONFLYDOJI        000000018001ee00 f   ta_libc_csr:ta_CDLDRAGONFLYDOJI.obj
 0001:0001e920       TA_CDLDRAGONFLYDOJI_Lookback 000000018001f920 f   ta_libc_csr:ta_CDLDRAGONFLYDOJI.obj
 0001:0001e920       TA_CDLGRAVESTONEDOJI_Lookback 000000018001f920 f   ta_libc_csr:ta_CDLGRAVESTONEDOJI.obj
 0001:0001e940       TA_CDLENGULFING            000000018001f940 f   ta_libc_csr:ta_CDLENGULFING.obj
 0001:0001eb50       TA_CDLENGULFING_Lookback   000000018001fb50 f   ta_libc_csr:ta_CDLENGULFING.obj
 0001:0001eb50       TA_CDLXSIDEGAP3METHODS_Lookback 000000018001fb50 f   ta_libc_csr:ta_CDLXSIDEGAP3METHODS.obj
 0001:0001eb60       TA_CDLEVENINGDOJISTAR      000000018001fb60 f   ta_libc_csr:ta_CDLEVENINGDOJISTAR.obj
 0001:0001fcb0       TA_CDLEVENINGSTAR          0000000180020cb0 f   ta_libc_csr:ta_CDLEVENINGSTAR.obj
 0001:00020930       TA_CDLMORNINGSTAR_Lookback 0000000180021930 f   ta_libc_csr:ta_CDLMORNINGSTAR.obj
 0001:00020930       TA_CDLEVENINGSTAR_Lookback 0000000180021930 f   ta_libc_csr:ta_CDLEVENINGSTAR.obj
 0001:00020970       TA_CDLGAPSIDESIDEWHITE     0000000180021970 f   ta_libc_csr:ta_CDLGAPSIDESIDEWHITE.obj
 0001:00021670       TA_CDLGAPSIDESIDEWHITE_Lookback 0000000180022670 f   ta_libc_csr:ta_CDLGAPSIDESIDEWHITE.obj
 0001:00021690       TA_CDLGRAVESTONEDOJI       0000000180022690 f   ta_libc_csr:ta_CDLGRAVESTONEDOJI.obj
 0001:000221b0       TA_CDLHAMMER               00000001800231b0 f   ta_libc_csr:ta_CDLHAMMER.obj
 0001:000234c0       TA_CDLHAMMER_Lookback      00000001800244c0 f   ta_libc_csr:ta_CDLHAMMER.obj
 0001:000234c0       TA_CDLHANGINGMAN_Lookback  00000001800244c0 f   ta_libc_csr:ta_CDLHANGINGMAN.obj
 0001:00023520       TA_CDLHANGINGMAN           0000000180024520 f   ta_libc_csr:ta_CDLHANGINGMAN.obj
 0001:00024830       TA_CDLHARAMI               0000000180025830 f   ta_libc_csr:ta_CDLHARAMI.obj
 0001:000253b0       TA_CDLHOMINGPIGEON_Lookback 00000001800263b0 f   ta_libc_csr:ta_CDLHOMINGPIGEON.obj
 0001:000253b0       TA_CDLHARAMI_Lookback      00000001800263b0 f   ta_libc_csr:ta_CDLHARAMI.obj
 0001:000253d0       TA_CDLHARAMICROSS          00000001800263d0 f   ta_libc_csr:ta_CDLHARAMICROSS.obj
 0001:00025f50       TA_CDLHIGHWAVE             0000000180026f50 f   ta_libc_csr:ta_CDLHIGHWAVE.obj
 0001:00026a90       TA_CDLHIGHWAVE_Lookback    0000000180027a90 f   ta_libc_csr:ta_CDLHIGHWAVE.obj
 0001:00026ab0       TA_CDLHIKKAKE              0000000180027ab0 f   ta_libc_csr:ta_CDLHIKKAKE.obj
 0001:00026dc0       TA_CDLHIKKAKE_Lookback     0000000180027dc0 f   ta_libc_csr:ta_CDLHIKKAKE.obj
 0001:00026dd0       TA_CDLHIKKAKEMOD           0000000180027dd0 f   ta_libc_csr:ta_CDLHIKKAKEMOD.obj
 0001:00027a60       TA_CDLHIKKAKEMOD_Lookback  0000000180028a60 f   ta_libc_csr:ta_CDLHIKKAKEMOD.obj
 0001:00027a80       TA_CDLHOMINGPIGEON         0000000180028a80 f   ta_libc_csr:ta_CDLHOMINGPIGEON.obj
 0001:000285e0       TA_CDLIDENTICAL3CROWS      00000001800295e0 f   ta_libc_csr:ta_CDLIDENTICAL3CROWS.obj
 0001:00029330       TA_CDLIDENTICAL3CROWS_Lookback 000000018002a330 f   ta_libc_csr:ta_CDLIDENTICAL3CROWS.obj
 0001:00029350       TA_CDLINNECK               000000018002a350 f   ta_libc_csr:ta_CDLINNECK.obj
 0001:00029e70       TA_CDLINVERTEDHAMMER       000000018002ae70 f   ta_libc_csr:ta_CDLINVERTEDHAMMER.obj
 0001:0002af90       TA_CDLINVERTEDHAMMER_Lookback 000000018002bf90 f   ta_libc_csr:ta_CDLINVERTEDHAMMER.obj
 0001:0002af90       TA_CDLSHOOTINGSTAR_Lookback 000000018002bf90 f   ta_libc_csr:ta_CDLSHOOTINGSTAR.obj
 0001:0002afd0       TA_CDLKICKING              000000018002bfd0 f   ta_libc_csr:ta_CDLKICKING.obj
 0001:0002bc20       TA_CDLKICKING_Lookback     000000018002cc20 f   ta_libc_csr:ta_CDLKICKING.obj
 0001:0002bc20       TA_CDLKICKINGBYLENGTH_Lookback 000000018002cc20 f   ta_libc_csr:ta_CDLKICKINGBYLENGTH.obj
 0001:0002bc40       TA_CDLKICKINGBYLENGTH      000000018002cc40 f   ta_libc_csr:ta_CDLKICKINGBYLENGTH.obj
 0001:0002c8a0       TA_CDLLADDERBOTTOM         000000018002d8a0 f   ta_libc_csr:ta_CDLLADDERBOTTOM.obj
 0001:0002d010       TA_CDLLADDERBOTTOM_Lookback 000000018002e010 f   ta_libc_csr:ta_CDLLADDERBOTTOM.obj
 0001:0002d030       TA_CDLLONGLEGGEDDOJI       000000018002e030 f   ta_libc_csr:ta_CDLLONGLEGGEDDOJI.obj
 0001:0002db50       TA_CDLLONGLEGGEDDOJI_Lookback 000000018002eb50 f   ta_libc_csr:ta_CDLLONGLEGGEDDOJI.obj
 0001:0002db70       TA_CDLLONGLINE             000000018002eb70 f   ta_libc_csr:ta_CDLLONGLINE.obj
 0001:0002e6b0       TA_CDLLONGLINE_Lookback    000000018002f6b0 f   ta_libc_csr:ta_CDLLONGLINE.obj
 0001:0002e6d0       TA_CDLMARUBOZU             000000018002f6d0 f   ta_libc_csr:ta_CDLMARUBOZU.obj
 0001:0002f210       TA_CDLMATCHINGLOW          0000000180030210 f   ta_libc_csr:ta_CDLMATCHINGLOW.obj
 0001:0002f950       TA_CDLMATCHINGLOW_Lookback 0000000180030950 f   ta_libc_csr:ta_CDLMATCHINGLOW.obj
 0001:0002f960       TA_CDLMATHOLD              0000000180030960 f   ta_libc_csr:ta_CDLMATHOLD.obj
 0001:000306b0       TA_CDLMATHOLD_Lookback     00000001800316b0 f   ta_libc_csr:ta_CDLMATHOLD.obj
 0001:000306f0       TA_CDLMORNINGDOJISTAR      00000001800316f0 f   ta_libc_csr:ta_CDLMORNINGDOJISTAR.obj
 0001:00031840       TA_CDLMORNINGSTAR          0000000180032840 f   ta_libc_csr:ta_CDLMORNINGSTAR.obj
 0001:000324c0       TA_CDLONNECK               00000001800334c0 f   ta_libc_csr:ta_CDLONNECK.obj
 0001:000330a0       TA_CDLPIERCING             00000001800340a0 f   ta_libc_csr:ta_CDLPIERCING.obj
 0001:00033750       TA_CDLPIERCING_Lookback    0000000180034750 f   ta_libc_csr:ta_CDLPIERCING.obj
 0001:00033760       TA_CDLRICKSHAWMAN          0000000180034760 f   ta_libc_csr:ta_CDLRICKSHAWMAN.obj
 0001:00034760       TA_CDLRICKSHAWMAN_Lookback 0000000180035760 f   ta_libc_csr:ta_CDLRICKSHAWMAN.obj
 0001:000347a0       TA_CDLRISEFALL3METHODS     00000001800357a0 f   ta_libc_csr:ta_CDLRISEFALL3METHODS.obj
 0001:00035590       TA_CDLRISEFALL3METHODS_Lookback 0000000180036590 f   ta_libc_csr:ta_CDLRISEFALL3METHODS.obj
 0001:000355b0       TA_CDLSEPARATINGLINES      00000001800365b0 f   ta_libc_csr:ta_CDLSEPARATINGLINES.obj
 0001:00036620       TA_CDLSEPARATINGLINES_Lookback 0000000180037620 f   ta_libc_csr:ta_CDLSEPARATINGLINES.obj
 0001:00036660       TA_CDLSHOOTINGSTAR         0000000180037660 f   ta_libc_csr:ta_CDLSHOOTINGSTAR.obj
 0001:00037760       TA_CDLSHORTLINE            0000000180038760 f   ta_libc_csr:ta_CDLSHORTLINE.obj
 0001:000382a0       TA_CDLSHORTLINE_Lookback   00000001800392a0 f   ta_libc_csr:ta_CDLSHORTLINE.obj
 0001:000382c0       TA_CDLSPINNINGTOP          00000001800392c0 f   ta_libc_csr:ta_CDLSPINNINGTOP.obj
 0001:000388f0       TA_CDLSPINNINGTOP_Lookback 00000001800398f0 f   ta_libc_csr:ta_CDLSPINNINGTOP.obj
 0001:00038900       TA_CDLSTALLEDPATTERN       0000000180039900 f   ta_libc_csr:ta_CDLSTALLEDPATTERN.obj
 0001:00039d20       TA_CDLSTALLEDPATTERN_Lookback 000000018003ad20 f   ta_libc_csr:ta_CDLSTALLEDPATTERN.obj
 0001:00039d70       TA_CDLSTICKSANDWICH        000000018003ad70 f   ta_libc_csr:ta_CDLSTICKSANDWICH.obj
 0001:0003a500       TA_CDLSTICKSANDWICH_Lookback 000000018003b500 f   ta_libc_csr:ta_CDLSTICKSANDWICH.obj
 0001:0003a520       TA_CDLTAKURI               000000018003b520 f   ta_libc_csr:ta_CDLTAKURI.obj
 0001:0003b590       TA_CDLTAKURI_Lookback      000000018003c590 f   ta_libc_csr:ta_CDLTAKURI.obj
 0001:0003b5d0       TA_CDLTASUKIGAP            000000018003c5d0 f   ta_libc_csr:ta_CDLTASUKIGAP.obj
 0001:0003be60       TA_CDLTASUKIGAP_Lookback   000000018003ce60 f   ta_libc_csr:ta_CDLTASUKIGAP.obj
 0001:0003be80       TA_CDLTHRUSTING            000000018003ce80 f   ta_libc_csr:ta_CDLTHRUSTING.obj
 0001:0003c9e0       TA_CDLTRISTAR              000000018003d9e0 f   ta_libc_csr:ta_CDLTRISTAR.obj
 0001:0003d230       TA_CDLTRISTAR_Lookback     000000018003e230 f   ta_libc_csr:ta_CDLTRISTAR.obj
 0001:0003d250       TA_CDLUNIQUE3RIVER         000000018003e250 f   ta_libc_csr:ta_CDLUNIQUE3RIVER.obj
 0001:0003de20       TA_CDLUPSIDEGAP2CROWS      000000018003ee20 f   ta_libc_csr:ta_CDLUPSIDEGAP2CROWS.obj
 0001:0003ea00       TA_CDLXSIDEGAP3METHODS     000000018003fa00 f   ta_libc_csr:ta_CDLXSIDEGAP3METHODS.obj
 0001:0003ec40       TA_CEIL                    000000018003fc40 f   ta_libc_csr:ta_CEIL.obj
 0001:0003ed30       TA_CMO                     000000018003fd30 f   ta_libc_csr:ta_CMO.obj
 0001:0003f370       TA_CMO_Lookback            0000000180040370 f   ta_libc_csr:ta_CMO.obj
 0001:0003f3b0       TA_CORREL                  00000001800403b0 f   ta_libc_csr:ta_CORREL.obj
 0001:0003f8d0       TA_CORREL_Lookback         00000001800408d0 f   ta_libc_csr:ta_CORREL.obj
 0001:0003f900       TA_COS                     0000000180040900 f   ta_libc_csr:ta_COS.obj
 0001:0003f9f0       TA_COSH                    00000001800409f0 f   ta_libc_csr:ta_COSH.obj
 0001:0003fae0       TA_DEMA                    0000000180040ae0 f   ta_libc_csr:ta_DEMA.obj
 0001:0003fdb0       TA_DEMA_Lookback           0000000180040db0 f   ta_libc_csr:ta_DEMA.obj
 0001:0003fdf0       TA_DIV                     0000000180040df0 f   ta_libc_csr:ta_DIV.obj
 0001:0003ff80       TA_DX                      0000000180040f80 f   ta_libc_csr:ta_DX.obj
 0001:000404f0       TA_DX_Lookback             00000001800414f0 f   ta_libc_csr:ta_DX.obj
 0001:00040540       TA_EMA                     0000000180041540 f   ta_libc_csr:ta_EMA.obj
 0001:000405f0       TA_EMA_Lookback            00000001800415f0 f   ta_libc_csr:ta_EMA.obj
 0001:00040630       TA_INT_EMA                 0000000180041630 f   ta_libc_csr:ta_EMA.obj
 0001:00040900       TA_EXP                     0000000180041900 f   ta_libc_csr:ta_EXP.obj
 0001:000409f0       TA_FLOOR                   00000001800419f0 f   ta_libc_csr:ta_FLOOR.obj
 0001:00040ae0       TA_HT_DCPERIOD             0000000180041ae0 f   ta_libc_csr:ta_HT_DCPERIOD.obj
 0001:00041330       TA_HT_DCPERIOD_Lookback    0000000180042330 f   ta_libc_csr:ta_HT_DCPERIOD.obj
 0001:00041350       TA_HT_DCPHASE              0000000180042350 f   ta_libc_csr:ta_HT_DCPHASE.obj
 0001:00041dd0       TA_HT_DCPHASE_Lookback     0000000180042dd0 f   ta_libc_csr:ta_HT_DCPHASE.obj
 0001:00041df0       TA_HT_PHASOR               0000000180042df0 f   ta_libc_csr:ta_HT_PHASOR.obj
 0001:00042660       TA_HT_PHASOR_Lookback      0000000180043660 f   ta_libc_csr:ta_HT_PHASOR.obj
 0001:00042680       TA_HT_SINE                 0000000180043680 f   ta_libc_csr:ta_HT_SINE.obj
 0001:00043160       TA_HT_SINE_Lookback        0000000180044160 f   ta_libc_csr:ta_HT_SINE.obj
 0001:00043180       TA_HT_TRENDLINE            0000000180044180 f   ta_libc_csr:ta_HT_TRENDLINE.obj
 0001:00043af0       TA_HT_TRENDLINE_Lookback   0000000180044af0 f   ta_libc_csr:ta_HT_TRENDLINE.obj
 0001:00043b10       TA_HT_TRENDMODE            0000000180044b10 f   ta_libc_csr:ta_HT_TRENDMODE.obj
 0001:000447b0       TA_HT_TRENDMODE_Lookback   00000001800457b0 f   ta_libc_csr:ta_HT_TRENDMODE.obj
 0001:000447d0       TA_IMI                     00000001800457d0 f   ta_libc_csr:ta_IMI.obj
 0001:00044aa0       TA_IMI_Lookback            0000000180045aa0 f   ta_libc_csr:ta_IMI.obj
 0001:00044ae0       TA_KAMA                    0000000180045ae0 f   ta_libc_csr:ta_KAMA.obj
 0001:00045350       TA_KAMA_Lookback           0000000180046350 f   ta_libc_csr:ta_KAMA.obj
 0001:00045390       TA_LINEARREG               0000000180046390 f   ta_libc_csr:ta_LINEARREG.obj
 0001:00045580       TA_LINEARREG_ANGLE         0000000180046580 f   ta_libc_csr:ta_LINEARREG_ANGLE.obj
 0001:000457c0       TA_LINEARREG_INTERCEPT     00000001800467c0 f   ta_libc_csr:ta_LINEARREG_INTERCEPT.obj
 0001:00045990       TA_LINEARREG_SLOPE         0000000180046990 f   ta_libc_csr:ta_LINEARREG_SLOPE.obj
 0001:00045b50       TA_LN                      0000000180046b50 f   ta_libc_csr:ta_LN.obj
 0001:00045c40       TA_LOG10                   0000000180046c40 f   ta_libc_csr:ta_LOG10.obj
 0001:00045d30       TA_MA                      0000000180046d30 f   ta_libc_csr:ta_MA.obj
 0001:00046120       TA_MA_Lookback             0000000180047120 f   ta_libc_csr:ta_MA.obj
 0001:00046260       TA_INT_MACD                0000000180047260 f   ta_libc_csr:ta_MACD.obj
 0001:00046740       TA_MACD                    0000000180047740 f   ta_libc_csr:ta_MACD.obj
 0001:00046870       TA_MACD_Lookback           0000000180047870 f   ta_libc_csr:ta_MACD.obj
 0001:00046900       TA_MACDEXT                 0000000180047900 f   ta_libc_csr:ta_MACDEXT.obj
 0001:00046ee0       TA_MACDEXT_Lookback        0000000180047ee0 f   ta_libc_csr:ta_MACDEXT.obj
 0001:00047000       TA_MACDFIX                 0000000180048000 f   ta_libc_csr:ta_MACDFIX.obj
 0001:000470d0       TA_MACDFIX_Lookback        00000001800480d0 f   ta_libc_csr:ta_MACDFIX.obj
 0001:00047120       TA_MAMA                    0000000180048120 f   ta_libc_csr:ta_MAMA.obj
 0001:00047b30       TA_MAMA_Lookback           0000000180048b30 f   ta_libc_csr:ta_MAMA.obj
 0001:00047b90       TA_MAVP                    0000000180048b90 f   ta_libc_csr:ta_MAVP.obj
 0001:00048090       TA_MAVP_Lookback           0000000180049090 f   ta_libc_csr:ta_MAVP.obj
 0001:000480f0       TA_MAX                     00000001800490f0 f   ta_libc_csr:ta_MAX.obj
 0001:00048350       TA_MINMAX_Lookback         0000000180049350 f   ta_libc_csr:ta_MINMAX.obj
 0001:00048350       TA_TRIMA_Lookback          0000000180049350 f   ta_libc_csr:ta_TRIMA.obj
 0001:00048350       TA_MINMAXINDEX_Lookback    0000000180049350 f   ta_libc_csr:ta_MINMAXINDEX.obj
 0001:00048350       TA_MAX_Lookback            0000000180049350 f   ta_libc_csr:ta_MAX.obj
 0001:00048350       TA_MININDEX_Lookback       0000000180049350 f   ta_libc_csr:ta_MININDEX.obj
 0001:00048350       TA_SUM_Lookback            0000000180049350 f   ta_libc_csr:ta_SUM.obj
 0001:00048350       TA_SMA_Lookback            0000000180049350 f   ta_libc_csr:ta_SMA.obj
 0001:00048350       TA_WMA_Lookback            0000000180049350 f   ta_libc_csr:ta_WMA.obj
 0001:00048350       TA_MAXINDEX_Lookback       0000000180049350 f   ta_libc_csr:ta_MAXINDEX.obj
 0001:00048350       TA_MIN_Lookback            0000000180049350 f   ta_libc_csr:ta_MIN.obj
 0001:00048380       TA_MAXINDEX                0000000180049380 f   ta_libc_csr:ta_MAXINDEX.obj
 0001:000485d0       TA_MEDPRICE                00000001800495d0 f   ta_libc_csr:ta_MEDPRICE.obj
 0001:000487a0       TA_MFI                     00000001800497a0 f   ta_libc_csr:ta_MFI.obj
 0001:00048f10       TA_MFI_Lookback            0000000180049f10 f   ta_libc_csr:ta_MFI.obj
 0001:00048f50       TA_MIDPOINT                0000000180049f50 f   ta_libc_csr:ta_MIDPOINT.obj
 0001:00049110       TA_MIDPRICE                000000018004a110 f   ta_libc_csr:ta_MIDPRICE.obj
 0001:00049330       TA_MIN                     000000018004a330 f   ta_libc_csr:ta_MIN.obj
 0001:00049590       TA_MININDEX                000000018004a590 f   ta_libc_csr:ta_MININDEX.obj
 0001:000497e0       TA_MINMAX                  000000018004a7e0 f   ta_libc_csr:ta_MINMAX.obj
 0001:00049b70       TA_MINMAXINDEX             000000018004ab70 f   ta_libc_csr:ta_MINMAXINDEX.obj
 0001:00049ed0       TA_MINUS_DI                000000018004aed0 f   ta_libc_csr:ta_MINUS_DI.obj
 0001:0004a460       TA_MINUS_DI_Lookback       000000018004b460 f   ta_libc_csr:ta_MINUS_DI.obj
 0001:0004a4b0       TA_MINUS_DM                000000018004b4b0 f   ta_libc_csr:ta_MINUS_DM.obj
 0001:0004a7f0       TA_MINUS_DM_Lookback       000000018004b7f0 f   ta_libc_csr:ta_MINUS_DM.obj
 0001:0004a830       TA_MOM                     000000018004b830 f   ta_libc_csr:ta_MOM.obj
 0001:0004aa10       TA_MOM_Lookback            000000018004ba10 f   ta_libc_csr:ta_MOM.obj
 0001:0004aa10       TA_ROCR100_Lookback        000000018004ba10 f   ta_libc_csr:ta_ROCR100.obj
 0001:0004aa10       TA_ROC_Lookback            000000018004ba10 f   ta_libc_csr:ta_ROC.obj
 0001:0004aa10       TA_ROCR_Lookback           000000018004ba10 f   ta_libc_csr:ta_ROCR.obj
 0001:0004aa10       TA_ROCP_Lookback           000000018004ba10 f   ta_libc_csr:ta_ROCP.obj
 0001:0004aa40       TA_MULT                    000000018004ba40 f   ta_libc_csr:ta_MULT.obj
 0001:0004abd0       TA_NATR                    000000018004bbd0 f   ta_libc_csr:ta_NATR.obj
 0001:0004af30       TA_NATR_Lookback           000000018004bf30 f   ta_libc_csr:ta_NATR.obj
 0001:0004af70       TA_OBV                     000000018004bf70 f   ta_libc_csr:ta_OBV.obj
 0001:0004b150       TA_PLUS_DI                 000000018004c150 f   ta_libc_csr:ta_PLUS_DI.obj
 0001:0004b6c0       TA_PLUS_DI_Lookback        000000018004c6c0 f   ta_libc_csr:ta_PLUS_DI.obj
 0001:0004b710       TA_PLUS_DM                 000000018004c710 f   ta_libc_csr:ta_PLUS_DM.obj
 0001:0004ba30       TA_PLUS_DM_Lookback        000000018004ca30 f   ta_libc_csr:ta_PLUS_DM.obj
 0001:0004ba70       TA_PPO                     000000018004ca70 f   ta_libc_csr:ta_PPO.obj
 0001:0004bc10       TA_ROC                     000000018004cc10 f   ta_libc_csr:ta_ROC.obj
 0001:0004be60       TA_ROCP                    000000018004ce60 f   ta_libc_csr:ta_ROCP.obj
 0001:0004c090       TA_ROCR                    000000018004d090 f   ta_libc_csr:ta_ROCR.obj
 0001:0004c2b0       TA_ROCR100                 000000018004d2b0 f   ta_libc_csr:ta_ROCR100.obj
 0001:0004c4f0       TA_RSI                     000000018004d4f0 f   ta_libc_csr:ta_RSI.obj
 0001:0004cb30       TA_RSI_Lookback            000000018004db30 f   ta_libc_csr:ta_RSI.obj
 0001:0004cb70       TA_SAR                     000000018004db70 f   ta_libc_csr:ta_SAR.obj
 0001:0004cf00       TA_SAR_Lookback            000000018004df00 f   ta_libc_csr:ta_SAR.obj
 0001:0004cf50       TA_SAREXT                  000000018004df50 f   ta_libc_csr:ta_SAREXT.obj
 0001:0004d590       TA_SAREXT_Lookback         000000018004e590 f   ta_libc_csr:ta_SAREXT.obj
 0001:0004d6a0       TA_SIN                     000000018004e6a0 f   ta_libc_csr:ta_SIN.obj
 0001:0004d790       TA_SINH                    000000018004e790 f   ta_libc_csr:ta_SINH.obj
 0001:0004d880       TA_INT_SMA                 000000018004e880 f   ta_libc_csr:ta_SMA.obj
 0001:0004d9c0       TA_SMA                     000000018004e9c0 f   ta_libc_csr:ta_SMA.obj
 0001:0004da10       TA_SQRT                    000000018004ea10 f   ta_libc_csr:ta_SQRT.obj
 0001:0004dbe0       TA_INT_stddev_using_precalc_ma 000000018004ebe0 f   ta_libc_csr:ta_STDDEV.obj
 0001:0004dd80       TA_STDDEV                  000000018004ed80 f   ta_libc_csr:ta_STDDEV.obj
 0001:0004df50       TA_STDDEV_Lookback         000000018004ef50 f   ta_libc_csr:ta_STDDEV.obj
 0001:0004dfb0       TA_STOCH                   000000018004efb0 f   ta_libc_csr:ta_STOCH.obj
 0001:0004e640       TA_STOCH_Lookback          000000018004f640 f   ta_libc_csr:ta_STOCH.obj
 0001:0004e730       TA_STOCHF                  000000018004f730 f   ta_libc_csr:ta_STOCHF.obj
 0001:0004ed20       TA_STOCHF_Lookback         000000018004fd20 f   ta_libc_csr:ta_STOCHF.obj
 0001:0004edb0       TA_STOCHRSI                000000018004fdb0 f   ta_libc_csr:ta_STOCHRSI.obj
 0001:0004f060       TA_STOCHRSI_Lookback       0000000180050060 f   ta_libc_csr:ta_STOCHRSI.obj
 0001:0004f110       TA_SUB                     0000000180050110 f   ta_libc_csr:ta_SUB.obj
 0001:0004f2a0       TA_SUM                     00000001800502a0 f   ta_libc_csr:ta_SUM.obj
 0001:0004f430       TA_T3                      0000000180050430 f   ta_libc_csr:ta_T3.obj
 0001:000504f0       TA_T3_Lookback             00000001800514f0 f   ta_libc_csr:ta_T3.obj
 0001:00050550       TA_TAN                     0000000180051550 f   ta_libc_csr:ta_TAN.obj
 0001:00050640       TA_TANH                    0000000180051640 f   ta_libc_csr:ta_TANH.obj
 0001:00050730       TA_TEMA                    0000000180051730 f   ta_libc_csr:ta_TEMA.obj
 0001:00050a70       TA_TEMA_Lookback           0000000180051a70 f   ta_libc_csr:ta_TEMA.obj
 0001:00050ab0       TA_TRANGE                  0000000180051ab0 f   ta_libc_csr:ta_TRANGE.obj
 0001:00050d90       TA_TRANGE_Lookback         0000000180051d90 f   ta_libc_csr:ta_TRANGE.obj
 0001:00050d90       DllMain                    0000000180051d90 f   LIBCMT:dll_dllmain_stub.obj
 0001:00050d90       _get_startup_argv_mode     0000000180051d90 f   LIBCMT:argv_mode.obj
 0001:00050da0       TA_TRIMA                   0000000180051da0 f   ta_libc_csr:ta_TRIMA.obj
 0001:00051540       TA_TRIX                    0000000180052540 f   ta_libc_csr:ta_TRIX.obj
 0001:00051820       TA_TRIX_Lookback           0000000180052820 f   ta_libc_csr:ta_TRIX.obj
 0001:00051870       TA_TSF                     0000000180052870 f   ta_libc_csr:ta_TSF.obj
 0001:00051a50       TA_TYPPRICE                0000000180052a50 f   ta_libc_csr:ta_TYPPRICE.obj
 0001:00051c80       TA_ULTOSC                  0000000180052c80 f   ta_libc_csr:ta_ULTOSC.obj
 0001:00052840       TA_ULTOSC_Lookback         0000000180053840 f   ta_libc_csr:ta_ULTOSC.obj
 0001:000528c0       TA_INT_VAR                 00000001800538c0 f   ta_libc_csr:ta_VAR.obj
 0001:00052a70       TA_VAR                     0000000180053a70 f   ta_libc_csr:ta_VAR.obj
 0001:00052b30       TA_VAR_Lookback            0000000180053b30 f   ta_libc_csr:ta_VAR.obj
 0001:00052b80       TA_WCLPRICE                0000000180053b80 f   ta_libc_csr:ta_WCLPRICE.obj
 0001:00052dd0       TA_WILLR                   0000000180053dd0 f   ta_libc_csr:ta_WILLR.obj
 0001:000531f0       TA_WMA                     00000001800541f0 f   ta_libc_csr:ta_WMA.obj
 0001:0005365c       ??0bad_alloc@std@@QEAA@AEBV01@@Z 000000018005465c f i libcpmt:xthrow.obj
 0001:0005369c       ??0bad_alloc@std@@QEAA@XZ  000000018005469c f i libcpmt:xthrow.obj
 0001:000536bc       ??0exception@std@@QEAA@AEBV01@@Z 00000001800546bc f i libcpmt:xthrow.obj
 0001:000536f4       ??0length_error@std@@QEAA@AEBV01@@Z 00000001800546f4 f i libcpmt:xthrow.obj
 0001:00053734       ??0length_error@std@@QEAA@PEBD@Z 0000000180054734 f i libcpmt:xthrow.obj
 0001:00053780       ??0logic_error@std@@QEAA@AEBV01@@Z 0000000180054780 f i libcpmt:xthrow.obj
 0001:000537c0       ??1length_error@std@@UEAA@XZ 00000001800547c0 f i libcpmt:xthrow.obj
 0001:000537c0       ??1bad_array_new_length@std@@UEAA@XZ 00000001800547c0 f i LIBCMT:throw_bad_alloc.obj
 0001:000537c0       ??1bad_alloc@std@@UEAA@XZ  00000001800547c0 f i libcpmt:xthrow.obj
 0001:000537d4       ??_Ebad_alloc@std@@UEAAPEAXI@Z 00000001800547d4 f i libcpmt:xthrow.obj
 0001:000537d4       ??_Glogic_error@std@@UEAAPEAXI@Z 00000001800547d4 f i libcpmt:xthrow.obj
 0001:000537d4       ??_Gbad_array_new_length@std@@UEAAPEAXI@Z 00000001800547d4 f i LIBCMT:throw_bad_alloc.obj
 0001:000537d4       ??_Gexception@std@@UEAAPEAXI@Z 00000001800547d4 f i libcpmt:xthrow.obj
 0001:000537d4       ??_Glength_error@std@@UEAAPEAXI@Z 00000001800547d4 f i libcpmt:xthrow.obj
 0001:000537d4       ??_Eexception@std@@UEAAPEAXI@Z 00000001800547d4 f i libcpmt:xthrow.obj
 0001:000537d4       ??_Ebad_array_new_length@std@@UEAAPEAXI@Z 00000001800547d4 f i LIBCMT:throw_bad_alloc.obj
 0001:000537d4       ??_Elength_error@std@@UEAAPEAXI@Z 00000001800547d4 f i libcpmt:xthrow.obj
 0001:000537d4       ??_Elogic_error@std@@UEAAPEAXI@Z 00000001800547d4 f i libcpmt:xthrow.obj
 0001:000537d4       ??_Gbad_alloc@std@@UEAAPEAXI@Z 00000001800547d4 f i libcpmt:xthrow.obj
 0001:00053818       ?_Xlength_error@std@@YAXPEBD@Z 0000000180054818 f   libcpmt:xthrow.obj
 0001:0005383c       ?what@exception@std@@UEBAPEBDXZ 000000018005483c f i libcpmt:xthrow.obj
 0001:00053860       __security_check_cookie    0000000180054860 f   LIBCMT:amdsecgs.obj
 0001:00053884       ??3@YAXPEAX_K@Z            0000000180054884 f   LIBCMT:delete_scalar_size.obj
 0001:00053884       ??_V@YAXPEAX@Z             0000000180054884 f   LIBCMT:delete_array.obj
 0001:0005388c       ??2@YAPEAX_K@Z             000000018005488c f   LIBCMT:new_scalar.obj
 0001:000538c8       ??_U@YAPEAX_K@Z            00000001800548c8 f   LIBCMT:new_array.obj
 0001:00053c00       _DllMainCRTStartup         0000000180054c00 f   LIBCMT:dll_dllmain.obj
 0001:00053c40       __GSHandlerCheck           0000000180054c40 f   LIBCMT:gshandler.obj
 0001:00053c60       __GSHandlerCheckCommon     0000000180054c60 f   LIBCMT:gshandler.obj
 0001:00053cbc       __isa_available_init       0000000180054cbc f   LIBCMT:cpu_disp.obj
 0001:00053e78       ??_Gtype_info@@UEAAPEAXI@Z 0000000180054e78 f i LIBCMT:std_type_info_static.obj
 0001:00053e78       ??_Etype_info@@UEAAPEAXI@Z 0000000180054e78 f i LIBCMT:std_type_info_static.obj
 0001:00053ea4       __raise_securityfailure    0000000180054ea4 f   LIBCMT:gs_report.obj
 0001:00053ed8       __report_gsfailure         0000000180054ed8 f   LIBCMT:gs_report.obj
 0001:00053fac       __report_rangecheckfailure 0000000180054fac f   LIBCMT:gs_report.obj
 0001:00053fc0       __report_securityfailure   0000000180054fc0 f   LIBCMT:gs_report.obj
 0001:00054140       ??3@YAXPEAX@Z              0000000180055140 f   LIBCMT:delete_scalar.obj
 0001:00054148       ??0bad_array_new_length@std@@QEAA@AEBV01@@Z 0000000180055148 f i LIBCMT:throw_bad_alloc.obj
 0001:00054188       ??0bad_array_new_length@std@@QEAA@XZ 0000000180055188 f i LIBCMT:throw_bad_alloc.obj
 0001:000541a8       ?__scrt_throw_std_bad_alloc@@YAXXZ 00000001800551a8 f   LIBCMT:throw_bad_alloc.obj
 0001:000541c8       ?__scrt_throw_std_bad_array_new_length@@YAXXZ 00000001800551c8 f   LIBCMT:throw_bad_alloc.obj
 0001:000541e8       __security_init_cookie     00000001800551e8 f   LIBCMT:gs_support.obj
 0001:00054294       ?__scrt_initialize_type_info@@YAXXZ 0000000180055294 f   LIBCMT:tncleanup.obj
 0001:000542a4       ?__scrt_uninitialize_type_info@@YAXXZ 00000001800552a4 f   LIBCMT:tncleanup.obj
 0001:000542b0       __local_stdio_printf_options 00000001800552b0 f i LIBCMT:default_local_stdio_options.obj
 0001:000542b8       __local_stdio_scanf_options 00000001800552b8 f i LIBCMT:default_local_stdio_options.obj
 0001:000542c0       __scrt_initialize_default_local_stdio_options 00000001800552c0 f   LIBCMT:default_local_stdio_options.obj
 0001:000542dc       __scrt_acquire_startup_lock 00000001800552dc f   LIBCMT:utility.obj
 0001:00054318       __scrt_dllmain_after_initialize_c 0000000180055318 f   LIBCMT:utility.obj
 0001:0005434c       __scrt_dllmain_before_initialize_c 000000018005534c f   LIBCMT:utility.obj
 0001:00054364       __scrt_dllmain_crt_thread_attach 0000000180055364 f   LIBCMT:utility.obj
 0001:0005438c       __scrt_dllmain_crt_thread_detach 000000018005538c f   LIBCMT:utility.obj
 0001:000543a4       __scrt_dllmain_exception_filter 00000001800553a4 f   LIBCMT:utility.obj
 0001:00054404       __scrt_dllmain_uninitialize_c 0000000180055404 f   LIBCMT:utility.obj
 0001:00054434       __scrt_dllmain_uninitialize_critical 0000000180055434 f   LIBCMT:utility.obj
 0001:00054448       __scrt_initialize_crt      0000000180055448 f   LIBCMT:utility.obj
 0001:00054494       __scrt_initialize_onexit_tables 0000000180055494 f   LIBCMT:utility.obj
 0001:0005456c       __scrt_is_nonwritable_in_current_image 000000018005556c f   LIBCMT:utility.obj
 0001:00054608       __scrt_release_startup_lock 0000000180055608 f   LIBCMT:utility.obj
 0001:0005462c       __scrt_uninitialize_crt    000000018005562c f   LIBCMT:utility.obj
 0001:00054658       __scrt_get_dyn_tls_init_callback 0000000180055658 f   LIBCMT:dyn_tls_init.obj
 0001:00054660       __crt_debugger_hook        0000000180055660 f   LIBCMT:utility_desktop.obj
 0001:00054668       __scrt_fastfail            0000000180055668 f   LIBCMT:utility_desktop.obj
 0001:000547b4       _RTC_Initialize            00000001800557b4 f   LIBCMT:initsect.obj
 0001:000547f0       _RTC_Terminate             00000001800557f0 f   LIBCMT:initsect.obj
 0001:0005482c       _guard_check_icall_nop     000000018005582c f i LIBCMT:guard_support.obj
 0001:00054830       __scrt_is_ucrt_dll_in_use  0000000180055830 f   LIBCMT:ucrt_detection.obj
 0001:00054840       _purecall                  0000000180055840 f   libvcruntime:purevirt.obj
 0001:00054880       memset_repmovs             0000000180055880 f   libvcruntime:memset.obj
 0001:000548a0       memset                     00000001800558a0 f   libvcruntime:memset.obj
 0001:00054a40       memcpy_repmovs             0000000180055a40 f   libvcruntime:memcpy.obj
 0001:00054a60       memmove                    0000000180055a60 f   libvcruntime:memcpy.obj
 0001:00054a60       memcpy                     0000000180055a60 f   libvcruntime:memcpy.obj
 0001:00054e98       __std_exception_copy       0000000180055e98 f   libvcruntime:std_exception.obj
 0001:00054f28       __std_exception_destroy    0000000180055f28 f   libvcruntime:std_exception.obj
 0001:00054f50       _CxxThrowException         0000000180055f50 f   libvcruntime:throw.obj
 0001:00055010       __C_specific_handler       0000000180056010 f   libvcruntime:riscchandler.obj
 0001:0005521c       __std_type_info_destroy_list 000000018005621c f   libvcruntime:std_type_info.obj
 0001:00055248       __vcrt_initialize          0000000180056248 f   libvcruntime:initialization.obj
 0001:0005527c       __vcrt_thread_attach       000000018005627c f   libvcruntime:initialization.obj
 0001:00055290       __vcrt_thread_detach       0000000180056290 f   libvcruntime:initialization.obj
 0001:000552a4       __vcrt_uninitialize        00000001800562a4 f   libvcruntime:initialization.obj
 0001:000552c4       __vcrt_uninitialize_critical 00000001800562c4 f   libvcruntime:initialization.obj
 0001:000552d4       __vcrt_initialize_pure_virtual_call_handler 00000001800562d4 f   libvcruntime:purevirt_data.obj
 0001:00055300       _NLG_Notify                0000000180056300 f   libvcruntime:notify.obj
 0001:00055320       __NLG_Dispatch2            0000000180056320 f   libvcruntime:notify.obj
 0001:00055330       __NLG_Return2              0000000180056330 f   libvcruntime:notify.obj
 0001:00055334       __except_validate_context_record 0000000180056334 f   libvcruntime:jbcxrval.obj
 0001:0005536c       __DestructExceptionObject  000000018005636c f   libvcruntime:ehhelpers.obj
 0001:000553e0       ?_CallMemberFunction0@@YAXQEAX0@Z 00000001800563e0 f i libvcruntime:ehhelpers.obj
 0001:000553e4       __vcrt_freefls             00000001800563e4 f   libvcruntime:per_thread_data.obj
 0001:00055404       __vcrt_freeptd             0000000180056404 f   libvcruntime:per_thread_data.obj
 0001:00055454       __vcrt_getptd_noexit       0000000180056454 f   libvcruntime:per_thread_data.obj
 0001:00055520       __vcrt_initialize_ptd      0000000180056520 f   libvcruntime:per_thread_data.obj
 0001:00055574       __vcrt_uninitialize_ptd    0000000180056574 f   libvcruntime:per_thread_data.obj
 0001:00055598       __vcrt_initialize_locks    0000000180056598 f   libvcruntime:locks.obj
 0001:000555e0       __vcrt_uninitialize_locks  00000001800565e0 f   libvcruntime:locks.obj
 0001:000557f0       __vcrt_FlsAlloc            00000001800567f0 f   libvcruntime:winapi_downlevel.obj
 0001:00055838       __vcrt_FlsFree             0000000180056838 f   libvcruntime:winapi_downlevel.obj
 0001:00055880       __vcrt_FlsGetValue         0000000180056880 f   libvcruntime:winapi_downlevel.obj
 0001:000558c8       __vcrt_FlsSetValue         00000001800568c8 f   libvcruntime:winapi_downlevel.obj
 0001:0005591c       __vcrt_InitializeCriticalSectionEx 000000018005691c f   libvcruntime:winapi_downlevel.obj
 0001:00055980       __vcrt_initialize_winapi_thunks 0000000180056980 f   libvcruntime:winapi_downlevel.obj
 0001:000559b0       __vcrt_uninitialize_winapi_thunks 00000001800569b0 f   libvcruntime:winapi_downlevel.obj
 0001:00055a00       _CallSettingFrame          0000000180056a00 f   libvcruntime:handlers.obj
 0001:00055a50       _CallSettingFrameEncoded   0000000180056a50 f   libvcruntime:handlers.obj
 0001:00055a98       free                       0000000180056a98 f   libucrt:free.obj
 0001:000561c4       ??$ftprintf@PEAU_iobuf@@PEB_WAEBQEB_WAEBQEB_WAEBI@?$__crt_char_traits@_W@@SAH$$QEAPEAU_iobuf@@$$QEAPEB_WAEBQEB_W2AEBI@Z 00000001800571c4 f i libucrt:assert.obj
 0001:000561ec       _wassert                   00000001800571ec f   libucrt:assert.obj
 0001:00056260       fwprintf                   0000000180057260 f i libucrt:assert.obj
 0001:000562a4       swprintf                   00000001800572a4 f i libucrt:assert.obj
 0001:000562f8       __acrt_call_reportfault    00000001800572f8 f   libucrt:invalid_parameter.obj
 0001:00056454       __acrt_initialize_invalid_parameter_handler 0000000180057454 f   libucrt:invalid_parameter.obj
 0001:0005645c       _invalid_parameter         000000018005745c f   libucrt:invalid_parameter.obj
 0001:0005650c       _invalid_parameter_noinfo  000000018005750c f   libucrt:invalid_parameter.obj
 0001:0005652c       _invalid_parameter_noinfo_noreturn 000000018005752c f   libucrt:invalid_parameter.obj
 0001:0005655c       _invoke_watson             000000018005755c f   libucrt:invalid_parameter.obj
 0001:000565a4       malloc                     00000001800575a4 f   libucrt:malloc.obj
 0001:000565ac       ??0_LocaleUpdate@@QEAA@QEAU__crt_locale_pointers@@@Z 00000001800575ac f i libucrt:stricmp.obj
 0001:00056648       __ascii_stricmp            0000000180057648 f   libucrt:stricmp.obj
 0001:00056688       _stricmp                   0000000180057688 f   libucrt:stricmp.obj
 0001:000566d0       _stricmp_l                 00000001800576d0 f   libucrt:stricmp.obj
 0001:000567e4       _tolower_l                 00000001800577e4 f   libucrt:tolower_toupper.obj
 0001:00056924       tolower                    0000000180057924 f   libucrt:tolower_toupper.obj
 0001:00056950       acos                       0000000180057950 f   libucrt:acos.obj
 0001:00056bf8       asin                       0000000180057bf8 f   libucrt:asin.obj
 0001:00056e84       atan                       0000000180057e84 f   libucrt:atan.obj
 0001:00057098       ceil                       0000000180058098 f   libucrt:ceil.obj
 0001:0005715c       sqrt                       000000018005815c f   libucrt:sqrt.obj
 0001:00057230       cos                        0000000180058230 f   libucrt:cos.obj
 0001:000577ac       cosh                       00000001800587ac f   libucrt:cosh.obj
 0001:00057c40       exp                        0000000180058c40 f   libucrt:exp.obj
 0001:00058038       floor                      0000000180059038 f   libucrt:floor.obj
 0001:000580f0       sin                        00000001800590f0 f   libucrt:sin.obj
 0001:00058660       log                        0000000180059660 f   libucrt:log.obj
 0001:00058b90       log10                      0000000180059b90 f   libucrt:log10.obj
 0001:0005913c       sinh                       000000018005a13c f   libucrt:sinh.obj
 0001:00059610       tan                        000000018005a610 f   libucrt:tan.obj
 0001:00059ecc       tanh                       000000018005aecc f   libucrt:tanh.obj
 0001:0005a12c       __acrt_initialize_new_handler 000000018005b12c f   libucrt:new_handler.obj
 0001:0005a134       _callnewh                  000000018005b134 f   libucrt:new_handler.obj
 0001:0005a164       _query_new_handler         000000018005b164 f   libucrt:new_handler.obj
 0001:0005a198       _initterm                  000000018005b198 f   libucrt:initterm.obj
 0001:0005a1fc       _initterm_e                000000018005b1fc f   libucrt:initterm.obj
 0001:0005a23c       _seh_filter_dll            000000018005b23c f   libucrt:exception_filter.obj
 0001:0005a250       _seh_filter_exe            000000018005b250 f   libucrt:exception_filter.obj
 0001:0005a640       __acrt_initialize_thread_local_exit_callback 000000018005b640 f   libucrt:exit.obj
 0001:0005a648       _cexit                     000000018005b648 f   libucrt:exit.obj
 0001:0005a658       _exit                      000000018005b658 f   libucrt:exit.obj
 0001:0005a664       _is_c_termination_complete 000000018005b664 f   libucrt:exit.obj
 0001:0005a830       __acrt_allocate_buffer_for_argv 000000018005b830 f   libucrt:argv_parsing.obj
 0001:0005a890       _configure_narrow_argv     000000018005b890 f   libucrt:argv_parsing.obj
 0001:0005ac08       __dcrt_uninitialize_environments_nolock 000000018005bc08 f   libucrt:environment_initialization.obj
 0001:0005ac40       _initialize_narrow_environment 000000018005bc40 f   libucrt:environment_initialization.obj
 0001:0005ad9c       _execute_onexit_table      000000018005bd9c f   libucrt:onexit.obj
 0001:0005add8       _initialize_onexit_table   000000018005bdd8 f   libucrt:onexit.obj
 0001:0005ae38       __acrt_uninitialize_command_line 000000018005be38 f   libucrt:argv_data.obj
 0001:0005af30       __acrt_initialize          000000018005bf30 f   libucrt:initialization.obj
 0001:0005af44       __acrt_thread_attach       000000018005bf44 f   libucrt:initialization.obj
 0001:0005af58       __acrt_thread_detach       000000018005bf58 f   libucrt:initialization.obj
 0001:0005af68       __acrt_uninitialize        000000018005bf68 f   libucrt:initialization.obj
 0001:0005afa0       __acrt_uninitialize_critical 000000018005bfa0 f   libucrt:initialization.obj
 0001:0005afb0       terminate                  000000018005bfb0 f   libucrt:terminate.obj
 0001:0005afd0       abort                      000000018005bfd0 f   libucrt:abort.obj
 0001:0005b028       strcpy_s                   000000018005c028 f   libucrt:strcpy_s.obj
 0001:0005b29c       ??$ensure_buffer_is_big_enough@D@formatting_buffer@__crt_stdio_output@@QEAA_N_K@Z 000000018005c29c f i libucrt:output.obj
 0001:0005b344       ??$ensure_buffer_is_big_enough@_W@formatting_buffer@__crt_stdio_output@@QEAA_N_K@Z 000000018005c344 f i libucrt:output.obj
 0001:0005b3f0       ??$is_wide_character_specifier@_W@__crt_stdio_output@@YA_N_K_WW4length_modifier@0@@Z 000000018005c3f0 f i libucrt:output.obj
 0001:0005b430       ??$type_case_integer_parse_into_buffer@I@?$output_processor@_WV?$stream_output_adapter@_W@__crt_stdio_output@@V?$standard_base@_WV?$stream_output_adapter@_W@__crt_stdio_output@@@2@@__crt_stdio_output@@AEAAXII_N@Z 000000018005c430 f i libucrt:output.obj
 0001:0005b430       ??$type_case_integer_parse_into_buffer@I@?$output_processor@_WV?$string_output_adapter@_W@__crt_stdio_output@@V?$standard_base@_WV?$string_output_adapter@_W@__crt_stdio_output@@@2@@__crt_stdio_output@@AEAAXII_N@Z 000000018005c430 f i libucrt:output.obj
 0001:0005b4d4       ??$type_case_integer_parse_into_buffer@_K@?$output_processor@_WV?$stream_output_adapter@_W@__crt_stdio_output@@V?$standard_base@_WV?$stream_output_adapter@_W@__crt_stdio_output@@@2@@__crt_stdio_output@@AEAAX_KI_N@Z 000000018005c4d4 f i libucrt:output.obj
 0001:0005b4d4       ??$type_case_integer_parse_into_buffer@_K@?$output_processor@_WV?$string_output_adapter@_W@__crt_stdio_output@@V?$standard_base@_WV?$string_output_adapter@_W@__crt_stdio_output@@@2@@__crt_stdio_output@@AEAAX_KI_N@Z 000000018005c4d4 f i libucrt:output.obj
 0001:0005b578       ??$write_multiple_characters@V?$stream_output_adapter@_W@__crt_stdio_output@@D@__crt_stdio_output@@YAXAEBV?$stream_output_adapter@_W@0@DHQEAH@Z 000000018005c578 f i libucrt:output.obj
 0001:0005b60c       ??$write_multiple_characters@V?$string_output_adapter@_W@__crt_stdio_output@@D@__crt_stdio_output@@YAXAEBV?$string_output_adapter@_W@0@DHQEAH@Z 000000018005c60c f i libucrt:output.obj
 0001:0005b7bc       ?crop_zeroes@__crt_stdio_output@@YAXPEADQEAU__crt_locale_pointers@@@Z 000000018005c7bc f i libucrt:output.obj
 0001:0005b828       ?force_decimal_point@__crt_stdio_output@@YAXPEADQEAU__crt_locale_pointers@@@Z 000000018005c828 f i libucrt:output.obj
 0001:0005b898       ?parse_int_from_format_string@?$output_processor@_WV?$stream_output_adapter@_W@__crt_stdio_output@@V?$standard_base@_WV?$stream_output_adapter@_W@__crt_stdio_output@@@2@@__crt_stdio_output@@AEAA_NQEAH@Z 000000018005c898 f i libucrt:output.obj
 0001:0005b898       ?parse_int_from_format_string@?$output_processor@_WV?$string_output_adapter@_W@__crt_stdio_output@@V?$standard_base@_WV?$string_output_adapter@_W@__crt_stdio_output@@@2@@__crt_stdio_output@@AEAA_NQEAH@Z 000000018005c898 f i libucrt:output.obj
 0001:0005b93c       ?process@?$output_processor@_WV?$stream_output_adapter@_W@__crt_stdio_output@@V?$standard_base@_WV?$stream_output_adapter@_W@__crt_stdio_output@@@2@@__crt_stdio_output@@QEAAHXZ 000000018005c93c f i libucrt:output.obj
 0001:0005bba8       ?process@?$output_processor@_WV?$string_output_adapter@_W@__crt_stdio_output@@V?$standard_base@_WV?$string_output_adapter@_W@__crt_stdio_output@@@2@@__crt_stdio_output@@QEAAHXZ 000000018005cba8 f i libucrt:output.obj
 0001:0005be24       ?state_case_size@?$output_processor@_WV?$stream_output_adapter@_W@__crt_stdio_output@@V?$standard_base@_WV?$stream_output_adapter@_W@__crt_stdio_output@@@2@@__crt_stdio_output@@AEAA_NXZ 000000018005ce24 f i libucrt:output.obj
 0001:0005bfbc       ?state_case_size@?$output_processor@_WV?$string_output_adapter@_W@__crt_stdio_output@@V?$standard_base@_WV?$string_output_adapter@_W@__crt_stdio_output@@@2@@__crt_stdio_output@@AEAA_NXZ 000000018005cfbc f i libucrt:output.obj
 0001:0005c154       ?state_case_type@?$output_processor@_WV?$stream_output_adapter@_W@__crt_stdio_output@@V?$standard_base@_WV?$stream_output_adapter@_W@__crt_stdio_output@@@2@@__crt_stdio_output@@AEAA_NXZ 000000018005d154 f i libucrt:output.obj
 0001:0005c434       ?state_case_type@?$output_processor@_WV?$string_output_adapter@_W@__crt_stdio_output@@V?$standard_base@_WV?$string_output_adapter@_W@__crt_stdio_output@@@2@@__crt_stdio_output@@AEAA_NXZ 000000018005d434 f i libucrt:output.obj
 0001:0005c700       ?type_case_Z@?$output_processor@_WV?$string_output_adapter@_W@__crt_stdio_output@@V?$standard_base@_WV?$string_output_adapter@_W@__crt_stdio_output@@@2@@__crt_stdio_output@@AEAA_NXZ 000000018005d700 f i libucrt:output.obj
 0001:0005c700       ?type_case_Z@?$output_processor@_WV?$stream_output_adapter@_W@__crt_stdio_output@@V?$standard_base@_WV?$stream_output_adapter@_W@__crt_stdio_output@@@2@@__crt_stdio_output@@AEAA_NXZ 000000018005d700 f i libucrt:output.obj
 0001:0005c77c       ?type_case_a@?$output_processor@_WV?$stream_output_adapter@_W@__crt_stdio_output@@V?$standard_base@_WV?$stream_output_adapter@_W@__crt_stdio_output@@@2@@__crt_stdio_output@@AEAA_NXZ 000000018005d77c f i libucrt:output.obj
 0001:0005c77c       ?type_case_a@?$output_processor@_WV?$string_output_adapter@_W@__crt_stdio_output@@V?$standard_base@_WV?$string_output_adapter@_W@__crt_stdio_output@@@2@@__crt_stdio_output@@AEAA_NXZ 000000018005d77c f i libucrt:output.obj
 0001:0005c95c       ?type_case_c_tchar@?$output_processor@_WV?$string_output_adapter@_W@__crt_stdio_output@@V?$standard_base@_WV?$string_output_adapter@_W@__crt_stdio_output@@@2@@__crt_stdio_output@@AEAA_N_W@Z 000000018005d95c f i libucrt:output.obj
 0001:0005c95c       ?type_case_c_tchar@?$output_processor@_WV?$stream_output_adapter@_W@__crt_stdio_output@@V?$standard_base@_WV?$stream_output_adapter@_W@__crt_stdio_output@@@2@@__crt_stdio_output@@AEAA_N_W@Z 000000018005d95c f i libucrt:output.obj
 0001:0005ca04       ?type_case_integer@?$output_processor@_WV?$stream_output_adapter@_W@__crt_stdio_output@@V?$standard_base@_WV?$stream_output_adapter@_W@__crt_stdio_output@@@2@@__crt_stdio_output@@AEAA_NI_N@Z 000000018005da04 f i libucrt:output.obj
 0001:0005ca04       ?type_case_integer@?$output_processor@_WV?$string_output_adapter@_W@__crt_stdio_output@@V?$standard_base@_WV?$string_output_adapter@_W@__crt_stdio_output@@@2@@__crt_stdio_output@@AEAA_NI_N@Z 000000018005da04 f i libucrt:output.obj
 0001:0005cbd0       ?type_case_n@?$output_processor@_WV?$string_output_adapter@_W@__crt_stdio_output@@V?$standard_base@_WV?$string_output_adapter@_W@__crt_stdio_output@@@2@@__crt_stdio_output@@AEAA_NXZ 000000018005dbd0 f i libucrt:output.obj
 0001:0005cbd0       ?type_case_n@?$output_processor@_WV?$stream_output_adapter@_W@__crt_stdio_output@@V?$standard_base@_WV?$stream_output_adapter@_W@__crt_stdio_output@@@2@@__crt_stdio_output@@AEAA_NXZ 000000018005dbd0 f i libucrt:output.obj
 0001:0005ccac       ?type_case_s@?$output_processor@_WV?$string_output_adapter@_W@__crt_stdio_output@@V?$standard_base@_WV?$string_output_adapter@_W@__crt_stdio_output@@@2@@__crt_stdio_output@@AEAA_NXZ 000000018005dcac f i libucrt:output.obj
 0001:0005ccac       ?type_case_s@?$output_processor@_WV?$stream_output_adapter@_W@__crt_stdio_output@@V?$standard_base@_WV?$stream_output_adapter@_W@__crt_stdio_output@@@2@@__crt_stdio_output@@AEAA_NXZ 000000018005dcac f i libucrt:output.obj
 0001:0005cd74       ?write_stored_string_tchar@?$output_processor@_WV?$stream_output_adapter@_W@__crt_stdio_output@@V?$standard_base@_WV?$stream_output_adapter@_W@__crt_stdio_output@@@2@@__crt_stdio_output@@AEAA_N_W@Z 000000018005dd74 f i libucrt:output.obj
 0001:0005ce7c       ?write_stored_string_tchar@?$output_processor@_WV?$string_output_adapter@_W@__crt_stdio_output@@V?$standard_base@_WV?$string_output_adapter@_W@__crt_stdio_output@@@2@@__crt_stdio_output@@AEAA_N_W@Z 000000018005de7c f i libucrt:output.obj
 0001:0005cf68       ?write_string@?$string_output_adapter@_W@__crt_stdio_output@@QEBAXQEB_WHQEAHAEAV__crt_deferred_errno_cache@@@Z 000000018005df68 f i libucrt:output.obj
 0001:0005d010       ?write_string_impl@?$output_adapter_common@_WV?$stream_output_adapter@_W@__crt_stdio_output@@@__crt_stdio_output@@IEBAXQEB_WHQEAHAEAV__crt_deferred_errno_cache@@@Z 000000018005e010 f i libucrt:output.obj
 0001:0005d114       __stdio_common_vfwprintf   000000018005e114 f   libucrt:output.obj
 0001:0005d1a0       __stdio_common_vswprintf   000000018005e1a0 f   libucrt:output.obj
 0001:0005d1a8       ??$parse_integer@KV?$c_string_character_source@_W@__crt_strtox@@@__crt_strtox@@YAKQEAU__crt_locale_pointers@@V?$c_string_character_source@_W@0@H_N@Z 000000018005e1a8 f i libucrt:atox.obj
 0001:0005d870       strncmp                    000000018005e870 f   libucrt:strncmp.obj
 0001:0005d8f0       calloc                     000000018005e8f0 f   libucrt:calloc.obj
 0001:0005d8f8       wcsncmp                    000000018005e8f8 f   libucrt:wcsncmp.obj
 0001:0005d924       _free_base                 000000018005e924 f   libucrt:free_base.obj
 0001:0005d964       _query_app_type            000000018005e964 f   libucrt:report_runtime_error.obj
 0001:0005d96c       __acrt_errno_from_os_error 000000018005e96c f   libucrt:errno.obj
 0001:0005d9b4       __acrt_errno_map_os_error  000000018005e9b4 f   libucrt:errno.obj
 0001:0005da04       __doserrno                 000000018005ea04 f   libucrt:errno.obj
 0001:0005da24       _errno                     000000018005ea24 f   libucrt:errno.obj
 0001:0005db84       _itow_s                    000000018005eb84 f   libucrt:xtoa.obj
 0001:0005dba4       _set_error_mode            000000018005eba4 f   libucrt:set_error_mode.obj
 0001:0005dbe4       wcscat_s                   000000018005ebe4 f   libucrt:wcscat_s.obj
 0001:0005dc64       wcscpy_s                   000000018005ec64 f   libucrt:wcscpy_s.obj
 0001:0005dccc       wcsncat_s                  000000018005eccc f   libucrt:wcsncat_s.obj
 0001:0005ddcc       ??$__acrt_wcs_to_mbs_cp@U__crt_win32_buffer_no_resizing@@@@YAHQEB_WAEAV?$__crt_win32_buffer@DU__crt_win32_buffer_no_resizing@@@@I@Z 000000018005edcc f i libucrt:getmodulefilenamea.obj
 0001:0005dee0       __acrt_GetModuleFileNameA  000000018005eee0 f   libucrt:getmodulefilenamea.obj
 0001:0005e000       __acrt_show_wide_message_box 000000018005f000 f   libucrt:crtmbox.obj
 0001:0005e0a4       __acrt_initialize_stdio    000000018005f0a4 f   libucrt:_file.obj
 0001:0005e1c4       __acrt_iob_func            000000018005f1c4 f   libucrt:_file.obj
 0001:0005e1d8       __acrt_uninitialize_stdio  000000018005f1d8 f   libucrt:_file.obj
 0001:0005e234       _lock_file                 000000018005f234 f   libucrt:_file.obj
 0001:0005e240       _unlock_file               000000018005f240 f   libucrt:_file.obj
 0001:0005e468       __acrt_stdio_flush_nolock  000000018005f468 f   libucrt:fflush.obj
 0001:0005e4e4       _fflush_nolock             000000018005f4e4 f   libucrt:fflush.obj
 0001:0005e530       _flushall                  000000018005f530 f   libucrt:fflush.obj
 0001:0005e538       fflush                     000000018005f538 f   libucrt:fflush.obj
 0001:0005e6c0       setvbuf                    000000018005f6c0 f   libucrt:setvbuf.obj
 0001:0005e7a4       __acrt_get_sigabrt_handler 000000018005f7a4 f   libucrt:signal.obj
 0001:0005e7d4       __acrt_initialize_signal_handlers 000000018005f7d4 f   libucrt:signal.obj
 0001:0005e7f4       raise                      000000018005f7f4 f   libucrt:signal.obj
 0001:0005edd8       __acrt_freeptd             000000018005fdd8 f   libucrt:per_thread_data.obj
 0001:0005ee1c       __acrt_getptd              000000018005fe1c f   libucrt:per_thread_data.obj
 0001:0005eef0       __acrt_getptd_head         000000018005fef0 f   libucrt:per_thread_data.obj
 0001:0005ef98       __acrt_getptd_noexit       000000018005ff98 f   libucrt:per_thread_data.obj
 0001:0005f064       __acrt_initialize_ptd      0000000180060064 f   libucrt:per_thread_data.obj
 0001:0005f0a0       __acrt_uninitialize_ptd    00000001800600a0 f   libucrt:per_thread_data.obj
 0001:0005f0c4       _malloc_base               00000001800600c4 f   libucrt:malloc_base.obj
 0001:0005f124       __acrt_update_locale_info  0000000180060124 f   libucrt:locale_update.obj
 0001:0005f158       __acrt_update_multibyte_info 0000000180060158 f   libucrt:locale_update.obj
 0001:0005f1fc       __acrt_set_locale_changed  00000001800601fc f   libucrt:wsetlocale.obj
 0001:0005f208       __acrt_uninitialize_locale 0000000180060208 f   libucrt:wsetlocale.obj
 0001:0005f238       __pctype_func              0000000180060238 f   libucrt:ctype.obj
 0001:0005f268       _isleadbyte_l              0000000180060268 f i libucrt:_wctype.obj
 0001:0005f2b4       _isctype_l                 00000001800602b4 f   libucrt:isctype.obj
 0001:0005f6dc       __acrt_LCMapStringA        00000001800606dc f   libucrt:lcmapstringa.obj
 0001:0005f774       _clrfp                     0000000180060774 f   libucrt:fpctrl.obj
 0001:0005f794       _ctrlfp                    0000000180060794 f   libucrt:fpctrl.obj
 0001:0005f810       _set_statfp                0000000180060810 f   libucrt:fpctrl.obj
 0001:0005f830       _statfp                    0000000180060830 f   libucrt:fpctrl.obj
 0001:0005f968       _handle_error              0000000180060968 f   libucrt:libm_error.obj
 0001:0005fa90       _handle_nan                0000000180060a90 f   libucrt:libm_error.obj
 0001:0005fab0       __acrt_initialize_fma3     0000000180060ab0 f   libucrt:fma3_available.obj
 0001:0005fb20       __remainder_piby2_forAsm   0000000180060b20 f   libucrt:remainder_piby2_forasm.obj
 0001:0005fd30       __remainder_piby2_cw_forAsm 0000000180060d30 f   libucrt:remainder_piby2_forasm.obj
 0001:0005fe70       __remainder_piby2_fma3     0000000180060e70 f   libucrt:remainder_piby2_forfma3.obj
 0001:00060060       __remainder_piby2_fma3_bdl 0000000180061060 f   libucrt:remainder_piby2_forfma3.obj
 0001:000600d8       _cos_special               00000001800610d8 f   libucrt:sincos_special.obj
 0001:000600ec       _sin_special               00000001800610ec f   libucrt:sincos_special.obj
 0001:000601a4       _tan_special               00000001800611a4 f   libucrt:sincos_special.obj
 0001:000601c0       _exp_special               00000001800611c0 f   libucrt:exp_special.obj
 0001:00060260       _log10_special             0000000180061260 f   libucrt:log_special.obj
 0001:00060280       _log_special               0000000180061280 f   libucrt:log_special.obj
 0001:00060340       __acrt_initialize_locks    0000000180061340 f   libucrt:locks.obj
 0001:00060388       __acrt_lock                0000000180061388 f   libucrt:locks.obj
 0001:000603a4       __acrt_uninitialize_locks  00000001800613a4 f   libucrt:locks.obj
 0001:000603dc       __acrt_unlock              00000001800613dc f   libucrt:locks.obj
 0001:000603f8       __acrt_get_developer_information_policy 00000001800613f8 f   libucrt:win_policies.obj
 0001:0006044c       __acrt_get_process_end_policy 000000018006144c f   libucrt:win_policies.obj
 0001:00060488       __acrt_get_windowing_model_policy 0000000180061488 f   libucrt:win_policies.obj
 0001:000604f4       _calloc_base               00000001800614f4 f   libucrt:calloc_base.obj
 0001:00060580       ??$__acrt_mbs_to_wcs_cp@U__crt_win32_buffer_internal_dynamic_resizing@@@@YAHQEBDAEAV?$__crt_win32_buffer@_WU__crt_win32_buffer_internal_dynamic_resizing@@@@I@Z 0000000180061580 f i libucrt:argv_wildcards.obj
 0001:000606f8       ??$__acrt_wcs_to_mbs_cp@U__crt_win32_buffer_internal_dynamic_resizing@@@@YAHQEB_WAEAV?$__crt_win32_buffer@DU__crt_win32_buffer_internal_dynamic_resizing@@@@I@Z 00000001800616f8 f i libucrt:argv_wildcards.obj
 0001:00060f28       __acrt_expand_narrow_argv_wildcards 0000000180061f28 f   libucrt:argv_wildcards.obj
 0001:0006165c       __acrt_initialize_multibyte 000000018006265c f   libucrt:mbctype.obj
 0001:000616bc       __acrt_update_thread_multibyte_data 00000001800626bc f   libucrt:mbctype.obj
 0001:000616d8       _setmbcp_nolock            00000001800626d8 f   libucrt:mbctype.obj
 0001:00061a0c       _ismbblead                 0000000180062a0c f   libucrt:ismbbyte.obj
 0001:00061a20       __acrt_initialize_command_line 0000000180062a20 f   libucrt:argv_data.obj
 0001:00061a48       __acrt_MultiByteToWideChar 0000000180062a48 f   libucrt:multibytetowidechar.obj
 0001:00061aa4       __acrt_WideCharToMultiByte 0000000180062aa4 f   libucrt:widechartomultibyte.obj
 0001:00061b3c       __dcrt_get_narrow_environment_from_os 0000000180062b3c f   libucrt:get_environment_from_os.obj
 0001:00061c40       _recalloc_base             0000000180062c40 f   libucrt:recalloc.obj
 0001:00061eb0       __acrt_AppPolicyGetProcessTerminationMethodInternal 0000000180062eb0 f   libucrt:winapi_thunks.obj
 0001:00061f00       __acrt_AppPolicyGetShowDeveloperDiagnosticInternal 0000000180062f00 f   libucrt:winapi_thunks.obj
 0001:00061f50       __acrt_AppPolicyGetWindowingModelInternal 0000000180062f50 f   libucrt:winapi_thunks.obj
 0001:00061fa0       __acrt_AreFileApisANSI     0000000180062fa0 f   libucrt:winapi_thunks.obj
 0001:00061fdc       __acrt_FlsAlloc            0000000180062fdc f   libucrt:winapi_thunks.obj
 0001:00062024       __acrt_FlsFree             0000000180063024 f   libucrt:winapi_thunks.obj
 0001:0006206c       __acrt_FlsGetValue         000000018006306c f   libucrt:winapi_thunks.obj
 0001:000620b4       __acrt_FlsSetValue         00000001800630b4 f   libucrt:winapi_thunks.obj
 0001:00062108       __acrt_InitializeCriticalSectionEx 0000000180063108 f   libucrt:winapi_thunks.obj
 0001:0006216c       __acrt_LCMapStringEx       000000018006316c f   libucrt:winapi_thunks.obj
 0001:00062248       __acrt_LocaleNameToLCID    0000000180063248 f   libucrt:winapi_thunks.obj
 0001:00062298       __acrt_MessageBoxW         0000000180063298 f   libucrt:winapi_thunks.obj
 0001:0006230c       __acrt_can_show_message_box 000000018006330c f   libucrt:winapi_thunks.obj
 0001:0006237c       __acrt_get_parent_window   000000018006337c f   libucrt:winapi_thunks.obj
 0001:000623f4       __acrt_initialize_winapi_thunks 00000001800633f4 f   libucrt:winapi_thunks.obj
 0001:00062428       __acrt_is_interactive      0000000180063428 f   libucrt:winapi_thunks.obj
 0001:000624f0       __acrt_uninitialize_winapi_thunks 00000001800634f0 f   libucrt:winapi_thunks.obj
 0001:00062534       __acrt_initialize_heap     0000000180063534 f   libucrt:heap_handle.obj
 0001:00062550       __acrt_uninitialize_heap   0000000180063550 f   libucrt:heap_handle.obj
 0001:00062758       __acrt_initialize_lowio    0000000180063758 f   libucrt:ioinit.obj
 0001:00062794       __acrt_uninitialize_lowio  0000000180063794 f   libucrt:ioinit.obj
 0001:000627d4       __acrt_execute_initializers 00000001800637d4 f   libucrt:shared_initialization.obj
 0001:00062854       __acrt_execute_uninitializers 0000000180063854 f   libucrt:shared_initialization.obj
 0001:00062890       __acrt_has_user_matherr    0000000180063890 f   libucrt:matherr.obj
 0001:000628b0       __acrt_initialize_user_matherr 00000001800638b0 f   libucrt:matherr.obj
 0001:000628b8       __acrt_invoke_user_matherr 00000001800638b8 f   libucrt:matherr.obj
 0001:000628e8       __acrt_stdio_begin_temporary_buffering_nolock 00000001800638e8 f   libucrt:_sftbuf.obj
 0001:000629b8       __acrt_stdio_end_temporary_buffering_nolock 00000001800639b8 f   libucrt:_sftbuf.obj
 0001:000629f4       isdigit                    00000001800639f4 f i libucrt:_ctype.obj
 0001:00062a88       wcstol                     0000000180063a88 f   libucrt:strtox.obj
 0001:00062ab4       _mbtowc_l                  0000000180063ab4 f   libucrt:mbtowc.obj
 0001:00062c30       mbtowc                     0000000180063c30 f   libucrt:mbtowc.obj
 0001:00062c38       _wctomb_s_l                0000000180063c38 f   libucrt:wctomb.obj
 0001:00062dd8       wctomb_s                   0000000180063dd8 f   libucrt:wctomb.obj
 0001:00062dec       wcsnlen                    0000000180063dec f   libucrt:strnlen.obj
 0001:00063998       __acrt_fp_format           0000000180064998 f   libucrt:cvt.obj
 0001:00063c20       _fputwc_nolock             0000000180064c20 f   libucrt:fputwc.obj
 0001:00063d9c       _fileno                    0000000180064d9c f   libucrt:fileno.obj
 0001:00063dc4       _fputc_nolock              0000000180064dc4 f   libucrt:fputc.obj
 0001:00063ddc       _get_printf_count_output   0000000180064ddc f   libucrt:printf_count_output.obj
 0001:00063df4       iswctype                   0000000180064df4 f   libucrt:iswctype.obj
 0001:00063e64       _fcloseall                 0000000180064e64 f   libucrt:closeall.obj
 0001:00063f18       __acrt_stdio_free_buffer_nolock 0000000180064f18 f   libucrt:_freebuf.obj
 0001:00063fe4       _commit                    0000000180064fe4 f   libucrt:commit.obj
 0001:000648e4       _write                     00000001800658e4 f   libucrt:write.obj
 0001:000649d0       _write_nolock              00000001800659d0 f   libucrt:write.obj
 0001:00064cac       __acrt_add_locale_ref      0000000180065cac f   libucrt:locale_refcounting.obj
 0001:00064d38       __acrt_free_locale         0000000180065d38 f   libucrt:locale_refcounting.obj
 0001:00064eb0       __acrt_locale_add_lc_time_reference 0000000180065eb0 f   libucrt:locale_refcounting.obj
 0001:00064ed8       __acrt_locale_free_lc_time_if_unreferenced 0000000180065ed8 f   libucrt:locale_refcounting.obj
 0001:00064f10       __acrt_locale_release_lc_time_reference 0000000180065f10 f   libucrt:locale_refcounting.obj
 0001:00064f38       __acrt_release_locale_ref  0000000180065f38 f   libucrt:locale_refcounting.obj
 0001:00064fe0       __acrt_update_thread_locale_data 0000000180065fe0 f   libucrt:locale_refcounting.obj
 0001:00065050       _updatetlocinfoEx_nolock   0000000180066050 f   libucrt:locale_refcounting.obj
 0001:000650b8       _query_new_mode            00000001800660b8 f   libucrt:new_mode.obj
 0001:000650c0       __acrt_locale_free_monetary 00000001800660c0 f   libucrt:initmon.obj
 0001:000651cc       __acrt_locale_free_numeric 00000001800661cc f   libucrt:initnum.obj
 0001:00065290       __acrt_locale_free_time    0000000180066290 f   libucrt:inittime.obj
 0001:00065398       __acrt_GetStringTypeA      0000000180066398 f   libucrt:getstringtypea.obj
 0001:00065528       __strncnt                  0000000180066528 f   libucrt:strncnt.obj
 0001:00065550       _get_fpsr                  0000000180066550 f   libucrt:fpsr.obj
 0001:00065560       _set_fpsr                  0000000180066560 f   libucrt:fpsr.obj
 0001:0006556a       _fclrf                     000000018006656a f   libucrt:fpsr.obj
 0001:0006557e       _frnd                      000000018006657e f   libucrt:fpsr.obj
 0001:000655a0       _raise_exc                 00000001800665a0 f   libucrt:fpexcept.obj
 0001:000655c8       _raise_exc_ex              00000001800665c8 f   libucrt:fpexcept.obj
 0001:000658d8       _set_errno_from_matherr    00000001800668d8 f   libucrt:fpexcept.obj
 0001:00065910       qsort                      0000000180066910 f   libucrt:qsort.obj
 0001:00065cd0       strncpy_s                  0000000180066cd0 f   libucrt:strncpy_s.obj
 0001:00065e50       strpbrk                    0000000180066e50 f   libucrt:strpbrk.obj
 0001:00066230       _mbsdec                    0000000180067230 f   libucrt:mbsdec.obj
 0001:00066238       _mbsdec_l                  0000000180067238 f   libucrt:mbsdec.obj
 0001:000662e4       _msize_base                00000001800672e4 f   libucrt:msize.obj
 0001:00066320       _realloc_base              0000000180067320 f   libucrt:realloc_base.obj
 0001:00066484       __acrt_DownlevelLocaleNameToLCID 0000000180067484 f   libucrt:lcidtoname_downlevel.obj
 0001:000664b8       __acrt_lowio_create_handle_array 00000001800674b8 f   libucrt:osfinfo.obj
 0001:00066560       __acrt_lowio_destroy_handle_array 0000000180067560 f   libucrt:osfinfo.obj
 0001:000665b0       __acrt_lowio_ensure_fh_exists 00000001800675b0 f   libucrt:osfinfo.obj
 0001:00066658       __acrt_lowio_lock_fh       0000000180067658 f   libucrt:osfinfo.obj
 0001:00066680       __acrt_lowio_unlock_fh     0000000180067680 f   libucrt:osfinfo.obj
 0001:000666a8       _free_osfhnd               00000001800676a8 f   libucrt:osfinfo.obj
 0001:00066764       _get_osfhandle             0000000180067764 f   libucrt:osfinfo.obj
 0001:000667dc       _isatty                    00000001800677dc f   libucrt:isatty.obj
 0001:0006683c       ?__mbrtowc_utf8@__crt_mbstring@@YA_KPEA_WPEBD_KPEAU_Mbstatet@@@Z 000000018006783c f   libucrt:mbrtowc.obj
 0001:00066878       ?__mbsrtowcs_utf8@__crt_mbstring@@YA_KPEA_WPEAPEBD_KPEAU_Mbstatet@@@Z 0000000180067878 f   libucrt:mbrtowc.obj
 0001:000669f0       ?__c32rtomb_utf8@__crt_mbstring@@YA_KPEAD_UPEAU_Mbstatet@@@Z 00000001800679f0 f   libucrt:c32rtomb.obj
 0001:00066aa8       __acrt_fp_strflt_to_string 0000000180067aa8 f   libucrt:_fptostr.obj
 0001:00066b90       ?divide@__crt_strtox@@YA_KAEAUbig_integer@1@AEBU21@@Z 0000000180067b90 f i libucrt:cfout.obj
 0001:00066fbc       __acrt_fltout              0000000180067fbc f   libucrt:cfout.obj
 0001:000684bc       __acrt_stdio_flush_and_write_narrow_nolock 00000001800694bc f   libucrt:_flsbuf.obj
 0001:000685a8       __acrt_stdio_flush_and_write_wide_nolock 00000001800695a8 f   libucrt:_flsbuf.obj
 0001:00068694       __acrt_GetStringTypeW      0000000180069694 f   libucrt:getstringtypew.obj
 0001:0006869c       _fclose_nolock             000000018006969c f   libucrt:fclose.obj
 0001:00068720       fclose                     0000000180069720 f   libucrt:fclose.obj
 0001:00068910       _lseeki64                  0000000180069910 f   libucrt:lseek.obj
 0001:00068918       _lseeki64_nolock           0000000180069918 f   libucrt:lseek.obj
 0001:00068920       _putwch_nolock             0000000180069920 f   libucrt:putwch.obj
 0001:0006895c       ?__mbrtoc32_utf8@__crt_mbstring@@YA_KPEA_UPEBD_KPEAU_Mbstatet@@@Z 000000018006995c f   libucrt:mbrtoc32.obj
 0001:00068b38       fegetenv                   0000000180069b38 f   libucrt:fegetenv.obj
 0001:00068b58       fesetenv                   0000000180069b58 f   libucrt:fesetenv.obj
 0001:00068ba8       feholdexcept               0000000180069ba8 f   libucrt:feholdexcept.obj
 0001:00068bf8       __acrt_stdio_allocate_buffer_nolock 0000000180069bf8 f   libucrt:_getbuf.obj
 0001:00068cd4       _close                     0000000180069cd4 f   libucrt:close.obj
 0001:00068d78       _close_nolock              0000000180069d78 f   libucrt:close.obj
 0001:00068e38       ?__acrt_stdio_free_stream@@YAXV__crt_stdio_stream@@@Z 0000000180069e38 f   libucrt:stream.obj
 0001:00068e54       __dcrt_lowio_ensure_console_output_initialized 0000000180069e54 f   libucrt:initcon.obj
 0001:00068ea8       __dcrt_terminate_console_output 0000000180069ea8 f   libucrt:initcon.obj
 0001:00068ec4       __dcrt_write_console       0000000180069ec4 f   libucrt:initcon.obj
 0001:00068f84       __acrt_fenv_get_control    0000000180069f84 f   libucrt:_fenvutils.obj
 0001:00069078       __acrt_fenv_get_status     000000018006a078 f   libucrt:_fenvutils.obj
 0001:000690cc       __acrt_fenv_set_control    000000018006a0cc f   libucrt:_fenvutils.obj
 0001:00069214       __acrt_fenv_set_status     000000018006a214 f   libucrt:_fenvutils.obj
 0001:00069298       _clearfp                   000000018006a298 f   libucrt:ieee.obj
 0001:00069306       IsProcessorFeaturePresent  000000018006a306 f   kernel32:KERNEL32.dll
 0001:0006930c       ?DloadAcquireSectionWriteAccess@@YAXXZ 000000018006a30c f i DelayImp:delayhlp.obj
 0001:000693b8       ?DloadGetSRWLockFunctionPointers@@YAEXZ 000000018006a3b8 f i DelayImp:delayhlp.obj
 0001:00069454       ?DloadMakePermanentImageCommit@@YAXPEAX_K@Z 000000018006a454 f i DelayImp:delayhlp.obj
 0001:000694ec       ?DloadObtainSection@@YAPEAXPEAK0@Z 000000018006a4ec f i DelayImp:delayhlp.obj
 0001:00069588       ?DloadProtectSection@@YAXKPEAK@Z 000000018006a588 f i DelayImp:delayhlp.obj
 0001:00069618       ?DloadReleaseSectionWriteAccess@@YAXXZ 000000018006a618 f i DelayImp:delayhlp.obj
 0001:000696ac       __delayLoadHelper2         000000018006a6ac f   DelayImp:delayhlp.obj
 0001:00069970       _FindPESection             000000018006a970 f   LIBCMT:pesect.obj
 0001:000699c0       _IsNonwritableInCurrentImage 000000018006a9c0 f   LIBCMT:pesect.obj
 0001:00069a10       _ValidateImageBase         000000018006aa10 f   LIBCMT:pesect.obj
 0001:00069a50       __chkstk                   000000018006aa50 f   LIBCMT:chkstk.obj
 0001:00069a50       _alloca_probe              000000018006aa50 f   LIBCMT:chkstk.obj
 0001:00069ac0       memcmp                     000000018006aac0 f   libvcruntime:memcmp.obj
 0001:00069b88       strrchr                    000000018006ab88 f   libvcruntime:strrchr.obj
 0001:00069cf0       _guard_dispatch_icall_nop  000000018006acf0 f   LIBCMT:guard_dispatch.obj
 0002:00000000       __imp_GetModuleHandleA     000000018006b000     kernel32:KERNEL32.dll
 0002:00000008       __imp_LoadLibraryExA       000000018006b008     kernel32:KERNEL32.dll
 0002:00000010       __imp_RtlCaptureContext    000000018006b010     kernel32:KERNEL32.dll
 0002:00000018       __imp_RtlLookupFunctionEntry 000000018006b018     kernel32:KERNEL32.dll
 0002:00000020       __imp_RtlVirtualUnwind     000000018006b020     kernel32:KERNEL32.dll
 0002:00000028       __imp_UnhandledExceptionFilter 000000018006b028     kernel32:KERNEL32.dll
 0002:00000030       __imp_SetUnhandledExceptionFilter 000000018006b030     kernel32:KERNEL32.dll
 0002:00000038       __imp_GetCurrentProcess    000000018006b038     kernel32:KERNEL32.dll
 0002:00000040       __imp_TerminateProcess     000000018006b040     kernel32:KERNEL32.dll
 0002:00000048       __imp_IsProcessorFeaturePresent 000000018006b048     kernel32:KERNEL32.dll
 0002:00000050       __imp_QueryPerformanceCounter 000000018006b050     kernel32:KERNEL32.dll
 0002:00000058       __imp_GetCurrentProcessId  000000018006b058     kernel32:KERNEL32.dll
 0002:00000060       __imp_GetCurrentThreadId   000000018006b060     kernel32:KERNEL32.dll
 0002:00000068       __imp_GetSystemTimeAsFileTime 000000018006b068     kernel32:KERNEL32.dll
 0002:00000070       __imp_InitializeSListHead  000000018006b070     kernel32:KERNEL32.dll
 0002:00000078       __imp_IsDebuggerPresent    000000018006b078     kernel32:KERNEL32.dll
 0002:00000080       __imp_GetStartupInfoW      000000018006b080     kernel32:KERNEL32.dll
 0002:00000088       __imp_GetModuleHandleW     000000018006b088     kernel32:KERNEL32.dll
 0002:00000090       __imp_RtlPcToFileHeader    000000018006b090     kernel32:KERNEL32.dll
 0002:00000098       __imp_RaiseException       000000018006b098     kernel32:KERNEL32.dll
 0002:000000a0       __imp_RtlUnwindEx          000000018006b0a0     kernel32:KERNEL32.dll
 0002:000000a8       __imp_InterlockedFlushSList 000000018006b0a8     kernel32:KERNEL32.dll
 0002:000000b0       __imp_GetLastError         000000018006b0b0     kernel32:KERNEL32.dll
 0002:000000b8       __imp_SetLastError         000000018006b0b8     kernel32:KERNEL32.dll
 0002:000000c0       __imp_EnterCriticalSection 000000018006b0c0     kernel32:KERNEL32.dll
 0002:000000c8       __imp_LeaveCriticalSection 000000018006b0c8     kernel32:KERNEL32.dll
 0002:000000d0       __imp_DeleteCriticalSection 000000018006b0d0     kernel32:KERNEL32.dll
 0002:000000d8       __imp_InitializeCriticalSectionAndSpinCount 000000018006b0d8     kernel32:KERNEL32.dll
 0002:000000e0       __imp_TlsAlloc             000000018006b0e0     kernel32:KERNEL32.dll
 0002:000000e8       __imp_TlsGetValue          000000018006b0e8     kernel32:KERNEL32.dll
 0002:000000f0       __imp_TlsSetValue          000000018006b0f0     kernel32:KERNEL32.dll
 0002:000000f8       __imp_TlsFree              000000018006b0f8     kernel32:KERNEL32.dll
 0002:00000100       __imp_FreeLibrary          000000018006b100     kernel32:KERNEL32.dll
 0002:00000108       __imp_GetProcAddress       000000018006b108     kernel32:KERNEL32.dll
 0002:00000110       __imp_LoadLibraryExW       000000018006b110     kernel32:KERNEL32.dll
 0002:00000118       __imp_GetStdHandle         000000018006b118     kernel32:KERNEL32.dll
 0002:00000120       __imp_GetFileType          000000018006b120     kernel32:KERNEL32.dll
 0002:00000128       __imp_GetModuleFileNameW   000000018006b128     kernel32:KERNEL32.dll
 0002:00000130       __imp_GetModuleHandleExW   000000018006b130     kernel32:KERNEL32.dll
 0002:00000138       __imp_WriteConsoleW        000000018006b138     kernel32:KERNEL32.dll
 0002:00000140       __imp_ExitProcess          000000018006b140     kernel32:KERNEL32.dll
 0002:00000148       __imp_HeapFree             000000018006b148     kernel32:KERNEL32.dll
 0002:00000150       __imp_WriteFile            000000018006b150     kernel32:KERNEL32.dll
 0002:00000158       __imp_OutputDebugStringW   000000018006b158     kernel32:KERNEL32.dll
 0002:00000160       __imp_HeapAlloc            000000018006b160     kernel32:KERNEL32.dll
 0002:00000168       __imp_FindClose            000000018006b168     kernel32:KERNEL32.dll
 0002:00000170       __imp_FindFirstFileExW     000000018006b170     kernel32:KERNEL32.dll
 0002:00000178       __imp_FindNextFileW        000000018006b178     kernel32:KERNEL32.dll
 0002:00000180       __imp_IsValidCodePage      000000018006b180     kernel32:KERNEL32.dll
 0002:00000188       __imp_GetACP               000000018006b188     kernel32:KERNEL32.dll
 0002:00000190       __imp_GetOEMCP             000000018006b190     kernel32:KERNEL32.dll
 0002:00000198       __imp_GetCPInfo            000000018006b198     kernel32:KERNEL32.dll
 0002:000001a0       __imp_GetCommandLineA      000000018006b1a0     kernel32:KERNEL32.dll
 0002:000001a8       __imp_GetCommandLineW      000000018006b1a8     kernel32:KERNEL32.dll
 0002:000001b0       __imp_MultiByteToWideChar  000000018006b1b0     kernel32:KERNEL32.dll
 0002:000001b8       __imp_WideCharToMultiByte  000000018006b1b8     kernel32:KERNEL32.dll
 0002:000001c0       __imp_GetEnvironmentStringsW 000000018006b1c0     kernel32:KERNEL32.dll
 0002:000001c8       __imp_FreeEnvironmentStringsW 000000018006b1c8     kernel32:KERNEL32.dll
 0002:000001d0       __imp_LCMapStringW         000000018006b1d0     kernel32:KERNEL32.dll
 0002:000001d8       __imp_GetProcessHeap       000000018006b1d8     kernel32:KERNEL32.dll
 0002:000001e0       __imp_FlushFileBuffers     000000018006b1e0     kernel32:KERNEL32.dll
 0002:000001e8       __imp_GetConsoleCP         000000018006b1e8     kernel32:KERNEL32.dll
 0002:000001f0       __imp_GetConsoleMode       000000018006b1f0     kernel32:KERNEL32.dll
 0002:000001f8       __imp_GetStringTypeW       000000018006b1f8     kernel32:KERNEL32.dll
 0002:00000200       __imp_HeapSize             000000018006b200     kernel32:KERNEL32.dll
 0002:00000208       __imp_HeapReAlloc          000000018006b208     kernel32:KERNEL32.dll
 0002:00000210       __imp_SetStdHandle         000000018006b210     kernel32:KERNEL32.dll
 0002:00000218       __imp_GetFileSizeEx        000000018006b218     kernel32:KERNEL32.dll
 0002:00000220       __imp_SetFilePointerEx     000000018006b220     kernel32:KERNEL32.dll
 0002:00000228       __imp_CloseHandle          000000018006b228     kernel32:KERNEL32.dll
 0002:00000230       __imp_CreateFileW          000000018006b230     kernel32:KERNEL32.dll
 0002:00000238       __imp_GetSystemInfo        000000018006b238     kernel32:KERNEL32.dll
 0002:00000240       __imp_VirtualProtect       000000018006b240     kernel32:KERNEL32.dll
 0002:00000248       __imp_VirtualQuery         000000018006b248     kernel32:KERNEL32.dll
 0002:00000250       \177KERNEL32_NULL_THUNK_DATA 000000018006b250     kernel32:KERNEL32.dll
 0002:00000258       __guard_check_icall_fptr   000000018006b258     LIBCMT:guard_support.obj
 0002:00000260       __guard_dispatch_icall_fptr 000000018006b260     LIBCMT:guard_support.obj
 0002:00000268       __xc_a                     000000018006b268     LIBCMT:initializers.obj
 0002:00000270       _register_talib_           000000018006b270     talib.obj
 0002:00000278       __xc_z                     000000018006b278     LIBCMT:initializers.obj
 0002:00000280       __xi_a                     000000018006b280     LIBCMT:initializers.obj
 0002:00000288       __acrt_stdio_initializer   000000018006b288     libucrt:stdio_initializer.obj
 0002:00000290       __acrt_tran_fma3_initializer 000000018006b290     libucrt:fma3_initializer.obj
 0002:00000298       __acrt_multibyte_initializer 000000018006b298     libucrt:multibyte_initializer.obj
 0002:000002a0       __xi_z                     000000018006b2a0     LIBCMT:initializers.obj
 0002:000002a8       __xp_a                     000000018006b2a8     LIBCMT:initializers.obj
 0002:000002b0       __acrt_locale_terminator   000000018006b2b0     libucrt:locale_initializer.obj
 0002:000002b8       __dcrt_console_output_terminator 000000018006b2b8     libucrt:console_output_initializer.obj
 0002:000002c0       __acrt_stdio_terminator    000000018006b2c0     libucrt:stdio_initializer.obj
 0002:000002c8       __xp_z                     000000018006b2c8     LIBCMT:initializers.obj
 0002:000002d0       __xt_a                     000000018006b2d0     LIBCMT:initializers.obj
 0002:000002d8       __xt_z                     000000018006b2d8     LIBCMT:initializers.obj
 0002:000002e0       __sz_node_exe              000000018006b2e0     node:node.exe
 0002:000002f0       __real@3fa999999999999a    000000018006b2f0     ta_libc_csr:ta_global.obj
 0002:000002f8       __real@3fb999999999999a    000000018006b2f8     ta_libc_csr:ta_global.obj
 0002:00000300       __real@3fc999999999999a    000000018006b300     ta_libc_csr:ta_global.obj
 0002:00000308       __real@3fe3333333333333    000000018006b308     ta_libc_csr:ta_global.obj
 0002:00000310       __real@3ff0000000000000    000000018006b310     ta_libc_csr:ta_global.obj
 0002:00000318       __real@4000000000000000    000000018006b318     ta_libc_csr:ta_global.obj
 0002:00000320       __real@4008000000000000    000000018006b320     ta_libc_csr:ta_global.obj
 0002:00000328       ??_C@_0L@OPPBFMJD@TA_SUCCESS?$AA@ 000000018006b328     ta_libc_csr:ta_retcode.obj
 0002:00000338       ??_C@_08INEPGKHH@No?5error?$AA@ 000000018006b338     ta_libc_csr:ta_retcode.obj
 0002:00000348       ??_C@_0BG@DBCNHEHN@TA_LIB_NOT_INITIALIZE?$AA@ 000000018006b348     ta_libc_csr:ta_retcode.obj
 0002:00000360       ??_C@_0CJ@OJPMNLKA@TA_Initialize?5was?5not?5sucessfull@ 000000018006b360     ta_libc_csr:ta_retcode.obj
 0002:00000390       ??_C@_0N@GOECMLOP@TA_BAD_PARAM?$AA@ 000000018006b390     ta_libc_csr:ta_retcode.obj
 0002:000003a0       ??_C@_0BM@PGFLHOFA@A?5parameter?5is?5out?5of?5range?$AA@ 000000018006b3a0     ta_libc_csr:ta_retcode.obj
 0002:000003c0       ??_C@_0N@IEGHDFIH@TA_ALLOC_ERR?$AA@ 000000018006b3c0     ta_libc_csr:ta_retcode.obj
 0002:000003d0       ??_C@_0BH@HMOGNOMA@Possibly?5out?9of?9memory?$AA@ 000000018006b3d0     ta_libc_csr:ta_retcode.obj
 0002:000003e8       ??_C@_0BD@POHLGGDP@TA_GROUP_NOT_FOUND?$AA@ 000000018006b3e8     ta_libc_csr:ta_retcode.obj
 0002:00000400       ??_C@_07PMLNLDIB@No?5Info?$AA@ 000000018006b400     ta_libc_csr:ta_retcode.obj
 0002:00000408       ??_C@_0BC@KPIBHNLG@TA_FUNC_NOT_FOUND?$AA@ 000000018006b408     ta_libc_csr:ta_retcode.obj
 0002:00000420       ??_C@_0BC@KKGNAHCH@TA_INVALID_HANDLE?$AA@ 000000018006b420     ta_libc_csr:ta_retcode.obj
 0002:00000438       ??_C@_0BI@BNKIEGNB@TA_INVALID_PARAM_HOLDER?$AA@ 000000018006b438     ta_libc_csr:ta_retcode.obj
 0002:00000450       ??_C@_0BN@EFBBDHDN@TA_INVALID_PARAM_HOLDER_TYPE?$AA@ 000000018006b450     ta_libc_csr:ta_retcode.obj
 0002:00000470       ??_C@_0BK@GHBLBMGJ@TA_INVALID_PARAM_FUNCTION?$AA@ 000000018006b470     ta_libc_csr:ta_retcode.obj
 0002:00000490       ??_C@_0BM@OJJIGPJL@TA_INPUT_NOT_ALL_INITIALIZE?$AA@ 000000018006b490     ta_libc_csr:ta_retcode.obj
 0002:000004b0       ??_C@_0BN@KIJHNOCA@TA_OUTPUT_NOT_ALL_INITIALIZE?$AA@ 000000018006b4b0     ta_libc_csr:ta_retcode.obj
 0002:000004d0       ??_C@_0BM@ONGIAAMN@TA_OUT_OF_RANGE_START_INDEX?$AA@ 000000018006b4d0     ta_libc_csr:ta_retcode.obj
 0002:000004f0       ??_C@_0BK@CFKEFBFA@TA_OUT_OF_RANGE_END_INDEX?$AA@ 000000018006b4f0     ta_libc_csr:ta_retcode.obj
 0002:00000510       ??_C@_0BF@PMGGHKGE@TA_INVALID_LIST_TYPE?$AA@ 000000018006b510     ta_libc_csr:ta_retcode.obj
 0002:00000528       ??_C@_0O@CMGCNNOF@TA_BAD_OBJECT?$AA@ 000000018006b528     ta_libc_csr:ta_retcode.obj
 0002:00000538       ??_C@_0BB@JHAPGBHA@TA_NOT_SUPPORTED?$AA@ 000000018006b538     ta_libc_csr:ta_retcode.obj
 0002:00000550       ??_C@_0BC@IBIHKGHJ@TA_INTERNAL_ERROR?$AA@ 000000018006b550     ta_libc_csr:ta_retcode.obj
 0002:00000568       ??_C@_0P@FMMIOLME@TA_UNKNOWN_ERR?$AA@ 000000018006b568     ta_libc_csr:ta_retcode.obj
 0002:00000578       ??_C@_0O@NPFKCNOE@Unknown?5Error?$AA@ 000000018006b578     ta_libc_csr:ta_retcode.obj
 0002:00000588       ??_C@_0CP@LKHPNJHI@Unexpected?5Internal?5Error?5?9?5Cont@ 000000018006b588     ta_libc_csr:ta_retcode.obj
 0002:000005c0       TA_GroupId_MathOperatorsString 000000018006b5c0     ta_libc_csr:ta_def_ui.obj
 0002:000005d0       TA_GroupId_MathTransformString 000000018006b5d0     ta_libc_csr:ta_def_ui.obj
 0002:000005e0       TA_GroupId_OverlapStudiesString 000000018006b5e0     ta_libc_csr:ta_def_ui.obj
 0002:000005f0       TA_GroupId_VolatilityIndicatorsString 000000018006b5f0     ta_libc_csr:ta_def_ui.obj
 0002:00000608       TA_GroupId_MomentumIndicatorsString 000000018006b608     ta_libc_csr:ta_def_ui.obj
 0002:00000620       TA_GroupId_CycleIndicatorsString 000000018006b620     ta_libc_csr:ta_def_ui.obj
 0002:00000638       TA_GroupId_VolumeIndicatorsString 000000018006b638     ta_libc_csr:ta_def_ui.obj
 0002:00000650       TA_GroupId_PatternRecognitionString 000000018006b650     ta_libc_csr:ta_def_ui.obj
 0002:00000668       TA_GroupId_StatisticString 000000018006b668     ta_libc_csr:ta_def_ui.obj
 0002:00000680       TA_GroupId_PriceTransformString 000000018006b680     ta_libc_csr:ta_def_ui.obj
 0002:00000690       TA_DEF_UI_Input_Real       000000018006b690     ta_libc_csr:ta_def_ui.obj
 0002:000006a8       TA_DEF_UI_Input_Real0      000000018006b6a8     ta_libc_csr:ta_def_ui.obj
 0002:000006c0       TA_DEF_UI_Input_Real1      000000018006b6c0     ta_libc_csr:ta_def_ui.obj
 0002:000006d8       TA_DEF_UI_Input_Integer    000000018006b6d8     ta_libc_csr:ta_def_ui.obj
 0002:000006f0       TA_DEF_UI_Input_Price_OHLCV 000000018006b6f0     ta_libc_csr:ta_def_ui.obj
 0002:00000708       TA_DEF_UI_Input_Price_HLCV 000000018006b708     ta_libc_csr:ta_def_ui.obj
 0002:00000720       TA_DEF_UI_Input_Price_OHLC 000000018006b720     ta_libc_csr:ta_def_ui.obj
 0002:00000738       TA_DEF_UI_Input_Price_HLC  000000018006b738     ta_libc_csr:ta_def_ui.obj
 0002:00000750       TA_DEF_UI_Input_Price_HL   000000018006b750     ta_libc_csr:ta_def_ui.obj
 0002:00000768       TA_DEF_UI_Input_Price_OC   000000018006b768     ta_libc_csr:ta_def_ui.obj
 0002:00000780       TA_DEF_UI_Input_Price_CV   000000018006b780     ta_libc_csr:ta_def_ui.obj
 0002:00000798       TA_DEF_UI_Input_Price_V    000000018006b798     ta_libc_csr:ta_def_ui.obj
 0002:000007b0       TA_DEF_UI_Input_Periods    000000018006b7b0     ta_libc_csr:ta_def_ui.obj
 0002:000007c8       TA_DEF_UI_Output_Real      000000018006b7c8     ta_libc_csr:ta_def_ui.obj
 0002:000007e0       TA_DEF_UI_Output_Integer   000000018006b7e0     ta_libc_csr:ta_def_ui.obj
 0002:00000800       TA_DEF_UI_TimePeriod_30    000000018006b800     ta_libc_csr:ta_def_ui.obj
 0002:00000840       TA_DEF_UI_TimePeriod_14    000000018006b840     ta_libc_csr:ta_def_ui.obj
 0002:00000880       TA_DEF_UI_TimePeriod_10    000000018006b880     ta_libc_csr:ta_def_ui.obj
 0002:000008c0       TA_DEF_UI_TimePeriod_5     000000018006b8c0     ta_libc_csr:ta_def_ui.obj
 0002:00000900       TA_DEF_UI_TimePeriod_30_MINIMUM2 000000018006b900     ta_libc_csr:ta_def_ui.obj
 0002:00000940       TA_DEF_UI_TimePeriod_20_MINIMUM2 000000018006b940     ta_libc_csr:ta_def_ui.obj
 0002:00000980       TA_DEF_UI_TimePeriod_21_MINIMUM2 000000018006b980     ta_libc_csr:ta_def_ui.obj
 0002:000009c0       TA_DEF_UI_TimePeriod_14_MINIMUM2 000000018006b9c0     ta_libc_csr:ta_def_ui.obj
 0002:00000a00       TA_DEF_UI_TimePeriod_14_MINIMUM5 000000018006ba00     ta_libc_csr:ta_def_ui.obj
 0002:00000a40       TA_DEF_UI_TimePeriod_10_MINIMUM2 000000018006ba40     ta_libc_csr:ta_def_ui.obj
 0002:00000a80       TA_DEF_UI_TimePeriod_5_MINIMUM2 000000018006ba80     ta_libc_csr:ta_def_ui.obj
 0002:00000ac0       TA_DEF_UI_VerticalShift    000000018006bac0     ta_libc_csr:ta_def_ui.obj
 0002:00000b00       TA_DEF_UI_HorizontalShift  000000018006bb00     ta_libc_csr:ta_def_ui.obj
 0002:00000b40       TA_DEF_UI_MA_Method        000000018006bb40     ta_libc_csr:ta_def_ui.obj
 0002:00000b80       TA_DEF_UI_Fast_Period      000000018006bb80     ta_libc_csr:ta_def_ui.obj
 0002:00000bc0       TA_DEF_UI_Slow_Period      000000018006bbc0     ta_libc_csr:ta_def_ui.obj
 0002:00000c00       TA_DEF_UI_NbDeviation      000000018006bc00     ta_libc_csr:ta_def_ui.obj
 0002:00000c40       TA_DEF_UI_Penetration_30   000000018006bc40     ta_libc_csr:ta_def_ui.obj
 0002:00000c80       TA_DEF_UI_Penetration_50   000000018006bc80     ta_libc_csr:ta_def_ui.obj
 0002:00000cc0       TA_DEF_UI_MinPeriod        000000018006bcc0     ta_libc_csr:ta_def_ui.obj
 0002:00000d00       TA_DEF_UI_MaxPeriod        000000018006bd00     ta_libc_csr:ta_def_ui.obj
 0002:00000d40       TA_DEF_TimePeriod_Positive 000000018006bd40     ta_libc_csr:ta_def_ui.obj
 0002:00000d58       TA_DEF_TimePeriod_Positive_Minimum2 000000018006bd58     ta_libc_csr:ta_def_ui.obj
 0002:00000d70       TA_DEF_TimePeriod_Positive_Minimum5 000000018006bd70     ta_libc_csr:ta_def_ui.obj
 0002:00000d88       TA_DEF_VerticalShiftPercent 000000018006bd88     ta_libc_csr:ta_def_ui.obj
 0002:00000db8       TA_DEF_HorizontalShiftPeriod 000000018006bdb8     ta_libc_csr:ta_def_ui.obj
 0002:00000dd0       TA_DEF_NbDeviation         000000018006bdd0     ta_libc_csr:ta_def_ui.obj
 0002:00000e00       TA_DEF_ZeroToOne           000000018006be00     ta_libc_csr:ta_def_ui.obj
 0002:00000e30       TA_DEF_RealPositive        000000018006be30     ta_libc_csr:ta_def_ui.obj
 0002:00000e60       TA_MA_TypeList             000000018006be60     ta_libc_csr:ta_def_ui.obj
 0002:00000f00       ??_C@_0N@JMNECIEG@inPriceOHLCV?$AA@ 000000018006bf00     ta_libc_csr:ta_def_ui.obj
 0002:00000f10       ??_C@_0M@FOINPBGL@inPriceHLCV?$AA@ 000000018006bf10     ta_libc_csr:ta_def_ui.obj
 0002:00000f20       ??_C@_0M@FPCGBLAF@inPriceOHLC?$AA@ 000000018006bf20     ta_libc_csr:ta_def_ui.obj
 0002:00000f30       ??_C@_0L@NBAAJBLJ@inPriceHLC?$AA@ 000000018006bf30     ta_libc_csr:ta_def_ui.obj
 0002:00000f40       ??_C@_09FECDFIIO@inPriceHL?$AA@ 000000018006bf40     ta_libc_csr:ta_def_ui.obj
 0002:00000f50       ??_C@_09NGPEFCME@inPriceOC?$AA@ 000000018006bf50     ta_libc_csr:ta_def_ui.obj
 0002:00000f60       ??_C@_09OIFLENLE@inPriceCV?$AA@ 000000018006bf60     ta_libc_csr:ta_def_ui.obj
 0002:00000f70       ??_C@_08FGCEJFJC@inPriceV?$AA@ 000000018006bf70     ta_libc_csr:ta_def_ui.obj
 0002:00000f7c       ??_C@_06IADFFJLL@inReal?$AA@ 000000018006bf7c     ta_libc_csr:ta_def_ui.obj
 0002:00000f88       ??_C@_09NDMPGFOL@inPeriods?$AA@ 000000018006bf88     ta_libc_csr:ta_def_ui.obj
 0002:00000f98       ??_C@_07IDHFGJKO@inReal0?$AA@ 000000018006bf98     ta_libc_csr:ta_def_ui.obj
 0002:00000fa0       ??_C@_07JKGOFIOP@inReal1?$AA@ 000000018006bfa0     ta_libc_csr:ta_def_ui.obj
 0002:00000fa8       ??_C@_09HMPIGGJE@inInteger?$AA@ 000000018006bfa8     ta_libc_csr:ta_def_ui.obj
 0002:00000fb8       ??_C@_07HDIDDMPM@outReal?$AA@ 000000018006bfb8     ta_libc_csr:ta_def_ui.obj
 0002:00000fc0       ??_C@_0L@DDKFHEHJ@outInteger?$AA@ 000000018006bfc0     ta_libc_csr:ta_def_ui.obj
 0002:00000fd0       ??_C@_0P@KDPPLIMO@optInMinPeriod?$AA@ 000000018006bfd0     ta_libc_csr:ta_def_ui.obj
 0002:00000fe0       ??_C@_0P@FOAMMKPH@Minimum?5Period?$AA@ 000000018006bfe0     ta_libc_csr:ta_def_ui.obj
 0002:00000ff0       ??_C@_0DK@LJKGIAFJ@Value?5less?5than?5minimum?5will?5be?5@ 000000018006bff0     ta_libc_csr:ta_def_ui.obj
 0002:00001030       ??_C@_0P@KCPDCCHK@optInMaxPeriod?$AA@ 000000018006c030     ta_libc_csr:ta_def_ui.obj
 0002:00001040       ??_C@_0P@HJLHKNMG@Maximum?5Period?$AA@ 000000018006c040     ta_libc_csr:ta_def_ui.obj
 0002:00001050       ??_C@_0DM@IJLJEDDB@Value?5higher?5than?5maximum?5will?5b@ 000000018006c050     ta_libc_csr:ta_def_ui.obj
 0002:00001090       ??_C@_0BA@IGHDILEG@optInTimePeriod?$AA@ 000000018006c090     ta_libc_csr:ta_def_ui.obj
 0002:000010a0       ??_C@_0M@KHJPIHOF@Time?5Period?$AA@ 000000018006c0a0     ta_libc_csr:ta_def_ui.obj
 0002:000010b0       ??_C@_0BB@MEGLNKGK@Number?5of?5period?$AA@ 000000018006c0b0     ta_libc_csr:ta_def_ui.obj
 0002:000010c8       ??_C@_0L@BEKGICDC@optInNbDev?$AA@ 000000018006c0c8     ta_libc_csr:ta_def_ui.obj
 0002:000010d8       ??_C@_0L@IFHENMHF@Deviations?$AA@ 000000018006c0d8     ta_libc_csr:ta_def_ui.obj
 0002:000010e8       ??_C@_0BB@OHKIPNEP@Nb?5of?5deviations?$AA@ 000000018006c0e8     ta_libc_csr:ta_def_ui.obj
 0002:00001100       ??_C@_0BB@GNCFJOGL@optInPenetration?$AA@ 000000018006c100     ta_libc_csr:ta_def_ui.obj
 0002:00001118       ??_C@_0M@CCMEBPOL@Penetration?$AA@ 000000018006c118     ta_libc_csr:ta_def_ui.obj
 0002:00001128       ??_C@_0DM@JEBJAABN@Percentage?5of?5penetration?5of?5a?5c@ 000000018006c128     ta_libc_csr:ta_def_ui.obj
 0002:00001168       ??_C@_0P@DHADEKGD@optInVertShift?$AA@ 000000018006c168     ta_libc_csr:ta_def_ui.obj
 0002:00001178       ??_C@_0P@BACKFKF@Vertical?5Shift?$AA@ 000000018006c178     ta_libc_csr:ta_def_ui.obj
 0002:00001188       ??_C@_0DC@OAICFLAE@Positive?5number?5shift?5upwards?0?5n@ 000000018006c188     ta_libc_csr:ta_def_ui.obj
 0002:000011c0       ??_C@_0BA@NNPKBBHN@optInHorizShift?$AA@ 000000018006c1c0     ta_libc_csr:ta_def_ui.obj
 0002:000011d0       ??_C@_0BB@PAEPEIHF@Horizontal?5Shift?$AA@ 000000018006c1d0     ta_libc_csr:ta_def_ui.obj
 0002:000011f0       ??_C@_0EK@IJNLAHDD@Positive?5number?5shift?5?8n?8?5period@ 000000018006c1f0     ta_libc_csr:ta_def_ui.obj
 0002:0000123c       ??_C@_03JGCDOAHI@SMA?$AA@  000000018006c23c     ta_libc_csr:ta_def_ui.obj
 0002:00001240       ??_C@_03ODFBOIDL@EMA?$AA@  000000018006c240     ta_libc_csr:ta_def_ui.obj
 0002:00001244       ??_C@_03BJEBHHCP@WMA?$AA@  000000018006c244     ta_libc_csr:ta_def_ui.obj
 0002:00001248       ??_C@_04KJEEDOLD@DEMA?$AA@ 000000018006c248     ta_libc_csr:ta_def_ui.obj
 0002:00001250       ??_C@_04MJKEKJDB@TEMA?$AA@ 000000018006c250     ta_libc_csr:ta_def_ui.obj
 0002:00001258       ??_C@_05OMMNPPHG@TRIMA?$AA@ 000000018006c258     ta_libc_csr:ta_def_ui.obj
 0002:00001260       ??_C@_04KEHGDODF@KAMA?$AA@ 000000018006c260     ta_libc_csr:ta_def_ui.obj
 0002:00001268       ??_C@_04CLDGMLJF@MAMA?$AA@ 000000018006c268     ta_libc_csr:ta_def_ui.obj
 0002:00001270       ??_C@_02JPGAMFLB@T3?$AA@   000000018006c270     ta_libc_csr:ta_def_ui.obj
 0002:00001278       ??_C@_0M@BODLAGPC@optInMAType?$AA@ 000000018006c278     ta_libc_csr:ta_def_ui.obj
 0002:00001288       ??_C@_07FKEKPNPO@MA?5Type?$AA@ 000000018006c288     ta_libc_csr:ta_def_ui.obj
 0002:00001290       ??_C@_0BH@IDHJLILO@Type?5of?5Moving?5Average?$AA@ 000000018006c290     ta_libc_csr:ta_def_ui.obj
 0002:000012a8       ??_C@_0BA@LHCNBOOO@optInFastPeriod?$AA@ 000000018006c2a8     ta_libc_csr:ta_def_ui.obj
 0002:000012b8       ??_C@_0M@HPKDPCKK@Fast?5Period?$AA@ 000000018006c2b8     ta_libc_csr:ta_def_ui.obj
 0002:000012c8       ??_C@_0CB@GNDFMAKF@Number?5of?5period?5for?5the?5fast?5MA@ 000000018006c2c8     ta_libc_csr:ta_def_ui.obj
 0002:000012f0       ??_C@_0BA@FJAJELFB@optInSlowPeriod?$AA@ 000000018006c2f0     ta_libc_csr:ta_def_ui.obj
 0002:00001300       ??_C@_0M@CEJDHIOC@Slow?5Period?$AA@ 000000018006c300     ta_libc_csr:ta_def_ui.obj
 0002:00001310       ??_C@_0CB@LANCGBK@Number?5of?5period?5for?5the?5slow?5MA@ 000000018006c310     ta_libc_csr:ta_def_ui.obj
 0002:00001334       ??_C@_04DPLPEKKC@ACOS?$AA@ 000000018006c334     ta_libc_csr:table_a.obj
 0002:00001340       ??_C@_0BK@CAKJDDPH@Vector?5Trigonometric?5ACos?$AA@ 000000018006c340     ta_libc_csr:table_a.obj
 0002:0000135c       ??_C@_04DCEEIHNO@Acos?$AA@ 000000018006c35c     ta_libc_csr:table_a.obj
 0002:00001370       TA_DEF_AD                  000000018006c370     ta_libc_csr:table_a.obj
 0002:000013a8       TA_DEF_ADD                 000000018006c3a8     ta_libc_csr:table_a.obj
 0002:00001460       TA_DEF_ADOSC               000000018006c460     ta_libc_csr:table_a.obj
 0002:00001498       TA_DEF_ADX                 000000018006c498     ta_libc_csr:table_a.obj
 0002:000014d0       TA_DEF_ADXR                000000018006c4d0     ta_libc_csr:table_a.obj
 0002:00001508       TA_DEF_APO                 000000018006c508     ta_libc_csr:table_a.obj
 0002:00001540       TA_DEF_UI_Output_Real_AroonUp 000000018006c540     ta_libc_csr:table_a.obj
 0002:00001558       TA_DEF_UI_Output_Real_AroonDown 000000018006c558     ta_libc_csr:table_a.obj
 0002:00001570       TA_DEF_AROON               000000018006c570     ta_libc_csr:table_a.obj
 0002:000015a8       TA_DEF_AROONOSC            000000018006c5a8     ta_libc_csr:table_a.obj
 0002:000015e0       TA_DEF_ASIN                000000018006c5e0     ta_libc_csr:table_a.obj
 0002:00001618       TA_DEF_ATAN                000000018006c618     ta_libc_csr:table_a.obj
 0002:00001650       TA_DEF_ATR                 000000018006c650     ta_libc_csr:table_a.obj
 0002:00001688       TA_DEF_AVGPRICE            000000018006c688     ta_libc_csr:table_a.obj
 0002:000016c0       TA_DEF_AVGDEV              000000018006c6c0     ta_libc_csr:table_a.obj
 0002:000016f8       TA_DEF_TableASize          000000018006c6f8     ta_libc_csr:table_a.obj
 0002:00001700       TA_DEF_UI_Output_Real_ACCBANDS_Middle 000000018006c700     ta_libc_csr:table_a.obj
 0002:00001718       TA_DEF_UI_Output_Real_ACCBANDS_Upper 000000018006c718     ta_libc_csr:table_a.obj
 0002:00001730       TA_DEF_UI_Output_Real_ACCBANDS_Lower 000000018006c730     ta_libc_csr:table_a.obj
 0002:00001748       TA_DEF_ACCBANDS            000000018006c748     ta_libc_csr:table_a.obj
 0002:00001780       TA_DEF_ACOS                000000018006c780     ta_libc_csr:table_a.obj
 0002:000017b8       ??_C@_02OFPDELBL@AD?$AA@   000000018006c7b8     ta_libc_csr:table_a.obj
 0002:000017c0       ??_C@_0BB@GFFHAGPJ@Chaikin?5A?1D?5Line?$AA@ 000000018006c7c0     ta_libc_csr:table_a.obj
 0002:000017d4       ??_C@_02HAHHGPLJ@Ad?$AA@   000000018006c7d4     ta_libc_csr:table_a.obj
 0002:000017d8       ??_C@_03BOJFLAKG@ADD?$AA@  000000018006c7d8     ta_libc_csr:table_a.obj
 0002:000017e0       ??_C@_0BG@BFDPHNFK@Vector?5Arithmetic?5Add?$AA@ 000000018006c7e0     ta_libc_csr:table_a.obj
 0002:000017f8       ??_C@_03LDFMNCOE@Add?$AA@  000000018006c7f8     ta_libc_csr:table_a.obj
 0002:000017fc       ??_C@_05FBJDLNFI@ADOSC?$AA@ 000000018006c7fc     ta_libc_csr:table_a.obj
 0002:00001808       ??_C@_0BH@IHDIBBHG@Chaikin?5A?1D?5Oscillator?$AA@ 000000018006c808     ta_libc_csr:table_a.obj
 0002:00001820       ??_C@_05DNJLPABO@AdOsc?$AA@ 000000018006c820     ta_libc_csr:table_a.obj
 0002:00001828       ??_C@_03PIOCONPL@ADX?$AA@  000000018006c828     ta_libc_csr:table_a.obj
 0002:00001830       ??_C@_0CD@CBFLELDF@Average?5Directional?5Movement?5Ind@ 000000018006c830     ta_libc_csr:table_a.obj
 0002:00001854       ??_C@_03FFCLIPLJ@Adx?$AA@  000000018006c854     ta_libc_csr:table_a.obj
 0002:00001858       ??_C@_04KCBKPGKP@ADXR?$AA@ 000000018006c858     ta_libc_csr:table_a.obj
 0002:00001860       ??_C@_0CK@GEJEOFCA@Average?5Directional?5Movement?5Ind@ 000000018006c860     ta_libc_csr:table_a.obj
 0002:0000188c       ??_C@_04KPOBDLND@Adxr?$AA@ 000000018006c88c     ta_libc_csr:table_a.obj
 0002:00001894       ??_C@_03OGEOGCMB@APO?$AA@  000000018006c894     ta_libc_csr:table_a.obj
 0002:00001898       ??_C@_0BK@OPLGGLFM@Absolute?5Price?5Oscillator?$AA@ 000000018006c898     ta_libc_csr:table_a.obj
 0002:000018b4       ??_C@_03ELIHAAID@Apo?$AA@  000000018006c8b4     ta_libc_csr:table_a.obj
 0002:000018b8       ??_C@_0N@KGAKCHFP@outAroonDown?$AA@ 000000018006c8b8     ta_libc_csr:table_a.obj
 0002:000018c8       ??_C@_0L@IMKLLBH@outAroonUp?$AA@ 000000018006c8c8     ta_libc_csr:table_a.obj
 0002:000018d4       ??_C@_05BOKBPLCD@AROON?$AA@ 000000018006c8d4     ta_libc_csr:table_a.obj
 0002:000018dc       ??_C@_05NCJLBJFL@Aroon?$AA@ 000000018006c8dc     ta_libc_csr:table_a.obj
 0002:000018e8       ??_C@_08BKELJHOL@AROONOSC?$AA@ 000000018006c8e8     ta_libc_csr:table_a.obj
 0002:000018f8       ??_C@_0BB@ELMEEEJE@Aroon?5Oscillator?$AA@ 000000018006c8f8     ta_libc_csr:table_a.obj
 0002:00001910       ??_C@_08EHCEIEFB@AroonOsc?$AA@ 000000018006c910     ta_libc_csr:table_a.obj
 0002:0000191c       ??_C@_04JEEHANJD@ASIN?$AA@ 000000018006c91c     ta_libc_csr:table_a.obj
 0002:00001928       ??_C@_0BK@ILFBHEMG@Vector?5Trigonometric?5ASin?$AA@ 000000018006c928     ta_libc_csr:table_a.obj
 0002:00001944       ??_C@_04JJLMMAOP@Asin?$AA@ 000000018006c944     ta_libc_csr:table_a.obj
 0002:0000194c       ??_C@_04HIDGEJC@ATAN?$AA@  000000018006c94c     ta_libc_csr:table_a.obj
 0002:00001958       ??_C@_0BK@BIJFBNMH@Vector?5Trigonometric?5ATan?$AA@ 000000018006c958     ta_libc_csr:table_a.obj
 0002:00001974       ??_C@_04KHIKJOO@Atan?$AA@  000000018006c974     ta_libc_csr:table_a.obj
 0002:0000197c       ??_C@_03BOCLKGAB@ATR?$AA@  000000018006c97c     ta_libc_csr:table_a.obj
 0002:00001980       ??_C@_0BD@CBKIJCO@Average?5True?5Range?$AA@ 000000018006c980     ta_libc_csr:table_a.obj
 0002:00001994       ??_C@_03LDOCMEED@Atr?$AA@  000000018006c994     ta_libc_csr:table_a.obj
 0002:00001998       ??_C@_08JFGJEGJB@AVGPRICE?$AA@ 000000018006c998     ta_libc_csr:table_a.obj
 0002:000019a8       ??_C@_0O@DEGEDOOG@Average?5Price?$AA@ 000000018006c9a8     ta_libc_csr:table_a.obj
 0002:000019b8       ??_C@_08GPJIPPCD@AvgPrice?$AA@ 000000018006c9b8     ta_libc_csr:table_a.obj
 0002:000019c4       ??_C@_06DOCNELGM@AVGDEV?$AA@ 000000018006c9c4     ta_libc_csr:table_a.obj
 0002:000019d0       ??_C@_0BC@HDNDIICP@Average?5Deviation?$AA@ 000000018006c9d0     ta_libc_csr:table_a.obj
 0002:000019e4       ??_C@_06FFIJADBM@AvgDev?$AA@ 000000018006c9e4     ta_libc_csr:table_a.obj
 0002:000019f0       ??_C@_0BC@FBBPHJFL@outRealMiddleBand?$AA@ 000000018006c9f0     ta_libc_csr:table_a.obj
 0002:00001a08       ??_C@_0BB@OIDDPKLL@outRealUpperBand?$AA@ 000000018006ca08     ta_libc_csr:table_a.obj
 0002:00001a20       ??_C@_0BB@EKDENECA@outRealLowerBand?$AA@ 000000018006ca20     ta_libc_csr:table_a.obj
 0002:00001a38       ??_C@_08LICDIIOE@ACCBANDS?$AA@ 000000018006ca38     ta_libc_csr:table_a.obj
 0002:00001a48       ??_C@_0BD@CLCFAAOK@Acceleration?5Bands?$AA@ 000000018006ca48     ta_libc_csr:table_a.obj
 0002:00001a60       ??_C@_08EFHODEGA@Accbands?$AA@ 000000018006ca60     ta_libc_csr:table_a.obj
 0002:00001a70       TA_DEF_BOP                 000000018006ca70     ta_libc_csr:table_b.obj
 0002:00001aa8       TA_DEF_BETA                000000018006caa8     ta_libc_csr:table_b.obj
 0002:00001ae0       TA_DEF_TableBSize          000000018006cae0     ta_libc_csr:table_b.obj
 0002:00001af0       TA_DEF_UI_NbDeviationUp    000000018006caf0     ta_libc_csr:table_b.obj
 0002:00001b30       TA_DEF_UI_NbDeviationDn    000000018006cb30     ta_libc_csr:table_b.obj
 0002:00001b70       TA_DEF_UI_Output_Real_BBANDS_Middle 000000018006cb70     ta_libc_csr:table_b.obj
 0002:00001b88       TA_DEF_UI_Output_Real_BBANDS_Upper 000000018006cb88     ta_libc_csr:table_b.obj
 0002:00001ba0       TA_DEF_UI_Output_Real_BBANDS_Lower 000000018006cba0     ta_libc_csr:table_b.obj
 0002:00001bb8       TA_DEF_BBANDS              000000018006cbb8     ta_libc_csr:table_b.obj
 0002:00001bf0       ??_C@_03CONLCHPM@BOP?$AA@  000000018006cbf0     ta_libc_csr:table_b.obj
 0002:00001bf8       ??_C@_0BB@JBFOAKAE@Balance?5Of?5Power?$AA@ 000000018006cbf8     ta_libc_csr:table_b.obj
 0002:00001c0c       ??_C@_03IDBCEFLO@Bop?$AA@  000000018006cc0c     ta_libc_csr:table_b.obj
 0002:00001c10       ??_C@_04DFPDFDOM@BETA?$AA@ 000000018006cc10     ta_libc_csr:table_b.obj
 0002:00001c18       ??_C@_04DIAIJOJA@Beta?$AA@ 000000018006cc18     ta_libc_csr:table_b.obj
 0002:00001c20       ??_C@_0N@KLIODHHG@optInNbDevUp?$AA@ 000000018006cc20     ta_libc_csr:table_b.obj
 0002:00001c30       ??_C@_0O@PFOIOJHL@Deviations?5up?$AA@ 000000018006cc30     ta_libc_csr:table_b.obj
 0002:00001c40       ??_C@_0CE@ELOLHMIC@Deviation?5multiplier?5for?5upper?5b@ 000000018006cc40     ta_libc_csr:table_b.obj
 0002:00001c68       ??_C@_0N@GCCLMBOO@optInNbDevDn?$AA@ 000000018006cc68     ta_libc_csr:table_b.obj
 0002:00001c78       ??_C@_0BA@OKCHMOAO@Deviations?5down?$AA@ 000000018006cc78     ta_libc_csr:table_b.obj
 0002:00001c88       ??_C@_0CE@CMJEDBGA@Deviation?5multiplier?5for?5lower?5b@ 000000018006cc88     ta_libc_csr:table_b.obj
 0002:00001cac       ??_C@_06LMKJKMK@BBANDS?$AA@ 000000018006ccac     ta_libc_csr:table_b.obj
 0002:00001cb8       ??_C@_0BA@FLOEDPLL@Bollinger?5Bands?$AA@ 000000018006ccb8     ta_libc_csr:table_b.obj
 0002:00001cc8       ??_C@_06MAFMHNIE@Bbands?$AA@ 000000018006ccc8     ta_libc_csr:table_b.obj
 0002:00001cd0       ??_C@_09FLEFIAFI@CDL2CROWS?$AA@ 000000018006ccd0     ta_libc_csr:table_c.obj
 0002:00001ce0       ??_C@_09MCAJOMPE@Two?5Crows?$AA@ 000000018006cce0     ta_libc_csr:table_c.obj
 0002:00001cf0       ??_C@_09OMPIICNF@Cdl2Crows?$AA@ 000000018006ccf0     ta_libc_csr:table_c.obj
 0002:00001d00       TA_DEF_CDL3BLACKCROWS      000000018006cd00     ta_libc_csr:table_c.obj
 0002:00001d38       TA_DEF_CDLRICKSHAWMAN      000000018006cd38     ta_libc_csr:table_c.obj
 0002:00001d70       TA_DEF_CDL3INSIDE          000000018006cd70     ta_libc_csr:table_c.obj
 0002:00001da8       TA_DEF_CDLRISEFALL3METHODS 000000018006cda8     ta_libc_csr:table_c.obj
 0002:00001de0       TA_DEF_CDL3LINESTRIKE      000000018006cde0     ta_libc_csr:table_c.obj
 0002:00001e18       TA_DEF_CDLSEPARATINGLINES  000000018006ce18     ta_libc_csr:table_c.obj
 0002:00001e50       TA_DEF_CDL3OUTSIDE         000000018006ce50     ta_libc_csr:table_c.obj
 0002:00001e88       TA_DEF_CDLSHOOTINGSTAR     000000018006ce88     ta_libc_csr:table_c.obj
 0002:00001ec0       TA_DEF_CDL3STARSINSOUTH    000000018006cec0     ta_libc_csr:table_c.obj
 0002:00001ef8       TA_DEF_CDLSHORTLINE        000000018006cef8     ta_libc_csr:table_c.obj
 0002:00001f30       TA_DEF_CDL3WHITESOLDIERS   000000018006cf30     ta_libc_csr:table_c.obj
 0002:00001f68       TA_DEF_CDLSPINNINGTOP      000000018006cf68     ta_libc_csr:table_c.obj
 0002:00001fa0       TA_DEF_CDLABANDONEDBABY    000000018006cfa0     ta_libc_csr:table_c.obj
 0002:00001fd8       TA_DEF_CDLSTALLEDPATTERN   000000018006cfd8     ta_libc_csr:table_c.obj
 0002:00002010       TA_DEF_CDLADVANCEBLOCK     000000018006d010     ta_libc_csr:table_c.obj
 0002:00002048       TA_DEF_CDLSTICKSANDWICH    000000018006d048     ta_libc_csr:table_c.obj
 0002:00002080       TA_DEF_CDLBELTHOLD         000000018006d080     ta_libc_csr:table_c.obj
 0002:000020b8       TA_DEF_CDLTAKURI           000000018006d0b8     ta_libc_csr:table_c.obj
 0002:000020f0       TA_DEF_CDLBREAKAWAY        000000018006d0f0     ta_libc_csr:table_c.obj
 0002:00002128       TA_DEF_CDLTASUKIGAP        000000018006d128     ta_libc_csr:table_c.obj
 0002:00002160       TA_DEF_CDLCLOSINGMARUBOZU  000000018006d160     ta_libc_csr:table_c.obj
 0002:00002198       TA_DEF_CDLTHRUSTING        000000018006d198     ta_libc_csr:table_c.obj
 0002:000021d0       TA_DEF_CDLCONCEALBABYSWALL 000000018006d1d0     ta_libc_csr:table_c.obj
 0002:00002208       TA_DEF_CDLTRISTAR          000000018006d208     ta_libc_csr:table_c.obj
 0002:00002240       TA_DEF_CDLCOUNTERATTACK    000000018006d240     ta_libc_csr:table_c.obj
 0002:00002278       TA_DEF_CDLUNIQUE3RIVER     000000018006d278     ta_libc_csr:table_c.obj
 0002:000022b0       TA_DEF_CDLDARKCLOUDCOVER   000000018006d2b0     ta_libc_csr:table_c.obj
 0002:000022e8       TA_DEF_CDLUPSIDEGAP2CROWS  000000018006d2e8     ta_libc_csr:table_c.obj
 0002:00002320       TA_DEF_CDLDOJI             000000018006d320     ta_libc_csr:table_c.obj
 0002:00002358       TA_DEF_CDLXSIDEGAP3METHODS 000000018006d358     ta_libc_csr:table_c.obj
 0002:00002390       TA_DEF_CDLDOJISTAR         000000018006d390     ta_libc_csr:table_c.obj
 0002:000023c8       TA_DEF_CEIL                000000018006d3c8     ta_libc_csr:table_c.obj
 0002:00002400       TA_DEF_CDLDRAGONFLYDOJI    000000018006d400     ta_libc_csr:table_c.obj
 0002:00002438       TA_DEF_CMO                 000000018006d438     ta_libc_csr:table_c.obj
 0002:00002470       TA_DEF_CDLENGULFING        000000018006d470     ta_libc_csr:table_c.obj
 0002:000024a8       TA_DEF_CORREL              000000018006d4a8     ta_libc_csr:table_c.obj
 0002:000024e0       TA_DEF_CDLEVENINGDOJISTAR  000000018006d4e0     ta_libc_csr:table_c.obj
 0002:00002518       TA_DEF_COS                 000000018006d518     ta_libc_csr:table_c.obj
 0002:00002550       TA_DEF_CDLEVENINGSTAR      000000018006d550     ta_libc_csr:table_c.obj
 0002:00002588       TA_DEF_COSH                000000018006d588     ta_libc_csr:table_c.obj
 0002:000025c0       TA_DEF_CDLGAPSIDESIDEWHITE 000000018006d5c0     ta_libc_csr:table_c.obj
 0002:000025f8       TA_DEF_TableCSize          000000018006d5f8     ta_libc_csr:table_c.obj
 0002:00002600       TA_DEF_CDLGRAVESTONEDOJI   000000018006d600     ta_libc_csr:table_c.obj
 0002:00002638       TA_DEF_CDLHAMMER           000000018006d638     ta_libc_csr:table_c.obj
 0002:00002670       TA_DEF_CDLHANGINGMAN       000000018006d670     ta_libc_csr:table_c.obj
 0002:000026a8       TA_DEF_CDLHARAMI           000000018006d6a8     ta_libc_csr:table_c.obj
 0002:000026e0       TA_DEF_CDLHARAMICROSS      000000018006d6e0     ta_libc_csr:table_c.obj
 0002:00002718       TA_DEF_CDLHIGHWAVE         000000018006d718     ta_libc_csr:table_c.obj
 0002:00002750       TA_DEF_CDLHIKKAKE          000000018006d750     ta_libc_csr:table_c.obj
 0002:00002788       TA_DEF_CDLHIKKAKEMOD       000000018006d788     ta_libc_csr:table_c.obj
 0002:000027c0       TA_DEF_CDLHOMINGPIGEON     000000018006d7c0     ta_libc_csr:table_c.obj
 0002:000027f8       TA_DEF_CDLIDENTICAL3CROWS  000000018006d7f8     ta_libc_csr:table_c.obj
 0002:00002830       TA_DEF_CDLINNECK           000000018006d830     ta_libc_csr:table_c.obj
 0002:00002868       TA_DEF_CDLINVERTEDHAMMER   000000018006d868     ta_libc_csr:table_c.obj
 0002:000028a0       TA_DEF_CDLKICKING          000000018006d8a0     ta_libc_csr:table_c.obj
 0002:000028d8       TA_DEF_CDLKICKINGBYLENGTH  000000018006d8d8     ta_libc_csr:table_c.obj
 0002:00002910       TA_DEF_CDLLADDERBOTTOM     000000018006d910     ta_libc_csr:table_c.obj
 0002:00002948       TA_DEF_CDLLONGLEGGEDDOJI   000000018006d948     ta_libc_csr:table_c.obj
 0002:00002980       TA_DEF_CDLLONGLINE         000000018006d980     ta_libc_csr:table_c.obj
 0002:000029b8       TA_DEF_CDLMARUBOZU         000000018006d9b8     ta_libc_csr:table_c.obj
 0002:000029f0       TA_DEF_CDLMATCHINGLOW      000000018006d9f0     ta_libc_csr:table_c.obj
 0002:00002a28       TA_DEF_CDLMATHOLD          000000018006da28     ta_libc_csr:table_c.obj
 0002:00002a60       TA_DEF_CDLMORNINGDOJISTAR  000000018006da60     ta_libc_csr:table_c.obj
 0002:00002a98       TA_DEF_CDLMORNINGSTAR      000000018006da98     ta_libc_csr:table_c.obj
 0002:00002ad0       TA_DEF_CCI                 000000018006dad0     ta_libc_csr:table_c.obj
 0002:00002b08       TA_DEF_CDLONNECK           000000018006db08     ta_libc_csr:table_c.obj
 0002:00002b40       TA_DEF_CDL2CROWS           000000018006db40     ta_libc_csr:table_c.obj
 0002:00002b78       TA_DEF_CDLPIERCING         000000018006db78     ta_libc_csr:table_c.obj
 0002:00002bb0       ??_C@_0M@OEGPGGH@CDLPIERCING?$AA@ 000000018006dbb0     ta_libc_csr:table_c.obj
 0002:00002bc0       ??_C@_0BB@BDNKHNOG@Piercing?5Pattern?$AA@ 000000018006dbc0     ta_libc_csr:table_c.obj
 0002:00002bd8       ??_C@_0M@DKNKMGOE@CdlPiercing?$AA@ 000000018006dbd8     ta_libc_csr:table_c.obj
 0002:00002be8       ??_C@_0P@DNGHHHDL@CDL3BLACKCROWS?$AA@ 000000018006dbe8     ta_libc_csr:table_c.obj
 0002:00002bf8       ??_C@_0BC@KDLOBGOJ@Three?5Black?5Crows?$AA@ 000000018006dbf8     ta_libc_csr:table_c.obj
 0002:00002c10       ??_C@_0P@HECAHMNH@Cdl3BlackCrows?$AA@ 000000018006dc10     ta_libc_csr:table_c.obj
 0002:00002c20       ??_C@_0P@EMCBHPJD@CDLRICKSHAWMAN?$AA@ 000000018006dc20     ta_libc_csr:table_c.obj
 0002:00002c30       ??_C@_0N@CHIFBEIM@Rickshaw?5Man?$AA@ 000000018006dc30     ta_libc_csr:table_c.obj
 0002:00002c40       ??_C@_0P@CEGEFBKA@CdlRickshawMan?$AA@ 000000018006dc40     ta_libc_csr:table_c.obj
 0002:00002c50       ??_C@_0L@PIJEFFOM@CDL3INSIDE?$AA@ 000000018006dc50     ta_libc_csr:table_c.obj
 0002:00002c60       ??_C@_0BF@EBHNGKPN@Three?5Inside?5Up?1Down?$AA@ 000000018006dc60     ta_libc_csr:table_c.obj
 0002:00002c78       ??_C@_0L@POKODDNB@Cdl3Inside?$AA@ 000000018006dc78     ta_libc_csr:table_c.obj
 0002:00002c88       ??_C@_0BE@NIDMHACA@CDLRISEFALL3METHODS?$AA@ 000000018006dc88     ta_libc_csr:table_c.obj
 0002:00002ca0       ??_C@_0BN@FAAJIOME@Rising?1Falling?5Three?5Methods?$AA@ 000000018006dca0     ta_libc_csr:table_c.obj
 0002:00002cc0       ??_C@_0BE@CELLAKBC@CdlRiseFall3Methods?$AA@ 000000018006dcc0     ta_libc_csr:table_c.obj
 0002:00002cd8       ??_C@_0P@PGMDABLK@CDL3LINESTRIKE?$AA@ 000000018006dcd8     ta_libc_csr:table_c.obj
 0002:00002ce8       ??_C@_0BD@JJFABNCC@Three?9Line?5Strike?5?$AA@ 000000018006dce8     ta_libc_csr:table_c.obj
 0002:00002d00       ??_C@_0P@HHJFDGPM@Cdl3LineStrike?$AA@ 000000018006dd00     ta_libc_csr:table_c.obj
 0002:00002d10       ??_C@_0BD@OEKJFIGG@CDLSEPARATINGLINES?$AA@ 000000018006dd10     ta_libc_csr:table_c.obj
 0002:00002d28       ??_C@_0BB@INCABMKD@Separating?5Lines?$AA@ 000000018006dd28     ta_libc_csr:table_c.obj
 0002:00002d40       ??_C@_0BD@INKNJGH@CdlSeperatingLines?$AA@ 000000018006dd40     ta_libc_csr:table_c.obj
 0002:00002d58       ??_C@_0M@EDABENIE@CDL3OUTSIDE?$AA@ 000000018006dd58     ta_libc_csr:table_c.obj
 0002:00002d68       ??_C@_0BG@LBFEOILE@Three?5Outside?5Up?1Down?$AA@ 000000018006dd68     ta_libc_csr:table_c.obj
 0002:00002d80       ??_C@_0M@IOOLBPFB@Cdl3Outside?$AA@ 000000018006dd80     ta_libc_csr:table_c.obj
 0002:00002d90       ??_C@_0BA@EKBLKNFG@CDLSHOOTINGSTAR?$AA@ 000000018006dd90     ta_libc_csr:table_c.obj
 0002:00002da0       ??_C@_0O@PEHIBPLA@Shooting?5Star?$AA@ 000000018006dda0     ta_libc_csr:table_c.obj
 0002:00002db0       ??_C@_0BA@GACHKNMM@CdlShootingStar?$AA@ 000000018006ddb0     ta_libc_csr:table_c.obj
 0002:00002dc0       ??_C@_0BB@CNGGDAEO@CDL3STARSINSOUTH?$AA@ 000000018006ddc0     ta_libc_csr:table_c.obj
 0002:00002dd8       ??_C@_0BJ@BFJJIEFL@Three?5Stars?5In?5The?5South?$AA@ 000000018006ddd8     ta_libc_csr:table_c.obj
 0002:00002df8       ??_C@_0BB@OCBKHLBF@Cdl3StarsInSouth?$AA@ 000000018006ddf8     ta_libc_csr:table_c.obj
 0002:00002e10       ??_C@_0N@HHGPAEKA@CDLSHORTLINE?$AA@ 000000018006de10     ta_libc_csr:table_c.obj
 0002:00002e20       ??_C@_0BC@GJGDFIGE@Short?5Line?5Candle?$AA@ 000000018006de20     ta_libc_csr:table_c.obj
 0002:00002e38       ??_C@_0N@FHKPEBKM@CdlShortLine?$AA@ 000000018006de38     ta_libc_csr:table_c.obj
 0002:00002e48       ??_C@_0BC@KBNGGBFC@CDL3WHITESOLDIERS?$AA@ 000000018006de48     ta_libc_csr:table_c.obj
 0002:00002e60       ??_C@_0BP@LNNKOAGL@Three?5Advancing?5White?5Soldiers?$AA@ 000000018006de60     ta_libc_csr:table_c.obj
 0002:00002e80       ??_C@_0BC@HJJIIFL@Cdl3WhiteSoldiers?$AA@ 000000018006de80     ta_libc_csr:table_c.obj
 0002:00002e98       ??_C@_0P@HMDLBMON@CDLSPINNINGTOP?$AA@ 000000018006de98     ta_libc_csr:table_c.obj
 0002:00002ea8       ??_C@_0N@PIFBFEKO@Spinning?5Top?$AA@ 000000018006dea8     ta_libc_csr:table_c.obj
 0002:00002eb8       ??_C@_0P@BEHODCNO@CdlSpinningTop?$AA@ 000000018006deb8     ta_libc_csr:table_c.obj
 0002:00002ec8       ??_C@_0BB@FCHJIBHC@CDLABANDONEDBABY?$AA@ 000000018006dec8     ta_libc_csr:table_c.obj
 0002:00002ee0       ??_C@_0P@IEIAMOBE@Abandoned?5Baby?$AA@ 000000018006dee0     ta_libc_csr:table_c.obj
 0002:00002ef0       ??_C@_0BB@BBGAMJLI@CdlAbandonedBaby?$AA@ 000000018006def0     ta_libc_csr:table_c.obj
 0002:00002f08       ??_C@_0BC@PMKNAJFH@CDLSTALLEDPATTERN?$AA@ 000000018006df08     ta_libc_csr:table_c.obj
 0002:00002f20       ??_C@_0BA@OJLNAHDK@Stalled?5Pattern?$AA@ 000000018006df20     ta_libc_csr:table_c.obj
 0002:00002f30       ??_C@_0BC@OMABHIHD@CdlStalledPattern?$AA@ 000000018006df30     ta_libc_csr:table_c.obj
 0002:00002f48       ??_C@_0BA@FHPAIFGO@CDLADVANCEBLOCK?$AA@ 000000018006df48     ta_libc_csr:table_c.obj
 0002:00002f58       ??_C@_0O@CKGMECBB@Advance?5Block?$AA@ 000000018006df58     ta_libc_csr:table_c.obj
 0002:00002f68       ??_C@_0BA@LLKBKPMG@CdlAdvanceBlock?$AA@ 000000018006df68     ta_libc_csr:table_c.obj
 0002:00002f78       ??_C@_0BB@FDKIOOMJ@CDLSTICKSANDWICH?$AA@ 000000018006df78     ta_libc_csr:table_c.obj
 0002:00002f90       ??_C@_0P@FLBCIFAN@Stick?5Sandwich?$AA@ 000000018006df90     ta_libc_csr:table_c.obj
 0002:00002fa0       ??_C@_0BC@CCEECBGA@CdlStickSandwhich?$AA@ 000000018006dfa0     ta_libc_csr:table_c.obj
 0002:00002fb8       ??_C@_0M@OCAMMGHB@CDLBELTHOLD?$AA@ 000000018006dfb8     ta_libc_csr:table_c.obj
 0002:00002fc8       ??_C@_09DOMEJEOF@Belt?9hold?$AA@ 000000018006dfc8     ta_libc_csr:table_c.obj
 0002:00002fd8       ??_C@_0M@BHFBNJPG@CdlBeltHold?$AA@ 000000018006dfd8     ta_libc_csr:table_c.obj
 0002:00002fe8       ??_C@_09BKFJCCLE@CDLTAKURI?$AA@ 000000018006dfe8     ta_libc_csr:table_c.obj
 0002:00002ff8       ??_C@_0DE@CKMGMCAA@Takuri?5?$CIDragonfly?5Doji?5with?5very@ 000000018006dff8     ta_libc_csr:table_c.obj
 0002:00003030       ??_C@_09KKEICFAP@CdlTakuri?$AA@ 000000018006e030     ta_libc_csr:table_c.obj
 0002:00003040       ??_C@_0N@BGOGPCDB@CDLBREAKAWAY?$AA@ 000000018006e040     ta_libc_csr:table_c.obj
 0002:00003050       ??_C@_09GKMEBICA@Breakaway?$AA@ 000000018006e050     ta_libc_csr:table_c.obj
 0002:00003060       ??_C@_0N@PHOHJIDJ@CdlBreakaway?$AA@ 000000018006e060     ta_libc_csr:table_c.obj
 0002:00003070       ??_C@_0N@DBPFFKEM@CDLTASUKIGAP?$AA@ 000000018006e070     ta_libc_csr:table_c.obj
 0002:00003080       ??_C@_0L@EIMGDOPD@Tasuki?5Gap?$AA@ 000000018006e080     ta_libc_csr:table_c.obj
 0002:00003090       ??_C@_0N@HAMGJPHK@CdlTasukiGap?$AA@ 000000018006e090     ta_libc_csr:table_c.obj
 0002:000030a0       ??_C@_0BD@KJNFNLGG@CDLCLOSINGMARUBOZU?$AA@ 000000018006e0a0     ta_libc_csr:table_c.obj
 0002:000030b8       ??_C@_0BB@MALNCLBO@Closing?5Marubozu?$AA@ 000000018006e0b8     ta_libc_csr:table_c.obj
 0002:000030d0       ??_C@_0BD@ECLHGE@CdlClosingMarubozu?$AA@ 000000018006e0d0     ta_libc_csr:table_c.obj
 0002:000030e8       ??_C@_0N@MIAJILNE@CDLTHRUSTING?$AA@ 000000018006e0e8     ta_libc_csr:table_c.obj
 0002:000030f8       ??_C@_0BC@FBKPJHOJ@Thrusting?5Pattern?$AA@ 000000018006e0f8     ta_libc_csr:table_c.obj
 0002:00003110       ??_C@_0N@CJAIOBNM@CdlThrusting?$AA@ 000000018006e110     ta_libc_csr:table_c.obj
 0002:00003120       ??_C@_0BE@IDNPKGMJ@CDLCONCEALBABYSWALL?$AA@ 000000018006e120     ta_libc_csr:table_c.obj
 0002:00003138       ??_C@_0BI@EPKEOOOF@Concealing?5Baby?5Swallow?$AA@ 000000018006e138     ta_libc_csr:table_c.obj
 0002:00003150       ??_C@_0BE@DJDNFLCP@CdlConcealBabysWall?$AA@ 000000018006e150     ta_libc_csr:table_c.obj
 0002:00003168       ??_C@_0L@PLFNMNPN@CDLTRISTAR?$AA@ 000000018006e168     ta_libc_csr:table_c.obj
 0002:00003178       ??_C@_0BA@GONFPEL@Tristar?5Pattern?$AA@ 000000018006e178     ta_libc_csr:table_c.obj
 0002:00003188       ??_C@_0L@DCNKJCFM@CdlTristar?$AA@ 000000018006e188     ta_libc_csr:table_c.obj
 0002:00003198       ??_C@_0BB@DLOICHO@CDLCOUNTERATTACK?$AA@ 000000018006e198     ta_libc_csr:table_c.obj
 0002:000031b0       ??_C@_0O@HNFFHOLN@Counterattack?$AA@ 000000018006e1b0     ta_libc_csr:table_c.obj
 0002:000031c0       ??_C@_0BB@EONLNMCM@CdlCounterAttack?$AA@ 000000018006e1c0     ta_libc_csr:table_c.obj
 0002:000031d8       ??_C@_0BA@MNDBGAMI@CDLUNIQUE3RIVER?$AA@ 000000018006e1d8     ta_libc_csr:table_c.obj
 0002:000031e8       ??_C@_0P@NCGNOODO@Unique?53?5River?$AA@ 000000018006e1e8     ta_libc_csr:table_c.obj
 0002:000031f8       ??_C@_0BA@OONNHDPM@CdlUnique3River?$AA@ 000000018006e1f8     ta_libc_csr:table_c.obj
 0002:00003208       ??_C@_0BC@PPLLAMOD@CDLDARKCLOUDCOVER?$AA@ 000000018006e208     ta_libc_csr:table_c.obj
 0002:00003220       ??_C@_0BB@MCCOJOIH@Dark?5Cloud?5Cover?$AA@ 000000018006e220     ta_libc_csr:table_c.obj
 0002:00003238       ??_C@_0BC@JHFBJFHA@CdlDarkCloudCover?$AA@ 000000018006e238     ta_libc_csr:table_c.obj
 0002:00003250       ??_C@_0BD@FEBLJNDF@CDLUPSIDEGAP2CROWS?$AA@ 000000018006e250     ta_libc_csr:table_c.obj
 0002:00003268       ??_C@_0BF@MHMEHLCM@Upside?5Gap?5Two?5Crows?$AA@ 000000018006e268     ta_libc_csr:table_c.obj
 0002:00003280       ??_C@_0BD@PIDBEMOO@CdlUpsideGap2Crows?$AA@ 000000018006e280     ta_libc_csr:table_c.obj
 0002:00003298       ??_C@_07MHKDDEFN@CDLDOJI?$AA@ 000000018006e298     ta_libc_csr:table_c.obj
 0002:000032a0       ??_C@_04GJEIPCG@Doji?$AA@  000000018006e2a0     ta_libc_csr:table_c.obj
 0002:000032a8       ??_C@_07CEJMFIL@CdlDoji?$AA@ 000000018006e2a8     ta_libc_csr:table_c.obj
 0002:000032b0       ??_C@_0BE@OCBHMNKL@CDLXSIDEGAP3METHODS?$AA@ 000000018006e2b0     ta_libc_csr:table_c.obj
 0002:000032c8       ??_C@_0CC@MLPJDBEL@Upside?1Downside?5Gap?5Three?5Method@ 000000018006e2c8     ta_libc_csr:table_c.obj
 0002:000032f0       ??_C@_0BE@KCOAFMOJ@CdlXSideGap3Methods?$AA@ 000000018006e2f0     ta_libc_csr:table_c.obj
 0002:00003308       ??_C@_0M@FICGNHMF@CDLDOJISTAR?$AA@ 000000018006e308     ta_libc_csr:table_c.obj
 0002:00003318       ??_C@_09JPKFPGOG@Doji?5Star?$AA@ 000000018006e318     ta_libc_csr:table_c.obj
 0002:00003328       ??_C@_0M@KNHLMIEC@CdlDojiStar?$AA@ 000000018006e328     ta_libc_csr:table_c.obj
 0002:00003334       ??_C@_04KJMDDEDC@CEIL?$AA@ 000000018006e334     ta_libc_csr:table_c.obj
 0002:00003340       ??_C@_0M@JAFFGCD@Vector?5Ceil?$AA@ 000000018006e340     ta_libc_csr:table_c.obj
 0002:0000334c       ??_C@_04KEDIPJEO@Ceil?$AA@ 000000018006e34c     ta_libc_csr:table_c.obj
 0002:00003358       ??_C@_0BB@CEHABGKN@CDLDRAGONFLYDOJI?$AA@ 000000018006e358     ta_libc_csr:table_c.obj
 0002:00003370       ??_C@_0P@JCPBPFP@Dragonfly?5Doji?$AA@ 000000018006e370     ta_libc_csr:table_c.obj
 0002:00003380       ??_C@_0BB@GHGJFOGH@CdlDragonflyDoji?$AA@ 000000018006e380     ta_libc_csr:table_c.obj
 0002:00003394       ??_C@_03FILJJKGJ@CMO?$AA@  000000018006e394     ta_libc_csr:table_c.obj
 0002:00003398       ??_C@_0BL@CKLMIFFG@Chande?5Momentum?5Oscillator?$AA@ 000000018006e398     ta_libc_csr:table_c.obj
 0002:000033b4       ??_C@_03PFHAPICL@Cmo?$AA@  000000018006e3b4     ta_libc_csr:table_c.obj
 0002:000033b8       ??_C@_0N@KPIEFDGL@CDLENGULFING?$AA@ 000000018006e3b8     ta_libc_csr:table_c.obj
 0002:000033c8       ??_C@_0BC@EPGJLCJL@Engulfing?5Pattern?$AA@ 000000018006e3c8     ta_libc_csr:table_c.obj
 0002:000033e0       ??_C@_0N@EOIFDJGD@CdlEngulfing?$AA@ 000000018006e3e0     ta_libc_csr:table_c.obj
 0002:000033f0       ??_C@_06OADEODHM@CORREL?$AA@ 000000018006e3f0     ta_libc_csr:table_c.obj
 0002:000033f8       ??_C@_0CG@BKEMMKHK@Pearson?8s?5Correlation?5Coefficien@ 000000018006e3f8     ta_libc_csr:table_c.obj
 0002:00003420       ??_C@_06CLKCAEDC@Correl?$AA@ 000000018006e420     ta_libc_csr:table_c.obj
 0002:00003428       ??_C@_0BD@OEJDEMDO@CDLEVENINGDOJISTAR?$AA@ 000000018006e428     ta_libc_csr:table_c.obj
 0002:00003440       ??_C@_0BC@GGFOJIPB@Evening?5Doji?5Star?$AA@ 000000018006e440     ta_libc_csr:table_c.obj
 0002:00003458       ??_C@_0BD@IMMFAPDI@CdlEveningDojiStar?$AA@ 000000018006e458     ta_libc_csr:table_c.obj
 0002:0000346c       ??_C@_03LNEKBDFK@COS?$AA@  000000018006e46c     ta_libc_csr:table_c.obj
 0002:00003470       ??_C@_0BJ@HCJDEOKB@Vector?5Trigonometric?5Cos?$AA@ 000000018006e470     ta_libc_csr:table_c.obj
 0002:0000348c       ??_C@_03BAIDHBBI@Cos?$AA@  000000018006e48c     ta_libc_csr:table_c.obj
 0002:00003490       ??_C@_0P@CIDCGGKJ@CDLEVENINGSTAR?$AA@ 000000018006e490     ta_libc_csr:table_c.obj
 0002:000034a0       ??_C@_0N@MGBNHLPA@Evening?5Star?$AA@ 000000018006e4a0     ta_libc_csr:table_c.obj
 0002:000034b0       ??_C@_0P@CBIEMIKA@CdlEveningStar?$AA@ 000000018006e4b0     ta_libc_csr:table_c.obj
 0002:000034c0       ??_C@_04LDKDDHPE@COSH?$AA@ 000000018006e4c0     ta_libc_csr:table_c.obj
 0002:000034c8       ??_C@_0BK@MIHOBJP@Vector?5Trigonometric?5Cosh?$AA@ 000000018006e4c8     ta_libc_csr:table_c.obj
 0002:000034e4       ??_C@_04LOFIPKII@Cosh?$AA@ 000000018006e4e4     ta_libc_csr:table_c.obj
 0002:000034f0       ??_C@_0BE@MGFKIEN@CDLGAPSIDESIDEWHITE?$AA@ 000000018006e4f0     ta_libc_csr:table_c.obj
 0002:00003508       ??_C@_0CF@COGAFAOL@Up?1Down?9gap?5side?9by?9side?5white?5l@ 000000018006e508     ta_libc_csr:table_c.obj
 0002:00003530       ??_C@_0BE@LNIOAHEB@CdlGapSideSideWhite?$AA@ 000000018006e530     ta_libc_csr:table_c.obj
 0002:00003548       ??_C@_0BC@BIBDKBLC@CDLGRAVESTONEDOJI?$AA@ 000000018006e548     ta_libc_csr:table_c.obj
 0002:00003560       ??_C@_0BA@OKJJALFK@Gravestone?5Doji?$AA@ 000000018006e560     ta_libc_csr:table_c.obj
 0002:00003570       ??_C@_0BC@DAAIJNME@CdlGravestoneDoji?$AA@ 000000018006e570     ta_libc_csr:table_c.obj
 0002:00003588       ??_C@_09BAJFCALB@CDLHAMMER?$AA@ 000000018006e588     ta_libc_csr:table_c.obj
 0002:00003594       ??_C@_06CNCEEJPN@Hammer?$AA@ 000000018006e594     ta_libc_csr:table_c.obj
 0002:000035a0       ??_C@_09KAIECHAK@CdlHammer?$AA@ 000000018006e5a0     ta_libc_csr:table_c.obj
 0002:000035b0       ??_C@_0O@LPEAIHI@CDLHANGINGMAN?$AA@ 000000018006e5b0     ta_libc_csr:table_c.obj
 0002:000035c0       ??_C@_0M@MPDLJCNI@Hanging?5Man?$AA@ 000000018006e5c0     ta_libc_csr:table_c.obj
 0002:000035d0       ??_C@_0O@DAHIAKLM@CdlHangingMan?$AA@ 000000018006e5d0     ta_libc_csr:table_c.obj
 0002:000035e0       ??_C@_09BPNGAFHI@CDLHARAMI?$AA@ 000000018006e5e0     ta_libc_csr:table_c.obj
 0002:000035f0       ??_C@_0P@CFGFPKFK@Harami?5Pattern?$AA@ 000000018006e5f0     ta_libc_csr:table_c.obj
 0002:00003600       ??_C@_09KPMHACMD@CdlHarami?$AA@ 000000018006e600     ta_libc_csr:table_c.obj
 0002:00003610       ??_C@_0P@ENCGCOFM@CDLHARAMICROSS?$AA@ 000000018006e610     ta_libc_csr:table_c.obj
 0002:00003620       ??_C@_0BF@CNMAAFDK@Harami?5Cross?5Pattern?$AA@ 000000018006e620     ta_libc_csr:table_c.obj
 0002:00003638       ??_C@_0P@ICPNKKGH@CdlHaramiCross?$AA@ 000000018006e638     ta_libc_csr:table_c.obj
 0002:00003648       ??_C@_0M@FMFLKPDN@CDLHIGHWAVE?$AA@ 000000018006e648     ta_libc_csr:table_c.obj
 0002:00003658       ??_C@_0BB@ELLDEJMA@High?9Wave?5Candle?$AA@ 000000018006e658     ta_libc_csr:table_c.obj
 0002:00003670       ??_C@_0M@HPFPFDKH@CdlHignWave?$AA@ 000000018006e670     ta_libc_csr:table_c.obj
 0002:00003680       ??_C@_0L@MHBLPKAI@CDLHIKKAKE?$AA@ 000000018006e680     ta_libc_csr:table_c.obj
 0002:00003690       ??_C@_0BA@GBHCGCEP@Hikkake?5Pattern?$AA@ 000000018006e690     ta_libc_csr:table_c.obj
 0002:000036a0       ??_C@_0L@OJMKFKJ@CdlHikkake?$AA@ 000000018006e6a0     ta_libc_csr:table_c.obj
 0002:000036b0       ??_C@_0O@OMIIFBLI@CDLHIKKAKEMOD?$AA@ 000000018006e6b0     ta_libc_csr:table_c.obj
 0002:000036c0       ??_C@_0BJ@KIKKPHPL@Modified?5Hikkake?5Pattern?$AA@ 000000018006e6c0     ta_libc_csr:table_c.obj
 0002:000036e0       ??_C@_0O@NHAEFDHM@CdlHikkakeMod?$AA@ 000000018006e6e0     ta_libc_csr:table_c.obj
 0002:000036f0       ??_C@_0BA@IIJMLJPH@CDLHOMINGPIGEON?$AA@ 000000018006e6f0     ta_libc_csr:table_c.obj
 0002:00003700       ??_C@_0O@HFCIMOEK@Homing?5Pigeon?$AA@ 000000018006e700     ta_libc_csr:table_c.obj
 0002:00003710       ??_C@_0BA@KMNMKPPF@CdlHomingPigeon?$AA@ 000000018006e710     ta_libc_csr:table_c.obj
 0002:00003720       ??_C@_0BD@LKIJALFM@CDLIDENTICAL3CROWS?$AA@ 000000018006e720     ta_libc_csr:table_c.obj
 0002:00003738       ??_C@_0BG@MNHGOFOL@Identical?5Three?5Crows?$AA@ 000000018006e738     ta_libc_csr:table_c.obj
 0002:00003750       ??_C@_0BD@FJPONJFH@CdlIdentical3Crows?$AA@ 000000018006e750     ta_libc_csr:table_c.obj
 0002:00003768       ??_C@_09FKCNBOEF@CDLINNECK?$AA@ 000000018006e768     ta_libc_csr:table_c.obj
 0002:00003778       ??_C@_0BA@OEDNFCOM@In?9Neck?5Pattern?$AA@ 000000018006e778     ta_libc_csr:table_c.obj
 0002:00003788       ??_C@_09CLPNDGPK@CdlInNeck?$AA@ 000000018006e788     ta_libc_csr:table_c.obj
 0002:00003798       ??_C@_0BC@HFCHFKCM@CDLINVERTEDHAMMER?$AA@ 000000018006e798     ta_libc_csr:table_c.obj
 0002:000037b0       ??_C@_0BA@EIHHKKAK@Inverted?5Hammer?$AA@ 000000018006e7b0     ta_libc_csr:table_c.obj
 0002:000037c0       ??_C@_0BC@FDEAHAMC@CdlInvertedHammer?$AA@ 000000018006e7c0     ta_libc_csr:table_c.obj
 0002:000037d8       ??_C@_0L@FEIOPHAA@CDLKICKING?$AA@ 000000018006e7d8     ta_libc_csr:table_c.obj
 0002:000037e8       ??_C@_07LOFNGPHA@Kicking?$AA@ 000000018006e7e8     ta_libc_csr:table_c.obj
 0002:000037f0       ??_C@_0L@JNAJKIKB@CdlKicking?$AA@ 000000018006e7f0     ta_libc_csr:table_c.obj
 0002:00003800       ??_C@_0BD@JMNGJKIH@CDLKICKINGBYLENGTH?$AA@ 000000018006e800     ta_libc_csr:table_c.obj
 0002:00003818       ??_C@_0DG@DFLMDKGF@Kicking?5?9?5bull?1bear?5determined?5b@ 000000018006e818     ta_libc_csr:table_c.obj
 0002:00003850       ??_C@_0BD@PKPMMPBJ@CdlKickingByLength?$AA@ 000000018006e850     ta_libc_csr:table_c.obj
 0002:00003868       ??_C@_0BA@FLHJPEEJ@CDLLADDERBOTTOM?$AA@ 000000018006e868     ta_libc_csr:table_c.obj
 0002:00003878       ??_C@_0O@BMDICGCP@Ladder?5Bottom?$AA@ 000000018006e878     ta_libc_csr:table_c.obj
 0002:00003888       ??_C@_0BA@HPDJOCEL@CdlLadderBottom?$AA@ 000000018006e888     ta_libc_csr:table_c.obj
 0002:00003898       ??_C@_0BC@HJGMBCKJ@CDLLONGLEGGEDDOJI?$AA@ 000000018006e898     ta_libc_csr:table_c.obj
 0002:000038b0       ??_C@_0BB@HMACKNGE@Long?5Legged?5Doji?$AA@ 000000018006e8b0     ta_libc_csr:table_c.obj
 0002:000038c8       ??_C@_0BC@NHOLKBAI@CdlLongLeggedDoji?$AA@ 000000018006e8c8     ta_libc_csr:table_c.obj
 0002:000038e0       ??_C@_0M@GDKHHMAE@CDLLONGLINE?$AA@ 000000018006e8e0     ta_libc_csr:table_c.obj
 0002:000038f0       ??_C@_0BB@PPNAKNKH@Long?5Line?5Candle?$AA@ 000000018006e8f0     ta_libc_csr:table_c.obj
 0002:00003908       ??_C@_0M@JGPKGDID@CdlLongLine?$AA@ 000000018006e908     ta_libc_csr:table_c.obj
 0002:00003918       ??_C@_0M@EEIANHBP@CDLMARUBOZU?$AA@ 000000018006e918     ta_libc_csr:table_c.obj
 0002:00003928       ??_C@_08IBOLFBBJ@Marubozu?$AA@ 000000018006e928     ta_libc_csr:table_c.obj
 0002:00003938       ??_C@_0M@HABMOHJM@CdlMarubozu?$AA@ 000000018006e938     ta_libc_csr:table_c.obj
 0002:00003948       ??_C@_0P@MJPGDEDL@CDLMATCHINGLOW?$AA@ 000000018006e948     ta_libc_csr:table_c.obj
 0002:00003958       ??_C@_0N@BIGHMNBG@Matching?5Low?$AA@ 000000018006e958     ta_libc_csr:table_c.obj
 0002:00003968       ??_C@_0P@KBLDBKAI@CdlMatchingLow?$AA@ 000000018006e968     ta_libc_csr:table_c.obj
 0002:00003978       ??_C@_0L@PFLPCAGC@CDLMATHOLD?$AA@ 000000018006e978     ta_libc_csr:table_c.obj
 0002:00003988       ??_C@_08HOHLDGBA@Mat?5Hold?$AA@ 000000018006e988     ta_libc_csr:table_c.obj
 0002:00003998       ??_C@_0L@PNPJFAMH@CdlMatHold?$AA@ 000000018006e998     ta_libc_csr:table_c.obj
 0002:000039a8       ??_C@_0BD@KGOPMNPN@CDLMORNINGDOJISTAR?$AA@ 000000018006e9a8     ta_libc_csr:table_c.obj
 0002:000039c0       ??_C@_0BC@BMDGONLG@Morning?5Doji?5Star?$AA@ 000000018006e9c0     ta_libc_csr:table_c.obj
 0002:000039d8       ??_C@_0BD@MOLJIOPL@CdlMorningDojiStar?$AA@ 000000018006e9d8     ta_libc_csr:table_c.obj
 0002:000039f0       ??_C@_0P@DOPHHAII@CDLMORNINGSTAR?$AA@ 000000018006e9f0     ta_libc_csr:table_c.obj
 0002:00003a00       ??_C@_0N@IKGCKOLI@Morning?5Star?$AA@ 000000018006ea00     ta_libc_csr:table_c.obj
 0002:00003a10       ??_C@_0P@DHEBNOIB@CdlMorningStar?$AA@ 000000018006ea10     ta_libc_csr:table_c.obj
 0002:00003a20       ??_C@_03EHNBAOF@CCI?$AA@   000000018006ea20     ta_libc_csr:table_c.obj
 0002:00003a28       ??_C@_0BI@CBFGLBIP@Commodity?5Channel?5Index?$AA@ 000000018006ea28     ta_libc_csr:table_c.obj
 0002:00003a40       ??_C@_03KJLEHCKH@Cci?$AA@  000000018006ea40     ta_libc_csr:table_c.obj
 0002:00003a48       ??_C@_09DJPNCLHP@CDLONNECK?$AA@ 000000018006ea48     ta_libc_csr:table_c.obj
 0002:00003a58       ??_C@_0BA@LHKMDLAI@On?9Neck?5Pattern?$AA@ 000000018006ea58     ta_libc_csr:table_c.obj
 0002:00003a68       ??_C@_09EICNADMA@CdlOnNeck?$AA@ 000000018006ea68     ta_libc_csr:table_c.obj
 0002:00003a74       ??_C@_03FJGHKDBE@DIV?$AA@  000000018006ea74     ta_libc_csr:table_d.obj
 0002:00003a78       ??_C@_0BG@FCMNGOOI@Vector?5Arithmetic?5Div?$AA@ 000000018006ea78     ta_libc_csr:table_d.obj
 0002:00003a90       ??_C@_03PEKOMBFG@Div?$AA@  000000018006ea90     ta_libc_csr:table_d.obj
 0002:00003a98       TA_DEF_DX                  000000018006ea98     ta_libc_csr:table_d.obj
 0002:00003ad0       TA_DEF_TableDSize          000000018006ead0     ta_libc_csr:table_d.obj
 0002:00003ad8       TA_DEF_DEMA                000000018006ead8     ta_libc_csr:table_d.obj
 0002:00003b10       TA_DEF_DIV                 000000018006eb10     ta_libc_csr:table_d.obj
 0002:00003b48       ??_C@_02FEPNEKN@DX?$AA@    000000018006eb48     ta_libc_csr:table_d.obj
 0002:00003b50       ??_C@_0BL@OMEFOANN@Directional?5Movement?5Index?$AA@ 000000018006eb50     ta_libc_csr:table_d.obj
 0002:00003b6c       ??_C@_02JAMLPAAP@Dx?$AA@   000000018006eb6c     ta_libc_csr:table_d.obj
 0002:00003b70       ??_C@_0CC@MCPKDGBK@Double?5Exponential?5Moving?5Averag@ 000000018006eb70     ta_libc_csr:table_d.obj
 0002:00003b94       ??_C@_04KELPPDMP@Dema?$AA@ 000000018006eb94     ta_libc_csr:table_d.obj
 0002:00003b9c       ??_C@_03KKGFKKLA@EXP?$AA@  000000018006eb9c     ta_libc_csr:table_e.obj
 0002:00003ba0       ??_C@_0BG@KBMPGHEM@Vector?5Arithmetic?5Exp?$AA@ 000000018006eba0     ta_libc_csr:table_e.obj
 0002:00003bb8       ??_C@_03HKMMIPC@Exp?$AA@   000000018006ebb8     ta_libc_csr:table_e.obj
 0002:00003bc0       TA_DEF_TableESize          000000018006ebc0     ta_libc_csr:table_e.obj
 0002:00003bc8       TA_DEF_EMA                 000000018006ebc8     ta_libc_csr:table_e.obj
 0002:00003c00       TA_DEF_EXP                 000000018006ec00     ta_libc_csr:table_e.obj
 0002:00003c38       ??_C@_0BL@JNNPJOAD@Exponential?5Moving?5Average?$AA@ 000000018006ec38     ta_libc_csr:table_e.obj
 0002:00003c54       ??_C@_03EOJIIKHJ@Ema?$AA@  000000018006ec54     ta_libc_csr:table_e.obj
 0002:00003c58       TA_DEF_FLOOR               000000018006ec58     ta_libc_csr:table_f.obj
 0002:00003c90       TA_DEF_TableFSize          000000018006ec90     ta_libc_csr:table_f.obj
 0002:00003c94       ??_C@_05DKADLPCF@FLOOR?$AA@ 000000018006ec94     ta_libc_csr:table_f.obj
 0002:00003ca0       ??_C@_0N@MFJHHNBH@Vector?5Floor?$AA@ 000000018006eca0     ta_libc_csr:table_f.obj
 0002:00003cb0       ??_C@_05PGDJFNFN@Floor?$AA@ 000000018006ecb0     ta_libc_csr:table_f.obj
 0002:00003cb8       TA_DEF_TableGSize          000000018006ecb8     ta_libc_csr:table_g.obj
 0002:00003cc0       ??_C@_0L@JJICLCFB@HT_DCPHASE?$AA@ 000000018006ecc0     ta_libc_csr:table_h.obj
 0002:00003cd0       ??_C@_0CJ@CHKHPLPC@Hilbert?5Transform?5?9?5Dominant?5Cyc@ 000000018006ecd0     ta_libc_csr:table_h.obj
 0002:00003d00       ??_C@_09EDLFDFJN@HtDcPhase?$AA@ 000000018006ed00     ta_libc_csr:table_h.obj
 0002:00003d10       TA_DEF_UI_Output_Real_InPhase 000000018006ed10     ta_libc_csr:table_h.obj
 0002:00003d28       TA_DEF_UI_Output_Real_Quadrature 000000018006ed28     ta_libc_csr:table_h.obj
 0002:00003d40       TA_DEF_HT_PHASOR           000000018006ed40     ta_libc_csr:table_h.obj
 0002:00003d78       TA_DEF_UI_Output_Real_Sine 000000018006ed78     ta_libc_csr:table_h.obj
 0002:00003d90       TA_DEF_UI_Output_Real_LeadSine 000000018006ed90     ta_libc_csr:table_h.obj
 0002:00003da8       TA_DEF_HT_SINE             000000018006eda8     ta_libc_csr:table_h.obj
 0002:00003de0       TA_DEF_HT_TRENDLINE        000000018006ede0     ta_libc_csr:table_h.obj
 0002:00003e18       TA_DEF_HT_TRENDMODE        000000018006ee18     ta_libc_csr:table_h.obj
 0002:00003e50       TA_DEF_TableHSize          000000018006ee50     ta_libc_csr:table_h.obj
 0002:00003e58       TA_DEF_HT_DCPERIOD         000000018006ee58     ta_libc_csr:table_h.obj
 0002:00003e90       TA_DEF_HT_DCPHASE          000000018006ee90     ta_libc_csr:table_h.obj
 0002:00003ec8       ??_C@_0L@GPELPDGA@outInPhase?$AA@ 000000018006eec8     ta_libc_csr:table_h.obj
 0002:00003ed8       ??_C@_0O@GFGAJHOF@outQuadrature?$AA@ 000000018006eed8     ta_libc_csr:table_h.obj
 0002:00003ee8       ??_C@_09LNBOGEOF@HT_PHASOR?$AA@ 000000018006eee8     ta_libc_csr:table_h.obj
 0002:00003ef8       ??_C@_0CG@JHDMDJPA@Hilbert?5Transform?5?9?5Phasor?5Compo@ 000000018006eef8     ta_libc_csr:table_h.obj
 0002:00003f20       ??_C@_08BAIOHHEC@HtPhasor?$AA@ 000000018006ef20     ta_libc_csr:table_h.obj
 0002:00003f30       ??_C@_07NOKLFGIA@outSine?$AA@ 000000018006ef30     ta_libc_csr:table_h.obj
 0002:00003f38       ??_C@_0M@NDGMDBDB@outLeadSine?$AA@ 000000018006ef38     ta_libc_csr:table_h.obj
 0002:00003f48       ??_C@_07CEECDHGO@HT_SINE?$AA@ 000000018006ef48     ta_libc_csr:table_h.obj
 0002:00003f50       ??_C@_0BN@ICDPAFBH@Hilbert?5Transform?5?9?5SineWave?$AA@ 000000018006ef50     ta_libc_csr:table_h.obj
 0002:00003f70       ??_C@_06OGJKCABC@HtSine?$AA@ 000000018006ef70     ta_libc_csr:table_h.obj
 0002:00003f78       ??_C@_0N@ECPAMPEK@HT_TRENDLINE?$AA@ 000000018006ef78     ta_libc_csr:table_h.obj
 0002:00003f88       ??_C@_0CM@PEKHMGN@Hilbert?5Transform?5?9?5Instantaneou@ 000000018006ef88     ta_libc_csr:table_h.obj
 0002:00003fb8       ??_C@_0M@CNMJLKI@HtTrendline?$AA@ 000000018006efb8     ta_libc_csr:table_h.obj
 0002:00003fc8       ??_C@_0N@FHGMDMPA@HT_TRENDMODE?$AA@ 000000018006efc8     ta_libc_csr:table_h.obj
 0002:00003fd8       ??_C@_0CI@NLNBDNPM@Hilbert?5Transform?5?9?5Trend?5vs?5Cyc@ 000000018006efd8     ta_libc_csr:table_h.obj
 0002:00004000       ??_C@_0M@NGIBEHBG@HtTrendMode?$AA@ 000000018006f000     ta_libc_csr:table_h.obj
 0002:00004010       ??_C@_0M@CBANKFHA@HT_DCPERIOD?$AA@ 000000018006f010     ta_libc_csr:table_h.obj
 0002:00004020       ??_C@_0CK@PLOIFGMJ@Hilbert?5Transform?5?9?5Dominant?5Cyc@ 000000018006f020     ta_libc_csr:table_h.obj
 0002:00004050       ??_C@_0L@CGIBDIMO@HtDcPeriod?$AA@ 000000018006f050     ta_libc_csr:table_h.obj
 0002:00004060       TA_DEF_IMI                 000000018006f060     ta_libc_csr:table_i.obj
 0002:00004098       TA_DEF_TableISize          000000018006f098     ta_libc_csr:table_i.obj
 0002:0000409c       ??_C@_03GBFONNIL@IMI?$AA@  000000018006f09c     ta_libc_csr:table_i.obj
 0002:000040a0       ??_C@_0BI@KPCFLLNC@Intraday?5Momentum?5Index?$AA@ 000000018006f0a0     ta_libc_csr:table_i.obj
 0002:000040b8       ??_C@_03MMJHLPMJ@Imi?$AA@  000000018006f0b8     ta_libc_csr:table_i.obj
 0002:000040bc       TA_DEF_TableJSize          000000018006f0bc     ta_libc_csr:table_j.obj
 0002:000040c0       TA_DEF_KAMA                000000018006f0c0     ta_libc_csr:table_k.obj
 0002:000040f8       TA_DEF_TableKSize          000000018006f0f8     ta_libc_csr:table_k.obj
 0002:00004100       ??_C@_0CA@FDPPKADE@Kaufman?5Adaptive?5Moving?5Average?$AA@ 000000018006f100     ta_libc_csr:table_k.obj
 0002:00004120       ??_C@_04KJINPDEJ@Kama?$AA@ 000000018006f120     ta_libc_csr:table_k.obj
 0002:00004128       ??_C@_0BA@GNPILCCE@LINEARREG_SLOPE?$AA@ 000000018006f128     ta_libc_csr:table_l.obj
 0002:00004138       ??_C@_0BI@FEONDCKI@Linear?5Regression?5Slope?$AA@ 000000018006f138     ta_libc_csr:table_l.obj
 0002:00004150       ??_C@_0P@NBPDMKPF@LinearRegSlope?$AA@ 000000018006f150     ta_libc_csr:table_l.obj
 0002:00004160       TA_DEF_LINEARREG_ANGLE     000000018006f160     ta_libc_csr:table_l.obj
 0002:00004198       TA_DEF_LINEARREG_INTERCEPT 000000018006f198     ta_libc_csr:table_l.obj
 0002:000041d0       TA_DEF_LN                  000000018006f1d0     ta_libc_csr:table_l.obj
 0002:00004208       TA_DEF_LOG10               000000018006f208     ta_libc_csr:table_l.obj
 0002:00004240       TA_DEF_TableLSize          000000018006f240     ta_libc_csr:table_l.obj
 0002:00004248       TA_DEF_LINEARREG           000000018006f248     ta_libc_csr:table_l.obj
 0002:00004280       TA_DEF_LINEARREG_SLOPE     000000018006f280     ta_libc_csr:table_l.obj
 0002:000042b8       ??_C@_0BA@IJKODACP@LINEARREG_ANGLE?$AA@ 000000018006f2b8     ta_libc_csr:table_l.obj
 0002:000042c8       ??_C@_0BI@LALLLAKD@Linear?5Regression?5Angle?$AA@ 000000018006f2c8     ta_libc_csr:table_l.obj
 0002:000042e0       ??_C@_0P@DFKFEIPO@LinearRegAngle?$AA@ 000000018006f2e0     ta_libc_csr:table_l.obj
 0002:000042f0       ??_C@_0BE@BDIAMNKB@LINEARREG_INTERCEPT?$AA@ 000000018006f2f0     ta_libc_csr:table_l.obj
 0002:00004308       ??_C@_0BM@PBLAFDMG@Linear?5Regression?5Intercept?$AA@ 000000018006f308     ta_libc_csr:table_l.obj
 0002:00004328       ??_C@_0BD@DKJDOOKB@LinearRegIntercept?$AA@ 000000018006f328     ta_libc_csr:table_l.obj
 0002:0000433c       ??_C@_02BHMEDAMC@LN?$AA@   000000018006f33c     ta_libc_csr:table_l.obj
 0002:00004340       ??_C@_0BD@NGACFFAJ@Vector?5Log?5Natural?$AA@ 000000018006f340     ta_libc_csr:table_l.obj
 0002:00004354       ??_C@_02ICEABEGA@Ln?$AA@   000000018006f354     ta_libc_csr:table_l.obj
 0002:00004358       ??_C@_05BACIICAD@LOG10?$AA@ 000000018006f358     ta_libc_csr:table_l.obj
 0002:00004360       ??_C@_0N@ECHFCCHD@Vector?5Log10?$AA@ 000000018006f360     ta_libc_csr:table_l.obj
 0002:00004370       ??_C@_05HBNLACDJ@Log10?$AA@ 000000018006f370     ta_libc_csr:table_l.obj
 0002:00004378       ??_C@_09OOFMFLFI@LINEARREG?$AA@ 000000018006f378     ta_libc_csr:table_l.obj
 0002:00004388       ??_C@_0BC@ECAIDDPJ@Linear?5Regression?$AA@ 000000018006f388     ta_libc_csr:table_l.obj
 0002:000043a0       ??_C@_09DBMCMKEB@LinearReg?$AA@ 000000018006f3a0     ta_libc_csr:table_l.obj
 0002:000043ac       ??_C@_02JBJOEGDK@MA?$AA@   000000018006f3ac     ta_libc_csr:table_m.obj
 0002:000043b0       ??_C@_0P@EGEIKBLB@Moving?5average?$AA@ 000000018006f3b0     ta_libc_csr:table_m.obj
 0002:000043c0       ??_C@_0O@IBGKICPL@MovingAverage?$AA@ 000000018006f3c0     ta_libc_csr:table_m.obj
 0002:000043d0       TA_DEF_UI_Output_Real_MACD 000000018006f3d0     ta_libc_csr:table_m.obj
 0002:000043e8       TA_DEF_UI_Output_Real_MACDSignal 000000018006f3e8     ta_libc_csr:table_m.obj
 0002:00004400       TA_DEF_UI_Output_Real_MACDHist 000000018006f400     ta_libc_csr:table_m.obj
 0002:00004418       TA_DEF_MACD                000000018006f418     ta_libc_csr:table_m.obj
 0002:00004450       TA_DEF_MACDEXT             000000018006f450     ta_libc_csr:table_m.obj
 0002:00004488       TA_DEF_MACDFIX             000000018006f488     ta_libc_csr:table_m.obj
 0002:000044c0       TA_DEF_MAMA_FastLimit      000000018006f4c0     ta_libc_csr:table_m.obj
 0002:000044f0       TA_DEF_MAMA_SlowLimit      000000018006f4f0     ta_libc_csr:table_m.obj
 0002:00004520       TA_DEF_UI_MAMA_FastLimit   000000018006f520     ta_libc_csr:table_m.obj
 0002:00004560       TA_DEF_UI_MAMA_SlowLimit   000000018006f560     ta_libc_csr:table_m.obj
 0002:000045a0       TA_DEF_UI_Output_Real_MAMA 000000018006f5a0     ta_libc_csr:table_m.obj
 0002:000045b8       TA_DEF_UI_Output_Real_FAMA 000000018006f5b8     ta_libc_csr:table_m.obj
 0002:000045d0       TA_DEF_MAMA                000000018006f5d0     ta_libc_csr:table_m.obj
 0002:00004608       TA_DEF_MAVP                000000018006f608     ta_libc_csr:table_m.obj
 0002:00004640       TA_DEF_MAX                 000000018006f640     ta_libc_csr:table_m.obj
 0002:00004678       TA_DEF_MAXINDEX            000000018006f678     ta_libc_csr:table_m.obj
 0002:000046b0       TA_DEF_MEDPRICE            000000018006f6b0     ta_libc_csr:table_m.obj
 0002:000046e8       TA_DEF_MFI                 000000018006f6e8     ta_libc_csr:table_m.obj
 0002:00004720       TA_DEF_MIDPRICE            000000018006f720     ta_libc_csr:table_m.obj
 0002:00004758       TA_DEF_MIDPOINT            000000018006f758     ta_libc_csr:table_m.obj
 0002:00004790       TA_DEF_MIN                 000000018006f790     ta_libc_csr:table_m.obj
 0002:000047c8       TA_DEF_MININDEX            000000018006f7c8     ta_libc_csr:table_m.obj
 0002:00004800       TA_DEF_UI_Output_Real_Min  000000018006f800     ta_libc_csr:table_m.obj
 0002:00004818       TA_DEF_UI_Output_Real_Max  000000018006f818     ta_libc_csr:table_m.obj
 0002:00004830       TA_DEF_MINMAX              000000018006f830     ta_libc_csr:table_m.obj
 0002:00004868       TA_DEF_UI_Output_Integer_MinIdx 000000018006f868     ta_libc_csr:table_m.obj
 0002:00004880       TA_DEF_UI_Output_Integer_MaxIdx 000000018006f880     ta_libc_csr:table_m.obj
 0002:00004898       TA_DEF_MINMAXINDEX         000000018006f898     ta_libc_csr:table_m.obj
 0002:000048d0       TA_DEF_MINUS_DI            000000018006f8d0     ta_libc_csr:table_m.obj
 0002:00004908       TA_DEF_MINUS_DM            000000018006f908     ta_libc_csr:table_m.obj
 0002:00004940       TA_DEF_MOM                 000000018006f940     ta_libc_csr:table_m.obj
 0002:00004978       TA_DEF_MULT                000000018006f978     ta_libc_csr:table_m.obj
 0002:000049b0       TA_DEF_TableMSize          000000018006f9b0     ta_libc_csr:table_m.obj
 0002:000049c0       TA_DEF_UI_Signal_Period    000000018006f9c0     ta_libc_csr:table_m.obj
 0002:00004a00       TA_DEF_UI_Slow_MA_Type     000000018006fa00     ta_libc_csr:table_m.obj
 0002:00004a40       TA_DEF_UI_Fast_MA_Type     000000018006fa40     ta_libc_csr:table_m.obj
 0002:00004a80       TA_DEF_UI_Signal_MA_Type   000000018006fa80     ta_libc_csr:table_m.obj
 0002:00004ac0       TA_DEF_MA                  000000018006fac0     ta_libc_csr:table_m.obj
 0002:00004af8       ??_C@_07NIPHDIOC@outMACD?$AA@ 000000018006faf8     ta_libc_csr:table_m.obj
 0002:00004b00       ??_C@_0O@BPIGAADB@outMACDSignal?$AA@ 000000018006fb00     ta_libc_csr:table_m.obj
 0002:00004b10       ??_C@_0M@LGLCNBPN@outMACDHist?$AA@ 000000018006fb10     ta_libc_csr:table_m.obj
 0002:00004b1c       ??_C@_04FMNPBCNK@MACD?$AA@ 000000018006fb1c     ta_libc_csr:table_m.obj
 0002:00004b28       ??_C@_0CG@IFGBCBNG@Moving?5Average?5Convergence?1Diver@ 000000018006fb28     ta_libc_csr:table_m.obj
 0002:00004b50       ??_C@_04FBCENPKG@Macd?$AA@ 000000018006fb50     ta_libc_csr:table_m.obj
 0002:00004b58       ??_C@_07PODEEAHL@MACDEXT?$AA@ 000000018006fb58     ta_libc_csr:table_m.obj
 0002:00004b60       ??_C@_0BP@CIHFGKBE@MACD?5with?5controllable?5MA?5type?$AA@ 000000018006fb60     ta_libc_csr:table_m.obj
 0002:00004b80       ??_C@_07FKCNDBJH@MacdExt?$AA@ 000000018006fb80     ta_libc_csr:table_m.obj
 0002:00004b88       ??_C@_07FNNAGJNO@MACDFIX?$AA@ 000000018006fb88     ta_libc_csr:table_m.obj
 0002:00004b90       ??_C@_0DA@BGHPFAOF@Moving?5Average?5Convergence?1Diver@ 000000018006fb90     ta_libc_csr:table_m.obj
 0002:00004bc0       ??_C@_07PJMJBIDC@MacdFix?$AA@ 000000018006fbc0     ta_libc_csr:table_m.obj
 0002:00004bc8       ??_C@_0P@MKDFNDIN@optInFastLimit?$AA@ 000000018006fbc8     ta_libc_csr:table_m.obj
 0002:00004bd8       ??_C@_0L@JDIIBHLP@Fast?5Limit?$AA@ 000000018006fbd8     ta_libc_csr:table_m.obj
 0002:00004be8       ??_C@_0CK@BMEPEHIK@Upper?5limit?5use?5in?5the?5adaptive?5@ 000000018006fbe8     ta_libc_csr:table_m.obj
 0002:00004c18       ??_C@_0P@OAABEAIP@optInSlowLimit?$AA@ 000000018006fc18     ta_libc_csr:table_m.obj
 0002:00004c28       ??_C@_0L@HNKMECAA@Slow?5Limit?$AA@ 000000018006fc28     ta_libc_csr:table_m.obj
 0002:00004c38       ??_C@_0CK@NPJKDAFK@Lower?5limit?5use?5in?5the?5adaptive?5@ 000000018006fc38     ta_libc_csr:table_m.obj
 0002:00004c68       ??_C@_07KPBOOBKN@outMAMA?$AA@ 000000018006fc68     ta_libc_csr:table_m.obj
 0002:00004c70       ??_C@_07NIMONALM@outFAMA?$AA@ 000000018006fc70     ta_libc_csr:table_m.obj
 0002:00004c78       ??_C@_0BN@IHDEHCHO@MESA?5Adaptive?5Moving?5Average?$AA@ 000000018006fc78     ta_libc_csr:table_m.obj
 0002:00004c98       ??_C@_04CGMNAGOJ@Mama?$AA@ 000000018006fc98     ta_libc_csr:table_m.obj
 0002:00004ca0       ??_C@_04GIJMKEBE@MAVP?$AA@ 000000018006fca0     ta_libc_csr:table_m.obj
 0002:00004ca8       ??_C@_0CE@JNNBHNMK@Moving?5average?5with?5variable?5per@ 000000018006fca8     ta_libc_csr:table_m.obj
 0002:00004cd0       ??_C@_0BM@NKCEEHPF@MovingAverageVariablePeriod?$AA@ 000000018006fcd0     ta_libc_csr:table_m.obj
 0002:00004cec       ??_C@_03LEPPJAKI@MAX?$AA@  000000018006fcec     ta_libc_csr:table_m.obj
 0002:00004cf0       ??_C@_0CG@OHMMACEJ@Highest?5value?5over?5a?5specified?5p@ 000000018006fcf0     ta_libc_csr:table_m.obj
 0002:00004d18       ??_C@_03BJDGPCOK@Max?$AA@  000000018006fd18     ta_libc_csr:table_m.obj
 0002:00004d20       ??_C@_08BMPHIADD@MAXINDEX?$AA@ 000000018006fd20     ta_libc_csr:table_m.obj
 0002:00004d30       ??_C@_0CP@GJKDDLDF@Index?5of?5highest?5value?5over?5a?5sp@ 000000018006fd30     ta_libc_csr:table_m.obj
 0002:00004d60       ??_C@_08OGAGDJIB@MaxIndex?$AA@ 000000018006fd60     ta_libc_csr:table_m.obj
 0002:00004d70       ??_C@_08LAIBJJNA@MEDPRICE?$AA@ 000000018006fd70     ta_libc_csr:table_m.obj
 0002:00004d80       ??_C@_0N@KNEJGOAI@Median?5Price?$AA@ 000000018006fd80     ta_libc_csr:table_m.obj
 0002:00004d90       ??_C@_08EKHACAGC@MedPrice?$AA@ 000000018006fd90     ta_libc_csr:table_m.obj
 0002:00004d9c       ??_C@_03OCGJKFDN@MFI?$AA@  000000018006fd9c     ta_libc_csr:table_m.obj
 0002:00004da0       ??_C@_0BB@EABPODIE@Money?5Flow?5Index?$AA@ 000000018006fda0     ta_libc_csr:table_m.obj
 0002:00004db4       ??_C@_03EPKAMHHP@Mfi?$AA@  000000018006fdb4     ta_libc_csr:table_m.obj
 0002:00004db8       ??_C@_08OHCOIMJP@MIDPRICE?$AA@ 000000018006fdb8     ta_libc_csr:table_m.obj
 0002:00004dc8       ??_C@_0BL@OJEBLJFG@Midpoint?5Price?5over?5period?$AA@ 000000018006fdc8     ta_libc_csr:table_m.obj
 0002:00004de8       ??_C@_08BNNPDFCN@MidPrice?$AA@ 000000018006fde8     ta_libc_csr:table_m.obj
 0002:00004df8       ??_C@_08CEFPGPOP@MIDPOINT?$AA@ 000000018006fdf8     ta_libc_csr:table_m.obj
 0002:00004e08       ??_C@_0BF@PCNPNIIE@MidPoint?5over?5period?$AA@ 000000018006fe08     ta_libc_csr:table_m.obj
 0002:00004e20       ??_C@_08NOKONGFN@MidPoint?$AA@ 000000018006fe20     ta_libc_csr:table_m.obj
 0002:00004e2c       ??_C@_03KGHEHEMH@MIN?$AA@  000000018006fe2c     ta_libc_csr:table_m.obj
 0002:00004e30       ??_C@_0CF@ILFABKHO@Lowest?5value?5over?5a?5specified?5pe@ 000000018006fe30     ta_libc_csr:table_m.obj
 0002:00004e58       ??_C@_03LLNBGIF@Min?$AA@   000000018006fe58     ta_libc_csr:table_m.obj
 0002:00004e60       ??_C@_08MLBMDCHC@MININDEX?$AA@ 000000018006fe60     ta_libc_csr:table_m.obj
 0002:00004e70       ??_C@_0CO@FKIGJPOD@Index?5of?5lowest?5value?5over?5a?5spe@ 000000018006fe70     ta_libc_csr:table_m.obj
 0002:00004ea0       ??_C@_08DBONILMA@MinIndex?$AA@ 000000018006fea0     ta_libc_csr:table_m.obj
 0002:00004eac       ??_C@_06JNNGPAJG@outMin?$AA@ 000000018006feac     ta_libc_csr:table_m.obj
 0002:00004eb4       ??_C@_06IPFNBEPJ@outMax?$AA@ 000000018006feb4     ta_libc_csr:table_m.obj
 0002:00004ebc       ??_C@_06OCJPDJPP@MINMAX?$AA@ 000000018006febc     ta_libc_csr:table_m.obj
 0002:00004ec8       ??_C@_0DC@CJCPJPIL@Lowest?5and?5highest?5values?5over?5a@ 000000018006fec8     ta_libc_csr:table_m.obj
 0002:00004efc       ??_C@_06IJDLHBIP@MinMax?$AA@ 000000018006fefc     ta_libc_csr:table_m.obj
 0002:00004f08       ??_C@_09MMLGNFDG@outMinIdx?$AA@ 000000018006ff08     ta_libc_csr:table_m.obj
 0002:00004f18       ??_C@_09MPEFDFHJ@outMaxIdx?$AA@ 000000018006ff18     ta_libc_csr:table_m.obj
 0002:00004f28       ??_C@_0M@CJBPEJF@MINMAXINDEX?$AA@ 000000018006ff28     ta_libc_csr:table_m.obj
 0002:00004f38       ??_C@_0DN@DKOLHFLL@Indexes?5of?5lowest?5and?5highest?5va@ 000000018006ff38     ta_libc_csr:table_m.obj
 0002:00004f78       ??_C@_0M@DBKBMBCA@MinMaxIndex?$AA@ 000000018006ff78     ta_libc_csr:table_m.obj
 0002:00004f88       ??_C@_08PCHLDKBI@MINUS_DI?$AA@ 000000018006ff88     ta_libc_csr:table_m.obj
 0002:00004f98       ??_C@_0BM@JPCLHLPB@Minus?5Directional?5Indicator?$AA@ 000000018006ff98     ta_libc_csr:table_m.obj
 0002:00004fb8       ??_C@_07BKAFCBCL@MinusDI?$AA@ 000000018006ffb8     ta_libc_csr:table_m.obj
 0002:00004fc0       ??_C@_08JGBHPPBM@MINUS_DM?$AA@ 000000018006ffc0     ta_libc_csr:table_m.obj
 0002:00004fd0       ??_C@_0BL@LEIEJMFC@Minus?5Directional?5Movement?$AA@ 000000018006ffd0     ta_libc_csr:table_m.obj
 0002:00004ff0       ??_C@_07HOGJOECP@MinusDM?$AA@ 000000018006fff0     ta_libc_csr:table_m.obj
 0002:00004ff8       ??_C@_03IJNEFLLG@MOM?$AA@  000000018006fff8     ta_libc_csr:table_m.obj
 0002:00005000       ??_C@_08MNIOEPGM@Momentum?$AA@ 0000000180070000     ta_libc_csr:table_m.obj
 0002:0000500c       ??_C@_03CEBNDJPE@Mom?$AA@  000000018007000c     ta_libc_csr:table_m.obj
 0002:00005010       ??_C@_04MCDKIHHO@MULT?$AA@ 0000000180070010     ta_libc_csr:table_m.obj
 0002:00005018       ??_C@_0BH@ODLOLHCG@Vector?5Arithmetic?5Mult?$AA@ 0000000180070018     ta_libc_csr:table_m.obj
 0002:00005030       ??_C@_04MPMBEKAC@Mult?$AA@ 0000000180070030     ta_libc_csr:table_m.obj
 0002:00005038       ??_C@_0BC@JKJABPFH@optInSignalPeriod?$AA@ 0000000180070038     ta_libc_csr:table_m.obj
 0002:00005050       ??_C@_0O@CDOOKBBP@Signal?5Period?$AA@ 0000000180070050     ta_libc_csr:table_m.obj
 0002:00005060       ??_C@_0CN@ICNIDOLG@Smoothing?5for?5the?5signal?5line?5?$CIn@ 0000000180070060     ta_libc_csr:table_m.obj
 0002:00005090       ??_C@_0BA@NDMEKJEI@optInSlowMAType?$AA@ 0000000180070090     ta_libc_csr:table_m.obj
 0002:000050a0       ??_C@_07IOCALMJL@Slow?5MA?$AA@ 00000001800700a0     ta_libc_csr:table_m.obj
 0002:000050a8       ??_C@_0CD@HOIEOFK@Type?5of?5Moving?5Average?5for?5slow?5@ 00000001800700a8     ta_libc_csr:table_m.obj
 0002:000050d0       ??_C@_0BA@DNOAPMPH@optInFastMAType?$AA@ 00000001800700d0     ta_libc_csr:table_m.obj
 0002:000050e0       ??_C@_07OIBIFKCE@Fast?5MA?$AA@ 00000001800700e0     ta_libc_csr:table_m.obj
 0002:000050e8       ??_C@_0CD@GBNAKIOF@Type?5of?5Moving?5Average?5for?5fast?5@ 00000001800700e8     ta_libc_csr:table_m.obj
 0002:00005110       ??_C@_0BC@BAFNPNEO@optInSignalMAType?$AA@ 0000000180070110     ta_libc_csr:table_m.obj
 0002:00005128       ??_C@_09BBEJIKHN@Signal?5MA?$AA@ 0000000180070128     ta_libc_csr:table_m.obj
 0002:00005138       ??_C@_0CH@LLOOMMHO@Type?5of?5Moving?5Average?5for?5signa@ 0000000180070138     ta_libc_csr:table_m.obj
 0002:00005160       TA_DEF_NATR                0000000180070160     ta_libc_csr:table_n.obj
 0002:00005198       TA_DEF_TableNSize          0000000180070198     ta_libc_csr:table_n.obj
 0002:0000519c       ??_C@_04BOIOGICI@NATR?$AA@ 000000018007019c     ta_libc_csr:table_n.obj
 0002:000051a8       ??_C@_0BO@GPHKPPHI@Normalized?5Average?5True?5Range?$AA@ 00000001800701a8     ta_libc_csr:table_n.obj
 0002:000051c8       ??_C@_04BDHFKFFE@Natr?$AA@ 00000001800701c8     ta_libc_csr:table_n.obj
 0002:000051d0       TA_DEF_OBV                 00000001800701d0     ta_libc_csr:table_o.obj
 0002:00005208       TA_DEF_TableOSize          0000000180070208     ta_libc_csr:table_o.obj
 0002:0000520c       ??_C@_03ICDDMLPE@OBV?$AA@  000000018007020c     ta_libc_csr:table_o.obj
 0002:00005210       ??_C@_0BC@JDAIBPKP@On?5Balance?5Volume?$AA@ 0000000180070210     ta_libc_csr:table_o.obj
 0002:00005224       ??_C@_03CPPKKJLG@Obv?$AA@  0000000180070224     ta_libc_csr:table_o.obj
 0002:00005228       ??_C@_07MOIKOLKC@PLUS_DM?$AA@ 0000000180070228     ta_libc_csr:table_p.obj
 0002:00005230       ??_C@_0BK@GJCLDLPH@Plus?5Directional?5Movement?$AA@ 0000000180070230     ta_libc_csr:table_p.obj
 0002:0000524c       ??_C@_06EEIMHCIO@PlusDM?$AA@ 000000018007024c     ta_libc_csr:table_p.obj
 0002:00005258       TA_DEF_PPO                 0000000180070258     ta_libc_csr:table_p.obj
 0002:00005290       TA_DEF_TablePSize          0000000180070290     ta_libc_csr:table_p.obj
 0002:00005298       TA_DEF_PLUS_DI             0000000180070298     ta_libc_csr:table_p.obj
 0002:000052d0       TA_DEF_PLUS_DM             00000001800702d0     ta_libc_csr:table_p.obj
 0002:00005308       ??_C@_03OOLFCDL@PPO?$AA@   0000000180070308     ta_libc_csr:table_p.obj
 0002:00005310       ??_C@_0BM@IHDFHEND@Percentage?5Price?5Oscillator?$AA@ 0000000180070310     ta_libc_csr:table_p.obj
 0002:0000532c       ??_C@_03KDCCDAHJ@Ppo?$AA@  000000018007032c     ta_libc_csr:table_p.obj
 0002:00005330       ??_C@_07KKOGCOKG@PLUS_DI?$AA@ 0000000180070330     ta_libc_csr:table_p.obj
 0002:00005338       ??_C@_0BL@DJEKIDDB@Plus?5Directional?5Indicator?$AA@ 0000000180070338     ta_libc_csr:table_p.obj
 0002:00005354       ??_C@_06CAOALHIK@PlusDI?$AA@ 0000000180070354     ta_libc_csr:table_p.obj
 0002:0000535c       TA_DEF_TableQSize          000000018007035c     ta_libc_csr:table_q.obj
 0002:00005360       ??_C@_04HABOLCOP@ROCP?$AA@ 0000000180070360     ta_libc_csr:table_r.obj
 0002:00005368       ??_C@_0DH@HHEOHEFI@Rate?5of?5change?5Percentage?3?5?$CIpric@ 0000000180070368     ta_libc_csr:table_r.obj
 0002:000053a0       ??_C@_04OIGBFLDB@RocP?$AA@ 00000001800703a0     ta_libc_csr:table_r.obj
 0002:000053a8       TA_DEF_ROCR                00000001800703a8     ta_libc_csr:table_r.obj
 0002:000053e0       TA_DEF_ROCR100             00000001800703e0     ta_libc_csr:table_r.obj
 0002:00005418       TA_DEF_RSI                 0000000180070418     ta_libc_csr:table_r.obj
 0002:00005450       TA_DEF_TableRSize          0000000180070450     ta_libc_csr:table_r.obj
 0002:00005458       TA_DEF_ROC                 0000000180070458     ta_libc_csr:table_r.obj
 0002:00005490       TA_DEF_ROCP                0000000180070490     ta_libc_csr:table_r.obj
 0002:000054c8       ??_C@_04ECCINAGN@ROCR?$AA@ 00000001800704c8     ta_libc_csr:table_r.obj
 0002:000054d0       ??_C@_0CI@GDOFBDME@Rate?5of?5change?5ratio?3?5?$CIprice?1pre@ 00000001800704d0     ta_libc_csr:table_r.obj
 0002:000054f8       ??_C@_04NKFHDJLD@RocR?$AA@ 00000001800704f8     ta_libc_csr:table_r.obj
 0002:00005500       ??_C@_07EHDIHJHD@ROCR100?$AA@ 0000000180070500     ta_libc_csr:table_r.obj
 0002:00005508       ??_C@_0DG@NPNMIPKP@Rate?5of?5change?5ratio?5100?5scale?3?5@ 0000000180070508     ta_libc_csr:table_r.obj
 0002:00005540       ??_C@_07IPCJEFNJ@RocR100?$AA@ 0000000180070540     ta_libc_csr:table_r.obj
 0002:00005548       ??_C@_03PAPOIDGP@RSI?$AA@  0000000180070548     ta_libc_csr:table_r.obj
 0002:00005550       ??_C@_0BI@DNACEIOB@Relative?5Strength?5Index?$AA@ 0000000180070550     ta_libc_csr:table_r.obj
 0002:00005568       ??_C@_03FNDHOBCN@Rsi?$AA@  0000000180070568     ta_libc_csr:table_r.obj
 0002:0000556c       ??_C@_03BPCNDBPB@ROC?$AA@  000000018007056c     ta_libc_csr:table_r.obj
 0002:00005570       ??_C@_0CL@DDPOKJHG@Rate?5of?5change?5?3?5?$CI?$CIprice?1prevPri@ 0000000180070570     ta_libc_csr:table_r.obj
 0002:0000559c       ??_C@_03LCOEFDLD@Roc?$AA@  000000018007059c     ta_libc_csr:table_r.obj
 0002:000055a0       ??_C@_0BA@EMHKDNLA@optInStartValue?$AA@ 00000001800705a0     ta_libc_csr:table_s.obj
 0002:000055b0       ??_C@_0M@MDCGHKAD@Start?5Value?$AA@ 00000001800705b0     ta_libc_csr:table_s.obj
 0002:000055c0       ??_C@_0EB@PKFJDOOA@Start?5value?5and?5direction?4?50?5for@ 00000001800705c0     ta_libc_csr:table_s.obj
 0002:000057d0       TA_DEF_SAREXT              00000001800707d0     ta_libc_csr:table_s.obj
 0002:00005808       TA_DEF_SIN                 0000000180070808     ta_libc_csr:table_s.obj
 0002:00005840       TA_DEF_SINH                0000000180070840     ta_libc_csr:table_s.obj
 0002:00005878       TA_DEF_SMA                 0000000180070878     ta_libc_csr:table_s.obj
 0002:000058b0       TA_DEF_SQRT                00000001800708b0     ta_libc_csr:table_s.obj
 0002:000058e8       TA_DEF_SUB                 00000001800708e8     ta_libc_csr:table_s.obj
 0002:00005920       TA_DEF_SUM                 0000000180070920     ta_libc_csr:table_s.obj
 0002:00005958       TA_DEF_STDDEV              0000000180070958     ta_libc_csr:table_s.obj
 0002:00005a50       TA_DEF_UI_SlowK_MAType     0000000180070a50     ta_libc_csr:table_s.obj
 0002:00005a90       TA_DEF_UI_SlowD_MAType     0000000180070a90     ta_libc_csr:table_s.obj
 0002:00005ad0       TA_DEF_UI_Output_SlowK     0000000180070ad0     ta_libc_csr:table_s.obj
 0002:00005ae8       TA_DEF_UI_Output_SlowD     0000000180070ae8     ta_libc_csr:table_s.obj
 0002:00005b00       TA_DEF_STOCH               0000000180070b00     ta_libc_csr:table_s.obj
 0002:00005b38       TA_DEF_UI_Output_FastK     0000000180070b38     ta_libc_csr:table_s.obj
 0002:00005b90       TA_DEF_UI_FastD_MAType     0000000180070b90     ta_libc_csr:table_s.obj
 0002:00005bd0       TA_DEF_UI_Output_FastD     0000000180070bd0     ta_libc_csr:table_s.obj
 0002:00005be8       TA_DEF_STOCHF              0000000180070be8     ta_libc_csr:table_s.obj
 0002:00005c20       TA_DEF_STOCHRSI            0000000180070c20     ta_libc_csr:table_s.obj
 0002:00005c58       TA_DEF_TableSSize          0000000180070c58     ta_libc_csr:table_s.obj
 0002:00005d40       TA_DEF_SAR                 0000000180070d40     ta_libc_csr:table_s.obj
 0002:00005e50       ??_C@_0BF@MEKIKFBI@optInOffsetOnReverse?$AA@ 0000000180070e50     ta_libc_csr:table_s.obj
 0002:00005e68       ??_C@_0BC@FEOIAINO@Offset?5on?5Reverse?$AA@ 0000000180070e68     ta_libc_csr:table_s.obj
 0002:00005e80       ??_C@_0EE@BHKPLCL@Percent?5offset?5added?1removed?5to?5@ 0000000180070e80     ta_libc_csr:table_s.obj
 0002:00005ec8       ??_C@_0BK@EKLMBIIG@optInAccelerationInitLong?$AA@ 0000000180070ec8     ta_libc_csr:table_s.obj
 0002:00005ee8       ??_C@_0N@HJMABJAB@AF?5Init?5Long?$AA@ 0000000180070ee8     ta_libc_csr:table_s.obj
 0002:00005ef8       ??_C@_0DJ@MJOLPLNG@Acceleration?5Factor?5initial?5valu@ 0000000180070ef8     ta_libc_csr:table_s.obj
 0002:00005f38       ??_C@_0BG@JLANBBDG@optInAccelerationLong?$AA@ 0000000180070f38     ta_libc_csr:table_s.obj
 0002:00005f50       ??_C@_07MJCOOOMH@AF?5Long?$AA@ 0000000180070f50     ta_libc_csr:table_s.obj
 0002:00005f58       ??_C@_0CL@JCAPDDGO@Acceleration?5Factor?5for?5the?5Long@ 0000000180070f58     ta_libc_csr:table_s.obj
 0002:00005f88       ??_C@_0BJ@PJDFLOFL@optInAccelerationMaxLong?$AA@ 0000000180070f88     ta_libc_csr:table_s.obj
 0002:00005fa8       ??_C@_0M@CDEIIECL@AF?5Max?5Long?$AA@ 0000000180070fa8     ta_libc_csr:table_s.obj
 0002:00005fb8       ??_C@_0DJ@NOGMDAMP@Acceleration?5Factor?5maximum?5valu@ 0000000180070fb8     ta_libc_csr:table_s.obj
 0002:00005ff8       ??_C@_0BL@KNDDEMFP@optInAccelerationInitShort?$AA@ 0000000180070ff8     ta_libc_csr:table_s.obj
 0002:00006018       ??_C@_0O@NONMCGNN@AF?5Init?5Short?$AA@ 0000000180071018     ta_libc_csr:table_s.obj
 0002:00006028       ??_C@_0DK@GGMPHNMD@Acceleration?5Factor?5initial?5valu@ 0000000180071028     ta_libc_csr:table_s.obj
 0002:00006068       ??_C@_0BH@GGIDEONK@optInAccelerationShort?$AA@ 0000000180071068     ta_libc_csr:table_s.obj
 0002:00006080       ??_C@_08KMGLKPKP@AF?5Short?$AA@ 0000000180071080     ta_libc_csr:table_s.obj
 0002:00006090       ??_C@_0CM@KDCOKCLF@Acceleration?5Factor?5for?5the?5Shor@ 0000000180071090     ta_libc_csr:table_s.obj
 0002:000060c0       ??_C@_0BK@FFOCGLJA@optInAccelerationMaxShort?$AA@ 00000001800710c0     ta_libc_csr:table_s.obj
 0002:000060e0       ??_C@_0N@FDNGHJG@AF?5Max?5Short?$AA@ 00000001800710e0     ta_libc_csr:table_s.obj
 0002:000060f0       ??_C@_0DK@CLDFCMI@Acceleration?5Factor?5maximum?5valu@ 00000001800710f0     ta_libc_csr:table_s.obj
 0002:0000612c       ??_C@_06OGMLNJJO@SAREXT?$AA@ 000000018007112c     ta_libc_csr:table_s.obj
 0002:00006138       ??_C@_0BJ@CDCJNFBN@Parabolic?5SAR?5?9?5Extended?$AA@ 0000000180071138     ta_libc_csr:table_s.obj
 0002:00006154       ??_C@_06INGPJBOO@SarExt?$AA@ 0000000180071154     ta_libc_csr:table_s.obj
 0002:0000615c       ??_C@_03BGLCFEGL@SIN?$AA@  000000018007115c     ta_libc_csr:table_s.obj
 0002:00006160       ??_C@_0BJ@NJGLAJJA@Vector?5Trigonometric?5Sin?$AA@ 0000000180071160     ta_libc_csr:table_s.obj
 0002:0000617c       ??_C@_03LLHLDGCJ@Sin?$AA@  000000018007117c     ta_libc_csr:table_s.obj
 0002:00006180       ??_C@_04OCNGMPIJ@SINH?$AA@ 0000000180071180     ta_libc_csr:table_s.obj
 0002:00006188       ??_C@_0BK@FNPCBJOC@Vector?5Trigonometric?5Sinh?$AA@ 0000000180071188     ta_libc_csr:table_s.obj
 0002:000061a4       ??_C@_04OPCNACPF@Sinh?$AA@ 00000001800711a4     ta_libc_csr:table_s.obj
 0002:000061b0       ??_C@_0BG@MJNJHBME@Simple?5Moving?5Average?$AA@ 00000001800711b0     ta_libc_csr:table_s.obj
 0002:000061c8       ??_C@_03DLOKICDK@Sma?$AA@  00000001800711c8     ta_libc_csr:table_s.obj
 0002:000061cc       ??_C@_04IEDALHLA@SQRT?$AA@ 00000001800711cc     ta_libc_csr:table_s.obj
 0002:000061d8       ??_C@_0BD@FGJJGPBN@Vector?5Square?5Root?$AA@ 00000001800711d8     ta_libc_csr:table_s.obj
 0002:000061ec       ??_C@_04IJMLHKMM@Sqrt?$AA@ 00000001800711ec     ta_libc_csr:table_s.obj
 0002:000061f4       ??_C@_03KPDLEBHD@SUB?$AA@  00000001800711f4     ta_libc_csr:table_s.obj
 0002:000061f8       ??_C@_0BP@HJCGEFMD@Vector?5Arithmetic?5Substraction?$AA@ 00000001800711f8     ta_libc_csr:table_s.obj
 0002:00006218       ??_C@_03CPCCDDB@Sub?$AA@   0000000180071218     ta_libc_csr:table_s.obj
 0002:0000621c       ??_C@_03CIKDFNLM@SUM?$AA@  000000018007121c     ta_libc_csr:table_s.obj
 0002:00006220       ??_C@_09GEMMFMFK@Summation?$AA@ 0000000180071220     ta_libc_csr:table_s.obj
 0002:0000622c       ??_C@_03IFGKDPPO@Sum?$AA@  000000018007122c     ta_libc_csr:table_s.obj
 0002:00006230       ??_C@_06MEAEBNFA@STDDEV?$AA@ 0000000180071230     ta_libc_csr:table_s.obj
 0002:00006238       ??_C@_0BD@JNMOIGNJ@Standard?5Deviation?$AA@ 0000000180071238     ta_libc_csr:table_s.obj
 0002:0000624c       ??_C@_06KPKAFFCA@StdDev?$AA@ 000000018007124c     ta_libc_csr:table_s.obj
 0002:00006258       ??_C@_0BC@HIKIGKL@optInFastK_Period?$AA@ 0000000180071258     ta_libc_csr:table_s.obj
 0002:00006270       ??_C@_0O@LKKNGCPL@Fast?9K?5Period?$AA@ 0000000180071270     ta_libc_csr:table_s.obj
 0002:00006280       ??_C@_0CJ@MFOCHDKB@Time?5period?5for?5building?5the?5Fas@ 0000000180071280     ta_libc_csr:table_s.obj
 0002:000062b0       ??_C@_0BC@HPNGHPID@optInSlowK_Period?$AA@ 00000001800712b0     ta_libc_csr:table_s.obj
 0002:000062c8       ??_C@_0O@IPGAJGPI@Slow?9K?5Period?$AA@ 00000001800712c8     ta_libc_csr:table_s.obj
 0002:000062d8       ??_C@_0DH@KNJCAAJH@Smoothing?5for?5making?5the?5Slow?9K?5@ 00000001800712d8     ta_libc_csr:table_s.obj
 0002:00006310       ??_C@_0BC@KAGPLAFC@optInSlowD_Period?$AA@ 0000000180071310     ta_libc_csr:table_s.obj
 0002:00006328       ??_C@_0O@FANJFJCJ@Slow?9D?5Period?$AA@ 0000000180071328     ta_libc_csr:table_s.obj
 0002:00006338       ??_C@_0CF@MCNEICED@Smoothing?5for?5making?5the?5Slow?9D?5@ 0000000180071338     ta_libc_csr:table_s.obj
 0002:00006360       ??_C@_0BC@PFBLJNJK@optInSlowK_MAType?$AA@ 0000000180071360     ta_libc_csr:table_s.obj
 0002:00006378       ??_C@_09HBAGDEJJ@Slow?9K?5MA?$AA@ 0000000180071378     ta_libc_csr:table_s.obj
 0002:00006388       ??_C@_0CC@BFGODPEL@Type?5of?5Moving?5Average?5for?5Slow?9@ 0000000180071388     ta_libc_csr:table_s.obj
 0002:000063b0       ??_C@_0BC@CKKCFCEL@optInSlowD_MAType?$AA@ 00000001800713b0     ta_libc_csr:table_s.obj
 0002:000063c8       ??_C@_09PDFGKDEI@Slow?9D?5MA?$AA@ 00000001800713c8     ta_libc_csr:table_s.obj
 0002:000063d8       ??_C@_0CC@JCPGCDIE@Type?5of?5Moving?5Average?5for?5Slow?9@ 00000001800713d8     ta_libc_csr:table_s.obj
 0002:00006400       ??_C@_08JBBFCBLD@outSlowK?$AA@ 0000000180071400     ta_libc_csr:table_s.obj
 0002:00006410       ??_C@_08BGINDNHM@outSlowD?$AA@ 0000000180071410     ta_libc_csr:table_s.obj
 0002:0000641c       ??_C@_05IALPPDPB@STOCH?$AA@ 000000018007141c     ta_libc_csr:table_s.obj
 0002:00006428       ??_C@_0L@HPDAICJL@Stochastic?$AA@ 0000000180071428     ta_libc_csr:table_s.obj
 0002:00006434       ??_C@_05EMIFBBIJ@Stoch?$AA@ 0000000180071434     ta_libc_csr:table_s.obj
 0002:00006440       ??_C@_0BC@NIDDEJHK@optInFastD_Period?$AA@ 0000000180071440     ta_libc_csr:table_s.obj
 0002:00006458       ??_C@_0O@GFBEKNCK@Fast?9D?5Period?$AA@ 0000000180071458     ta_libc_csr:table_s.obj
 0002:00006468       ??_C@_0DH@MLMAKCHK@Smoothing?5for?5making?5the?5Fast?9D?5@ 0000000180071468     ta_libc_csr:table_s.obj
 0002:000064a0       ??_C@_0BC@FCPOKLGD@optInFastD_MAType?$AA@ 00000001800714a0     ta_libc_csr:table_s.obj
 0002:000064b8       ??_C@_09NJGCDAEK@Fast?9D?5MA?$AA@ 00000001800714b8     ta_libc_csr:table_s.obj
 0002:000064c8       ??_C@_0CC@KMCLFGFO@Type?5of?5Moving?5Average?5for?5Fast?9@ 00000001800714c8     ta_libc_csr:table_s.obj
 0002:000064f0       ??_C@_08CCBHCAFE@outFastK?$AA@ 00000001800714f0     ta_libc_csr:table_s.obj
 0002:00006500       ??_C@_08KFIPDMJL@outFastD?$AA@ 0000000180071500     ta_libc_csr:table_s.obj
 0002:0000650c       ??_C@_06GMBJJFPK@STOCHF?$AA@ 000000018007150c     ta_libc_csr:table_s.obj
 0002:00006518       ??_C@_0BA@CDCLLKFK@Stochastic?5Fast?$AA@ 0000000180071518     ta_libc_csr:table_s.obj
 0002:00006528       ??_C@_06DCALFGBG@StochF?$AA@ 0000000180071528     ta_libc_csr:table_s.obj
 0002:00006530       ??_C@_08POAMKGII@STOCHRSI?$AA@ 0000000180071530     ta_libc_csr:table_s.obj
 0002:00006540       ??_C@_0CD@MKGBOAMD@Stochastic?5Relative?5Strength?5Ind@ 0000000180071540     ta_libc_csr:table_s.obj
 0002:00006568       ??_C@_08KDGDLFDC@StochRsi?$AA@ 0000000180071568     ta_libc_csr:table_s.obj
 0002:00006578       ??_C@_0BC@LENJOHCH@optInAcceleration?$AA@ 0000000180071578     ta_libc_csr:table_s.obj
 0002:00006590       ??_C@_0BE@BEAHNIDL@Acceleration?5Factor?$AA@ 0000000180071590     ta_libc_csr:table_s.obj
 0002:000065a8       ??_C@_0DB@LPGIDHIP@Acceleration?5Factor?5used?5up?5to?5t@ 00000001800715a8     ta_libc_csr:table_s.obj
 0002:000065e0       ??_C@_0N@OCJIPKLN@optInMaximum?$AA@ 00000001800715e0     ta_libc_csr:table_s.obj
 0002:000065f0       ??_C@_0L@DFMEOHAK@AF?5Maximum?$AA@ 00000001800715f0     ta_libc_csr:table_s.obj
 0002:00006600       ??_C@_0CC@IBJBENKD@Acceleration?5Factor?5Maximum?5valu@ 0000000180071600     ta_libc_csr:table_s.obj
 0002:00006624       ??_C@_03PONGFIIO@SAR?$AA@  0000000180071624     ta_libc_csr:table_s.obj
 0002:00006628       ??_C@_0O@CDGPBEIK@Parabolic?5SAR?$AA@ 0000000180071628     ta_libc_csr:table_s.obj
 0002:00006638       ??_C@_03FDBPDKMM@Sar?$AA@  0000000180071638     ta_libc_csr:table_s.obj
 0002:0000663c       ??_C@_03IFHGDNGK@TAN?$AA@  000000018007163c     ta_libc_csr:table_t.obj
 0002:00006640       ??_C@_0BJ@EKKPGAJB@Vector?5Trigonometric?5Tan?$AA@ 0000000180071640     ta_libc_csr:table_t.obj
 0002:0000665c       ??_C@_03CILPFPCI@Tan?$AA@  000000018007165c     ta_libc_csr:table_t.obj
 0002:00006660       TA_DEF_TANH                0000000180071660     ta_libc_csr:table_t.obj
 0002:00006698       TA_DEF_TEMA                0000000180071698     ta_libc_csr:table_t.obj
 0002:000066d0       TA_DEF_TRANGE              00000001800716d0     ta_libc_csr:table_t.obj
 0002:00006708       TA_DEF_TRIMA               0000000180071708     ta_libc_csr:table_t.obj
 0002:00006740       TA_DEF_TRIX                0000000180071740     ta_libc_csr:table_t.obj
 0002:00006778       TA_DEF_TSF                 0000000180071778     ta_libc_csr:table_t.obj
 0002:000067b0       TA_DEF_TYPPRICE            00000001800717b0     ta_libc_csr:table_t.obj
 0002:000067e8       TA_DEF_TableTSize          00000001800717e8     ta_libc_csr:table_t.obj
 0002:00006830       TA_DEF_T3                  0000000180071830     ta_libc_csr:table_t.obj
 0002:00006868       TA_DEF_TAN                 0000000180071868     ta_libc_csr:table_t.obj
 0002:000068a0       ??_C@_04JFECDLHG@TANH?$AA@ 00000001800718a0     ta_libc_csr:table_t.obj
 0002:000068a8       ??_C@_0BK@CKGGONBN@Vector?5Trigonometric?5Tanh?$AA@ 00000001800718a8     ta_libc_csr:table_t.obj
 0002:000068c4       ??_C@_04JILJPGAK@Tanh?$AA@ 00000001800718c4     ta_libc_csr:table_t.obj
 0002:000068d0       ??_C@_0CC@MDCMGCMI@Triple?5Exponential?5Moving?5Averag@ 00000001800718d0     ta_libc_csr:table_t.obj
 0002:000068f4       ??_C@_04MEFPGEEN@Tema?$AA@ 00000001800718f4     ta_libc_csr:table_t.obj
 0002:000068fc       ??_C@_06BCMMDKCL@TRANGE?$AA@ 00000001800718fc     ta_libc_csr:table_t.obj
 0002:00006908       ??_C@_0L@CINOJBLP@True?5Range?$AA@ 0000000180071908     ta_libc_csr:table_t.obj
 0002:00006918       ??_C@_09CEBOJDCI@TrueRange?$AA@ 0000000180071918     ta_libc_csr:table_t.obj
 0002:00006928       ??_C@_0BK@BEJPNLHK@Triangular?5Moving?5Average?$AA@ 0000000180071928     ta_libc_csr:table_t.obj
 0002:00006944       ??_C@_05CAPHBNAO@Trima?$AA@ 0000000180071944     ta_libc_csr:table_t.obj
 0002:0000694c       ??_C@_04JIGDMHND@TRIX?$AA@ 000000018007194c     ta_libc_csr:table_t.obj
 0002:00006958       ??_C@_0DC@CHAIHFPF@1?9day?5Rate?9Of?9Change?5?$CIROC?$CJ?5of?5a?5@ 0000000180071958     ta_libc_csr:table_t.obj
 0002:0000698c       ??_C@_04JFJIAKKP@Trix?$AA@ 000000018007198c     ta_libc_csr:table_t.obj
 0002:00006994       ??_C@_03FCANMAHM@TSF?$AA@  0000000180071994     ta_libc_csr:table_t.obj
 0002:00006998       ??_C@_0BF@PIMIIBJO@Time?5Series?5Forecast?$AA@ 0000000180071998     ta_libc_csr:table_t.obj
 0002:000069b0       ??_C@_03PPMEKCDO@Tsf?$AA@  00000001800719b0     ta_libc_csr:table_t.obj
 0002:000069b8       ??_C@_08IGHPBED@TYPPRICE?$AA@ 00000001800719b8     ta_libc_csr:table_t.obj
 0002:000069c8       ??_C@_0O@IAMJNCCN@Typical?5Price?$AA@ 00000001800719c8     ta_libc_csr:table_t.obj
 0002:000069d8       ??_C@_08PCJGEIPB@TypPrice?$AA@ 00000001800719d8     ta_libc_csr:table_t.obj
 0002:000069e8       ??_C@_0N@FGMAKLAN@optInVFactor?$AA@ 00000001800719e8     ta_libc_csr:table_t.obj
 0002:000069f8       ??_C@_0O@DBIGMOLO@Volume?5Factor?$AA@ 00000001800719f8     ta_libc_csr:table_t.obj
 0002:00006a08       ??_C@_0CH@EJNDJKLP@Triple?5Exponential?5Moving?5Averag@ 0000000180071a08     ta_libc_csr:table_t.obj
 0002:00006a30       TA_DEF_TableUSize          0000000180071a30     ta_libc_csr:table_u.obj
 0002:00006a40       TA_DEF_UI_TimePeriod_7_PER1 0000000180071a40     ta_libc_csr:table_u.obj
 0002:00006a80       TA_DEF_UI_TimePeriod_14_PER2 0000000180071a80     ta_libc_csr:table_u.obj
 0002:00006ac0       TA_DEF_UI_TimePeriod_28_PER3 0000000180071ac0     ta_libc_csr:table_u.obj
 0002:00006b00       TA_DEF_ULTOSC              0000000180071b00     ta_libc_csr:table_u.obj
 0002:00006b38       ??_C@_0BB@FJGEJAJM@optInTimePeriod1?$AA@ 0000000180071b38     ta_libc_csr:table_u.obj
 0002:00006b50       ??_C@_0N@ELNLNKHC@First?5Period?$AA@ 0000000180071b50     ta_libc_csr:table_u.obj
 0002:00006b60       ??_C@_0BP@PPDGDBAB@Number?5of?5bars?5for?51st?5period?4?$AA@ 0000000180071b60     ta_libc_csr:table_u.obj
 0002:00006b80       ??_C@_0BB@HCEJMDFP@optInTimePeriod2?$AA@ 0000000180071b80     ta_libc_csr:table_u.obj
 0002:00006b98       ??_C@_0O@DBAPAFMO@Second?5Period?$AA@ 0000000180071b98     ta_libc_csr:table_u.obj
 0002:00006ba8       ??_C@_0BO@CAJMNIKN@Number?5of?5bars?5fro?52nd?5period?$AA@ 0000000180071ba8     ta_libc_csr:table_u.obj
 0002:00006bc8       ??_C@_0BB@GLFCPCBO@optInTimePeriod3?$AA@ 0000000180071bc8     ta_libc_csr:table_u.obj
 0002:00006be0       ??_C@_0N@MKPAOPEM@Third?5Period?$AA@ 0000000180071be0     ta_libc_csr:table_u.obj
 0002:00006bf0       ??_C@_0BO@POODOMJI@Number?5of?5bars?5for?53rd?5period?$AA@ 0000000180071bf0     ta_libc_csr:table_u.obj
 0002:00006c10       ??_C@_06NAKOIBMJ@ULTOSC?$AA@ 0000000180071c10     ta_libc_csr:table_u.obj
 0002:00006c18       ??_C@_0BE@LJIBLIAK@Ultimate?5Oscillator?$AA@ 0000000180071c18     ta_libc_csr:table_u.obj
 0002:00006c2c       ??_C@_06LLAKMJLJ@UltOsc?$AA@ 0000000180071c2c     ta_libc_csr:table_u.obj
 0002:00006c38       TA_DEF_VAR                 0000000180071c38     ta_libc_csr:table_v.obj
 0002:00006c70       TA_DEF_TableVSize          0000000180071c70     ta_libc_csr:table_v.obj
 0002:00006c74       ??_C@_03MJAIKILM@VAR?$AA@  0000000180071c74     ta_libc_csr:table_v.obj
 0002:00006c78       ??_C@_08HNEDNIEO@Variance?$AA@ 0000000180071c78     ta_libc_csr:table_v.obj
 0002:00006c84       ??_C@_05CKJKPANM@WILLR?$AA@ 0000000180071c84     ta_libc_csr:table_w.obj
 0002:00006c90       ??_C@_0N@EOBCBMKL@Williams?8?5?$CFR?$AA@ 0000000180071c90     ta_libc_csr:table_w.obj
 0002:00006ca0       ??_C@_05HDCEDGAG@WillR?$AA@ 0000000180071ca0     ta_libc_csr:table_w.obj
 0002:00006ca8       TA_DEF_WMA                 0000000180071ca8     ta_libc_csr:table_w.obj
 0002:00006ce0       TA_DEF_TableWSize          0000000180071ce0     ta_libc_csr:table_w.obj
 0002:00006ce8       TA_DEF_WCLPRICE            0000000180071ce8     ta_libc_csr:table_w.obj
 0002:00006d20       TA_DEF_WILLR               0000000180071d20     ta_libc_csr:table_w.obj
 0002:00006d58       ??_C@_0BI@OOGNNDPF@Weighted?5Moving?5Average?$AA@ 0000000180071d58     ta_libc_csr:table_w.obj
 0002:00006d70       ??_C@_03LEIIBFGN@Wma?$AA@  0000000180071d70     ta_libc_csr:table_w.obj
 0002:00006d78       ??_C@_08HMOPBGNP@WCLPRICE?$AA@ 0000000180071d78     ta_libc_csr:table_w.obj
 0002:00006d88       ??_C@_0BF@COEHOOFM@Weighted?5Close?5Price?$AA@ 0000000180071d88     ta_libc_csr:table_w.obj
 0002:00006da0       ??_C@_08IGBOKPGN@WclPrice?$AA@ 0000000180071da0     ta_libc_csr:table_w.obj
 0002:00006dac       TA_DEF_TableXSize          0000000180071dac     ta_libc_csr:table_x.obj
 0002:00006db0       TA_DEF_TableYSize          0000000180071db0     ta_libc_csr:table_y.obj
 0002:00006db4       TA_DEF_TableZSize          0000000180071db4     ta_libc_csr:table_z.obj
 0002:00006db8       TA_PerGroupSize            0000000180071db8     ta_libc_csr:ta_group_idx.obj
 0002:00006de0       TA_TotalNbFunction         0000000180071de0     ta_libc_csr:ta_group_idx.obj
 0002:00006de8       __real@3d06849b86a12b9b    0000000180071de8     ta_libc_csr:ta_ACCBANDS.obj
 0002:00006df0       __real@4010000000000000    0000000180071df0     ta_libc_csr:ta_ACCBANDS.obj
 0002:00006df8       __real@bd06849b86a12b9b    0000000180071df8     ta_libc_csr:ta_ACCBANDS.obj
 0002:00006e00       __real@4059000000000000    0000000180071e00     ta_libc_csr:ta_ADX.obj
 0002:00006e10       __xmm@7fffffffffffffff7fffffffffffffff 0000000180071e10     ta_libc_csr:ta_ADX.obj
 0002:00006e20       __real@3fe0000000000000    0000000180071e20     ta_libc_csr:ta_ADXR.obj
 0002:00006e28       __real@3fd0000000000000    0000000180071e28     ta_libc_csr:ta_AVGPRICE.obj
 0002:00006e30       __real@47b691ca32818ed5    0000000180071e30     ta_libc_csr:ta_BBANDS.obj
 0002:00006e38       __real@c7b691ca32818ed5    0000000180071e38     ta_libc_csr:ta_BBANDS.obj
 0002:00006e40       __real@c7be17b84357691b    0000000180071e40     ta_libc_csr:ta_BBANDS.obj
 0002:00006e48       __real@3f8eb851eb851eb8    0000000180071e48     ta_libc_csr:ta_CCI.obj
 0002:00006e50       __real@0000000000000000    0000000180071e50     ta_libc_csr:ta_CDL3WHITESOLDIERS.obj
 0002:00006e58       __real@3fd3333333333333    0000000180071e58     ta_libc_csr:ta_CDLABANDONEDBABY.obj
 0002:00006e60       __real@3fb3333333333333    0000000180071e60     ta_libc_csr:ta_HT_DCPERIOD.obj
 0002:00006e68       __real@3fb8a0902de00d1b    0000000180071e68     ta_libc_csr:ta_HT_DCPERIOD.obj
 0002:00006e70       __real@3fd51eb851eb851f    0000000180071e70     ta_libc_csr:ta_HT_DCPERIOD.obj
 0002:00006e78       __real@3fe147ae147ae148    0000000180071e78     ta_libc_csr:ta_HT_DCPERIOD.obj
 0002:00006e80       __real@3fe275f6fd21ff2e    0000000180071e80     ta_libc_csr:ta_HT_DCPERIOD.obj
 0002:00006e88       __real@3fe570a3d70a3d71    0000000180071e88     ta_libc_csr:ta_HT_DCPERIOD.obj
 0002:00006e90       __real@3fe999999999999a    0000000180071e90     ta_libc_csr:ta_HT_DCPERIOD.obj
 0002:00006e98       __real@3ff8000000000000    0000000180071e98     ta_libc_csr:ta_HT_DCPERIOD.obj
 0002:00006ea0       __real@4018000000000000    0000000180071ea0     ta_libc_csr:ta_HT_DCPERIOD.obj
 0002:00006ea8       __real@4049000000000000    0000000180071ea8     ta_libc_csr:ta_HT_DCPERIOD.obj
 0002:00006eb0       __real@4066800000000000    0000000180071eb0     ta_libc_csr:ta_HT_DCPERIOD.obj
 0002:00006eb8       __real@4076800000000000    0000000180071eb8     ta_libc_csr:ta_HT_DCPERIOD.obj
 0002:00006ec0       __xmm@80000000000000008000000000000000 0000000180071ec0     ta_libc_csr:ta_HT_DCPERIOD.obj
 0002:00006ed0       __real@3f847ae147ae147b    0000000180071ed0     ta_libc_csr:ta_HT_DCPHASE.obj
 0002:00006ed8       __real@4020000000000000    0000000180071ed8     ta_libc_csr:ta_HT_DCPHASE.obj
 0002:00006ee0       __real@4046800000000000    0000000180071ee0     ta_libc_csr:ta_HT_DCPHASE.obj
 0002:00006ee8       __real@4056800000000000    0000000180071ee8     ta_libc_csr:ta_HT_DCPHASE.obj
 0002:00006ef0       __real@4073b00000000000    0000000180071ef0     ta_libc_csr:ta_HT_DCPHASE.obj
 0002:00006ef8       __real@c056800000000000    0000000180071ef8     ta_libc_csr:ta_HT_DCPHASE.obj
 0002:00006f00       __real@c076800000000000    0000000180071f00     ta_libc_csr:ta_HT_DCPHASE.obj
 0002:00006f08       __real@4024000000000000    0000000180071f08     ta_libc_csr:ta_HT_TRENDLINE.obj
 0002:00006f10       __real@406e266666666667    0000000180071f10     ta_libc_csr:ta_HT_TRENDMODE.obj
 0002:00006f18       __real@4080e00000000000    0000000180071f18     ta_libc_csr:ta_HT_TRENDMODE.obj
 0002:00006f20       __real@3fb0842108421084    0000000180071f20     ta_libc_csr:ta_KAMA.obj
 0002:00006f28       __real@3fe344d1344d1344    0000000180071f28     ta_libc_csr:ta_KAMA.obj
 0002:00006f30       __real@404ca5dc1a63c1f8    0000000180071f30     ta_libc_csr:ta_LINEARREG_ANGLE.obj
 0002:00006f38       __real@3fe6666666666666    0000000180071f38     ta_libc_csr:ta_MA.obj
 0002:00006f40       __real@3fc3333333333333    0000000180071f40     ta_libc_csr:ta_MACD.obj
 0002:00006f48       __real@3fefae147ae147ae    0000000180071f48     ta_libc_csr:ta_MAMA.obj
 0002:00006f50       __xmm@ffffffffffffffffffffffffffffffff 0000000180071f50     ta_libc_csr:ta_MAVP.obj
 0002:00006f60       __real@3f947ae147ae147b    0000000180071f60     ta_libc_csr:ta_SAR.obj
 0002:00006f68       __real@c018000000000000    0000000180071f68     ta_libc_csr:ta_T3.obj
 0002:00006f70       __real@401c000000000000    0000000180071f70     ta_libc_csr:ta_ULTOSC.obj
 0002:00006f78       __real@c059000000000000    0000000180071f78     ta_libc_csr:ta_WILLR.obj
 0002:00006f88       ??_7exception@std@@6B@     0000000180071f88     libcpmt:xthrow.obj
 0002:00006f98       ??_C@_0BC@EOODALEL@Unknown?5exception@ 0000000180071f98     libcpmt:xthrow.obj
 0002:00006fb8       ??_7bad_alloc@std@@6B@     0000000180071fb8     libcpmt:xthrow.obj
 0002:00006fc8       ??_C@_0P@GHFPNOJB@bad?5allocation@ 0000000180071fc8     libcpmt:xthrow.obj
 0002:00006fe0       ??_7logic_error@std@@6B@   0000000180071fe0     libcpmt:xthrow.obj
 0002:00006ff8       ??_7length_error@std@@6B@  0000000180071ff8     libcpmt:xthrow.obj
 0002:00007008       _pRawDllMain               0000000180072008     LIBCMT:dll_dllmain.obj
 0002:00007008       _pDefaultRawDllMain        0000000180072008     LIBCMT:dll_dllmain.obj
 0002:00007018       ??_7type_info@@6B@         0000000180072018     LIBCMT:std_type_info_static.obj
 0002:00007038       ??_7bad_array_new_length@std@@6B@ 0000000180072038     LIBCMT:throw_bad_alloc.obj
 0002:00007048       ??_C@_0BF@KINCDENJ@bad?5array?5new?5length@ 0000000180072048     LIBCMT:throw_bad_alloc.obj
 0002:000070a0       _pDestructExceptionObject  00000001800720a0     libvcruntime:ehhelpers.obj
 0002:000073e8       ??_C@_08EHJDFFNH@__based?$CI@ 00000001800723e8     libvcruntime:undname.obj
 0002:000073f8       ??_C@_07KOLFKCDI@__cdecl@  00000001800723f8     libvcruntime:undname.obj
 0002:00007400       ??_C@_08GHMPAG@__pascal@   0000000180072400     libvcruntime:undname.obj
 0002:00007410       ??_C@_09IFJBGAPI@__stdcall@ 0000000180072410     libvcruntime:undname.obj
 0002:00007420       ??_C@_0L@NPHFGOKO@__thiscall@ 0000000180072420     libvcruntime:undname.obj
 0002:00007430       ??_C@_0L@JMKHOMEK@__fastcall@ 0000000180072430     libvcruntime:undname.obj
 0002:00007440       ??_C@_0N@BCKKPABJ@__vectorcall@ 0000000180072440     libvcruntime:undname.obj
 0002:00007450       ??_C@_09HIJEGCPM@__clrcall@ 0000000180072450     libvcruntime:undname.obj
 0002:0000745c       ??_C@_06GHPCKEAG@__eabi@   000000018007245c     libvcruntime:undname.obj
 0002:00007468       ??_C@_09IOPIDJLG@__swift_1@ 0000000180072468     libvcruntime:undname.obj
 0002:00007478       ??_C@_09KFNFGKHF@__swift_2@ 0000000180072478     libvcruntime:undname.obj
 0002:00007488       ??_C@_07JOMMBBKO@__ptr64@  0000000180072488     libvcruntime:undname.obj
 0002:00007490       ??_C@_0L@PILCLIHE@__restrict@ 0000000180072490     libvcruntime:undname.obj
 0002:000074a0       ??_C@_0M@GFIIJFMG@__unaligned@ 00000001800724a0     libvcruntime:undname.obj
 0002:000074b0       ??_C@_09DHDLOLLB@restrict?$CI@ 00000001800724b0     libvcruntime:undname.obj
 0002:000074ba       ??_C@_00CNPNBAHC@@         00000001800724ba     libvcruntime:undname.obj
 0002:000074bc       ??_C@_04NIHEBCM@?5new@     00000001800724bc     libvcruntime:undname.obj
 0002:000074c8       ??_C@_07FPCDHGMM@?5delete@ 00000001800724c8     libvcruntime:undname.obj
 0002:000074d0       ??_C@_01NEMOKFLO@?$DN@     00000001800724d0     libvcruntime:undname.obj
 0002:000074d4       ??_C@_02GPIOPFAK@?$DO?$DO@ 00000001800724d4     libvcruntime:undname.obj
 0002:000074d8       ??_C@_02FODMEDOG@?$DM?$DM@ 00000001800724d8     libvcruntime:undname.obj
 0002:000074dc       ??_C@_01DCLJPIOD@?$CB@     00000001800724dc     libvcruntime:undname.obj
 0002:000074e0       ??_C@_02EGOFBIJA@?$DN?$DN@ 00000001800724e0     libvcruntime:undname.obj
 0002:000074e4       ??_C@_02FDNJECIE@?$CB?$DN@ 00000001800724e4     libvcruntime:undname.obj
 0002:000074e8       ??_C@_02GPECMEKF@?$FL?$FN@ 00000001800724e8     libvcruntime:undname.obj
 0002:000074f0       ??_C@_08LHJFAFGD@operator@ 00000001800724f0     libvcruntime:undname.obj
 0002:000074fc       ??_C@_02HBOOOICD@?9?$DO@   00000001800724fc     libvcruntime:undname.obj
 0002:00007500       ??_C@_01NBENCBCI@?$CK@     0000000180072500     libvcruntime:undname.obj
 0002:00007504       ??_C@_02ECNGHCIF@?$CL?$CL@ 0000000180072504     libvcruntime:undname.obj
 0002:00007508       ??_C@_02BAABKJLB@?9?9@     0000000180072508     libvcruntime:undname.obj
 0002:0000750c       ??_C@_01JOAMLHOP@?9@       000000018007250c     libvcruntime:undname.obj
 0002:00007510       ??_C@_01MIFGBAGJ@?$CL@     0000000180072510     libvcruntime:undname.obj
 0002:00007514       ??_C@_01HNPIGOCE@?$CG@     0000000180072514     libvcruntime:undname.obj
 0002:00007518       ??_C@_03MNHNFDLC@?9?$DO?$CK@ 0000000180072518     libvcruntime:undname.obj
 0002:0000751c       ??_C@_01KMDKNFGN@?1@       000000018007251c     libvcruntime:undname.obj
 0002:00007520       ??_C@_01FGNFDNOH@?$CF@     0000000180072520     libvcruntime:undname.obj
 0002:00007524       ??_C@_01MNNFJEPP@?$DM@     0000000180072524     libvcruntime:undname.obj
 0002:00007528       ??_C@_02EHCHHCKH@?$DM?$DN@ 0000000180072528     libvcruntime:undname.obj
 0002:0000752c       ??_C@_01PPODPGHN@?$DO@     000000018007252c     libvcruntime:undname.obj
 0002:00007530       ??_C@_02EEKDKGMJ@?$DO?$DN@ 0000000180072530     libvcruntime:undname.obj
 0002:00007534       ??_C@_01IHBHIGKO@?0@       0000000180072534     libvcruntime:undname.obj
 0002:00007538       ??_C@_02HCKGKOFO@?$CI?$CJ@ 0000000180072538     libvcruntime:undname.obj
 0002:0000753c       ??_C@_01PJKLJHI@?$HO@      000000018007253c     libvcruntime:undname.obj
 0002:00007540       ??_C@_01JKBOJNNK@?$FO@     0000000180072540     libvcruntime:undname.obj
 0002:00007544       ??_C@_01DNKMNLPK@?$HM@     0000000180072544     libvcruntime:undname.obj
 0002:00007548       ??_C@_02PPKAJPJL@?$CG?$CG@ 0000000180072548     libvcruntime:undname.obj
 0002:0000754c       ??_C@_02NONPIBCD@?$HM?$HM@ 000000018007254c     libvcruntime:undname.obj
 0002:00007550       ??_C@_02FPIMKNGF@?$CK?$DN@ 0000000180072550     libvcruntime:undname.obj
 0002:00007554       ??_C@_02FOEOMHFC@?$CL?$DN@ 0000000180072554     libvcruntime:undname.obj
 0002:00007558       ??_C@_02FKMDLLOA@?9?$DN@   0000000180072558     libvcruntime:undname.obj
 0002:0000755c       ??_C@_02FJEHGPIO@?1?$DN@   000000018007255c     libvcruntime:undname.obj
 0002:00007560       ??_C@_02FENAOKFI@?$CF?$DN@ 0000000180072560     libvcruntime:undname.obj
 0002:00007564       ??_C@_03IKFCCPFF@?$DO?$DO?$DN@ 0000000180072564     libvcruntime:undname.obj
 0002:00007568       ??_C@_03CDNPDDLA@?$DM?$DM?$DN@ 0000000180072568     libvcruntime:undname.obj
 0002:0000756c       ??_C@_02FGJGFEAB@?$CG?$DN@ 000000018007256c     libvcruntime:undname.obj
 0002:00007570       ??_C@_02DHLNPPGH@?$HM?$DN@ 0000000180072570     libvcruntime:undname.obj
 0002:00007574       ??_C@_02MHEGNOJ@?$FO?$DN@  0000000180072574     libvcruntime:undname.obj
 0002:00007578       ??_C@_09IFPLHPGF@?$GAvftable?8@ 0000000180072578     libvcruntime:undname.obj
 0002:00007588       ??_C@_09BLBHBJP@?$GAvbtable?8@ 0000000180072588     libvcruntime:undname.obj
 0002:00007598       ??_C@_07FEEIOKP@?$GAvcall?8@ 0000000180072598     libvcruntime:undname.obj
 0002:000075a0       ??_C@_08LLFFHHDJ@?$GAtypeof?8@ 00000001800725a0     libvcruntime:undname.obj
 0002:000075b0       ??_C@_0BF@KDPPACIK@?$GAlocal?5static?5guard?8@ 00000001800725b0     libvcruntime:undname.obj
 0002:000075c8       ??_C@_08OBABFOLI@?$GAstring?8@ 00000001800725c8     libvcruntime:undname.obj
 0002:000075d8       ??_C@_0BD@JDLKDPAB@?$GAvbase?5destructor?8@ 00000001800725d8     libvcruntime:undname.obj
 0002:000075f0       ??_C@_0BN@DEGPLNFK@?$GAvector?5deleting?5destructor?8@ 00000001800725f0     libvcruntime:undname.obj
 0002:00007610       ??_C@_0BO@OBMKPJIG@?$GAdefault?5constructor?5closure?8@ 0000000180072610     libvcruntime:undname.obj
 0002:00007630       ??_C@_0BN@IMDCHIKM@?$GAscalar?5deleting?5destructor?8@ 0000000180072630     libvcruntime:undname.obj
 0002:00007650       ??_C@_0BO@PFGOCPJJ@?$GAvector?5constructor?5iterator?8@ 0000000180072650     libvcruntime:undname.obj
 0002:00007670       ??_C@_0BN@LFPFMEDL@?$GAvector?5destructor?5iterator?8@ 0000000180072670     libvcruntime:undname.obj
 0002:00007690       ??_C@_0CE@IKBNEHA@?$GAvector?5vbase?5constructor?5itera@ 0000000180072690     libvcruntime:undname.obj
 0002:000076b8       ??_C@_0BL@NILFHHPC@?$GAvirtual?5displacement?5map?8@ 00000001800726b8     libvcruntime:undname.obj
 0002:000076d8       ??_C@_0CB@JONCMFFK@?$GAeh?5vector?5constructor?5iterator@ 00000001800726d8     libvcruntime:undname.obj
 0002:00007700       ??_C@_0CA@GCEOPDGL@?$GAeh?5vector?5destructor?5iterator?8@ 0000000180072700     libvcruntime:undname.obj
 0002:00007720       ??_C@_0CH@OOJPLCPH@?$GAeh?5vector?5vbase?5constructor?5it@ 0000000180072720     libvcruntime:undname.obj
 0002:00007748       ??_C@_0BL@LLKPOHJI@?$GAcopy?5constructor?5closure?8@ 0000000180072748     libvcruntime:undname.obj
 0002:00007768       ??_C@_0BA@KBCDOMBN@?$GAudt?5returning?8@ 0000000180072768     libvcruntime:undname.obj
 0002:00007778       ??_C@_03KLGMFNMG@?$GAEH@   0000000180072778     libvcruntime:undname.obj
 0002:0000777c       ??_C@_05KHLCHHI@?$GARTTI@  000000018007277c     libvcruntime:undname.obj
 0002:00007788       ??_C@_0BA@KKLDJDLB@?$GAlocal?5vftable?8@ 0000000180072788     libvcruntime:undname.obj
 0002:00007798       ??_C@_0CE@IIHCMGGL@?$GAlocal?5vftable?5constructor?5clos@ 0000000180072798     libvcruntime:undname.obj
 0002:000077bc       ??_C@_06FHBGPFGH@?5new?$FL?$FN@ 00000001800727bc     libvcruntime:undname.obj
 0002:000077c8       ??_C@_09LBNFPBCA@?5delete?$FL?$FN@ 00000001800727c8     libvcruntime:undname.obj
 0002:000077d8       ??_C@_0P@HJKNJFNN@?$GAomni?5callsig?8@ 00000001800727d8     libvcruntime:undname.obj
 0002:000077e8       ??_C@_0BL@CNOONJFP@?$GAplacement?5delete?5closure?8@ 00000001800727e8     libvcruntime:undname.obj
 0002:00007808       ??_C@_0BN@CKNJLHMB@?$GAplacement?5delete?$FL?$FN?5closure?8@ 0000000180072808     libvcruntime:undname.obj
 0002:00007828       ??_C@_0CG@CFDHKGGD@?$GAmanaged?5vector?5constructor?5ite@ 0000000180072828     libvcruntime:undname.obj
 0002:00007850       ??_C@_0CF@IMGKMJNO@?$GAmanaged?5vector?5destructor?5iter@ 0000000180072850     libvcruntime:undname.obj
 0002:00007878       ??_C@_0CG@HLDDJMAG@?$GAeh?5vector?5copy?5constructor?5ite@ 0000000180072878     libvcruntime:undname.obj
 0002:000078a0       ??_C@_0CM@FCBBDIGB@?$GAeh?5vector?5vbase?5copy?5construct@ 00000001800728a0     libvcruntime:undname.obj
 0002:000078d0       ??_C@_0BL@CLIPGLGB@?$GAdynamic?5initializer?5for?5?8@ 00000001800728d0     libvcruntime:undname.obj
 0002:000078f0       ??_C@_0CB@PDBIFEP@?$GAdynamic?5atexit?5destructor?5for?5@ 00000001800728f0     libvcruntime:undname.obj
 0002:00007918       ??_C@_0CD@CGAJBKEJ@?$GAvector?5copy?5constructor?5iterat@ 0000000180072918     libvcruntime:undname.obj
 0002:00007940       ??_C@_0CJ@GJELGAMM@?$GAvector?5vbase?5copy?5constructor?5@ 0000000180072940     libvcruntime:undname.obj
 0002:00007970       ??_C@_0CL@FGIJHLCE@?$GAmanaged?5vector?5copy?5constructo@ 0000000180072970     libvcruntime:undname.obj
 0002:000079a0       ??_C@_0BM@PMGGMLDN@?$GAlocal?5static?5thread?5guard?8@ 00000001800729a0     libvcruntime:undname.obj
 0002:000079c0       ??_C@_0N@BDNMDMOL@operator?5?$CC?$CC?5@ 00000001800729c0     libvcruntime:undname.obj
 0002:000079d0       ??_C@_0BC@GGEBGALA@operator?5co_await@ 00000001800729d0     libvcruntime:undname.obj
 0002:000079e8       ??_C@_0BC@DAFEJGAK@?5Type?5Descriptor?8@ 00000001800729e8     libvcruntime:undname.obj
 0002:00007a00       ??_C@_0BM@LDKODKLH@?5Base?5Class?5Descriptor?5at?5?$CI@ 0000000180072a00     libvcruntime:undname.obj
 0002:00007a20       ??_C@_0BD@LGICGFMM@?5Base?5Class?5Array?8@ 0000000180072a20     libvcruntime:undname.obj
 0002:00007a38       ??_C@_0BN@MECKDCOJ@?5Class?5Hierarchy?5Descriptor?8@ 0000000180072a38     libvcruntime:undname.obj
 0002:00007a58       ??_C@_0BK@CFCOFLF@?5Complete?5Object?5Locator?8@ 0000000180072a58     libvcruntime:undname.obj
 0002:00007a90       ??_C@_1DM@KHCHBNEB@?$AAa?$AAp?$AAi?$AA?9?$AAm?$AAs?$AA?9?$AAw?$AAi?$AAn?$AA?9?$AAc?$AAo?$AAr?$AAe@ 0000000180072a90     libvcruntime:winapi_downlevel.obj
 0002:00007ad0       ??_C@_1DK@LPPGFMPP@?$AAa?$AAp?$AAi?$AA?9?$AAm?$AAs?$AA?9?$AAw?$AAi?$AAn?$AA?9?$AAc?$AAo?$AAr?$AAe@ 0000000180072ad0     libvcruntime:winapi_downlevel.obj
 0002:00007b10       ??_C@_1BC@GDMECMAK@?$AAk?$AAe?$AAr?$AAn?$AAe?$AAl?$AA3?$AA2@ 0000000180072b10     libvcruntime:winapi_downlevel.obj
 0002:00007b28       ??_C@_1BA@PFFKHIOG@?$AAa?$AAp?$AAi?$AA?9?$AAm?$AAs?$AA?9@ 0000000180072b28     libvcruntime:winapi_downlevel.obj
 0002:00007b38       ??_C@_1BA@IAIFMGEF@?$AAe?$AAx?$AAt?$AA?9?$AAm?$AAs?$AA?9@ 0000000180072b38     libvcruntime:winapi_downlevel.obj
 0002:00007b50       ??_C@_08KNHFBNJ@FlsAlloc@  0000000180072b50     libvcruntime:winapi_downlevel.obj
 0002:00007b68       ??_C@_07PEJMOBNF@FlsFree@  0000000180072b68     libvcruntime:winapi_downlevel.obj
 0002:00007b78       ??_C@_0M@GDNOONDI@FlsGetValue@ 0000000180072b78     libvcruntime:winapi_downlevel.obj
 0002:00007b90       ??_C@_0M@JCPCPOEF@FlsSetValue@ 0000000180072b90     libvcruntime:winapi_downlevel.obj
 0002:00007ba8       ??_C@_0BM@HCFOFFN@InitializeCriticalSectionEx@ 0000000180072ba8     libvcruntime:winapi_downlevel.obj
 0002:00007bd0       ??_C@_1FE@LHBLIKM@?$AAA?$AAs?$AAs?$AAe?$AAr?$AAt?$AAi?$AAo?$AAn?$AA?5?$AAf?$AAa?$AAi?$AAl?$AAe?$AAd?$AA?3?$AA?5?$AA?$CF?$AAT?$AAs?$AA?0?$AA?5?$AAf?$AAi?$AAl?$AAe?$AA?5?$AA?$CF?$AAT?$AAs?$AA?0@ 0000000180072bd0     libucrt:assert.obj
 0002:00007c30       ??_C@_1EK@MBDPDCGA@?$AAM?$AAi?$AAc?$AAr?$AAo?$AAs?$AAo?$AAf?$AAt?$AA?5?$AAV?$AAi?$AAs?$AAu?$AAa?$AAl?$AA?5?$AAC?$AA?$CL?$AA?$CL?$AA?5?$AAR?$AAu?$AAn?$AAt?$AAi?$AAm?$AAe?$AA?5?$AAL?$AAi?$AAb@ 0000000180072c30     libucrt:assert.obj
 0002:00007c80       ??_C@_1CE@OJBNHDMO@?$AAA?$AAs?$AAs?$AAe?$AAr?$AAt?$AAi?$AAo?$AAn?$AA?5?$AAf?$AAa?$AAi?$AAl?$AAe?$AAd?$AA?$CB?$AA?$AA@ 0000000180072c80     libucrt:assert.obj
 0002:00007ca8       ??_C@_1BE@PHKBBGE@?$AAP?$AAr?$AAo?$AAg?$AAr?$AAa?$AAm?$AA?3?$AA?5?$AA?$AA@ 0000000180072ca8     libucrt:assert.obj
 0002:00007cc0       ??_C@_1O@HEMHKNDC@?$AAF?$AAi?$AAl?$AAe?$AA?3?$AA?5?$AA?$AA@ 0000000180072cc0     libucrt:assert.obj
 0002:00007cd0       ??_C@_1O@KCAFKHJE@?$AAL?$AAi?$AAn?$AAe?$AA?3?$AA?5?$AA?$AA@ 0000000180072cd0     libucrt:assert.obj
 0002:00007ce0       ??_C@_1BK@PEDCIPMA@?$AAE?$AAx?$AAp?$AAr?$AAe?$AAs?$AAs?$AAi?$AAo?$AAn?$AA?3?$AA?5?$AA?$AA@ 0000000180072ce0     libucrt:assert.obj
 0002:00007d00       ??_C@_1OA@EGMLFBHJ@?$AAF?$AAo?$AAr?$AA?5?$AAi?$AAn?$AAf?$AAo?$AAr?$AAm?$AAa?$AAt?$AAi?$AAo?$AAn?$AA?5?$AAo?$AAn?$AA?5?$AAh?$AAo?$AAw?$AA?5?$AAy?$AAo?$AAu?$AAr?$AA?5?$AAp?$AAr?$AAo?$AAg@ 0000000180072d00     libucrt:assert.obj
 0002:00007de0       ??_C@_1HK@POCJMFGK@?$AA?$CI?$AAP?$AAr?$AAe?$AAs?$AAs?$AA?5?$AAR?$AAe?$AAt?$AAr?$AAy?$AA?5?$AAt?$AAo?$AA?5?$AAd?$AAe?$AAb?$AAu?$AAg?$AA?5?$AAt?$AAh?$AAe?$AA?5?$AAa?$AAp?$AAp?$AAl?$AAi?$AAc@ 0000000180072de0     libucrt:assert.obj
 0002:00007e60       ??_C@_17LGKOMLJ@?$AA?4?$AA?4?$AA?4?$AA?$AA@ 0000000180072e60     libucrt:assert.obj
 0002:00007e68       ??_C@_13LBAGMAIH@?$AA?6?$AA?$AA@ 0000000180072e68     libucrt:assert.obj
 0002:00007e6c       ??_C@_15IABLJNFO@?$AA?6?$AA?6?$AA?$AA@ 0000000180072e6c     libucrt:assert.obj
 0002:00007e78       ??_C@_1CO@EAEJAADC@?$AA?$DM?$AAp?$AAr?$AAo?$AAg?$AAr?$AAa?$AAm?$AA?5?$AAn?$AAa?$AAm?$AAe?$AA?5?$AAu?$AAn?$AAk?$AAn?$AAo?$AAw?$AAn?$AA?$DO?$AA?$AA@ 0000000180072e78     libucrt:assert.obj
 0002:00007ea8       ??_C@_04PDIFKINK@acos?$AA@ 0000000180072ea8     libucrt:acos.obj
 0002:00007eb0       __real@3c91a62633145c07    0000000180072eb0     libucrt:acos.obj
 0002:00007eb8       __real@3f0951665d321061    0000000180072eb8     libucrt:acos.obj
 0002:00007ec0       __real@3f51e5f887a62135    0000000180072ec0     libucrt:acos.obj
 0002:00007ec8       __real@3fac28d390c29690    0000000180072ec8     libucrt:acos.obj
 0002:00007ed0       __real@3fbb1a422982ce76    0000000180072ed0     libucrt:acos.obj
 0002:00007ed8       __real@3fcd1e4180029834    0000000180072ed8     libucrt:acos.obj
 0002:00007ee0       __real@3fd1a2bec1b7ef59    0000000180072ee0     libucrt:acos.obj
 0002:00007ee8       __real@3fdc7b297e269eac    0000000180072ee8     libucrt:acos.obj
 0002:00007ef0       __real@3fee324ab418f78d    0000000180072ef0     libucrt:acos.obj
 0002:00007ef8       __real@3ff5d6b12001f228    0000000180072ef8     libucrt:acos.obj
 0002:00007f00       __real@3ff921fb54442d18    0000000180072f00     libucrt:acos.obj
 0002:00007f08       __real@40062021571dccfc    0000000180072f08     libucrt:acos.obj
 0002:00007f10       __real@400921fb54442d18    0000000180072f10     libucrt:acos.obj
 0002:00007f18       __real@400a4646f903cdea    0000000180072f18     libucrt:acos.obj
 0002:00007f20       ??_C@_04FIHNOPOL@asin?$AA@ 0000000180072f20     libucrt:asin.obj
 0002:00007f28       __real@3fe921fb54442d18    0000000180072f28     libucrt:asin.obj
 0002:00007f30       __real@bff921fb54442d18    0000000180072f30     libucrt:asin.obj
 0002:00007f38       __real@3c7007887af0cbbc    0000000180072f38     libucrt:atan.obj
 0002:00007f40       __real@3c7a2b7f222f65e0    0000000180072f40     libucrt:atan.obj
 0002:00007f48       __real@3c81a62633145c06    0000000180072f48     libucrt:atan.obj
 0002:00007f50       __real@3c91a62633145c06    0000000180072f50     libucrt:atan.obj
 0002:00007f58       __real@3f22a75ce41b9f87    0000000180072f58     libucrt:atan.obj
 0002:00007f60       __real@3f9f2d2116f053f2    0000000180072f60     libucrt:atan.obj
 0002:00007f68       __real@3fa3f197f1e85ed9    0000000180072f68     libucrt:atan.obj
 0002:00007f70       __real@3fcc3de43db425c0    0000000180072f70     libucrt:atan.obj
 0002:00007f78       __real@3fd12bcb0a9169f3    0000000180072f78     libucrt:atan.obj
 0002:00007f80       __real@3fdb2cb05bf9beff    0000000180072f80     libucrt:atan.obj
 0002:00007f88       __real@3fdca6be4c993b3c    0000000180072f88     libucrt:atan.obj
 0002:00007f90       __real@3fddac670561bb4f    0000000180072f90     libucrt:atan.obj
 0002:00007f98       __real@3fe9c1b08fda1eec    0000000180072f98     libucrt:atan.obj
 0002:00007fa0       __real@3fef730bd281f69b    0000000180072fa0     libucrt:atan.obj
 0002:00007fa8       __real@3ff699c644c48d2e    0000000180072fa8     libucrt:atan.obj
 0002:00007fb0       __real@3ffd372a17cdf5a0    0000000180072fb0     libucrt:atan.obj
 0002:00007fb8       __real@43d0dc0000000000    0000000180072fb8     libucrt:atan.obj
 0002:00007fc0       ??_C@_04EIAKFFMI@sqrt?$AA@ 0000000180072fc0     libucrt:sqrt.obj
 0002:00008768       ??_C@_04HPJJNFIM@cosh?$AA@ 0000000180073768     libucrt:cosh.obj
 0002:00008770       __real@3d6b4125921ea08b    0000000180073770     libucrt:cosh.obj
 0002:00008778       __real@3da9984b7f63fcd7    0000000180073778     libucrt:cosh.obj
 0002:00008780       __real@3dcf473de6af278e    0000000180073780     libucrt:cosh.obj
 0002:00008788       __real@3de611cb2bdcb7be    0000000180073788     libucrt:cosh.obj
 0002:00008790       __real@3e21ee56385b7b20    0000000180073790     libucrt:cosh.obj
 0002:00008798       __real@3e5ae6460fbe61c0    0000000180073798     libucrt:cosh.obj
 0002:000087a0       __real@3e927e5069f1cb55    00000001800737a0     libucrt:cosh.obj
 0002:000087a8       __real@3ec71de3a4e13e7d    00000001800737a8     libucrt:cosh.obj
 0002:000087b0       __real@3efa01a019079011    00000001800737b0     libucrt:cosh.obj
 0002:000087b8       __real@3f2a01a01a01ee80    00000001800737b8     libucrt:cosh.obj
 0002:000087c0       __real@3f56c16c16c212e5    00000001800737c0     libucrt:cosh.obj
 0002:000087c8       __real@3f56c1728d739765    00000001800737c8     libucrt:cosh.obj
 0002:000087d0       __real@3f811111111110fd    00000001800737d0     libucrt:cosh.obj
 0002:000087d8       __real@3f811115b7aa905e    00000001800737d8     libucrt:cosh.obj
 0002:000087e0       __real@3f962e42fe000000    00000001800737e0     libucrt:cosh.obj
 0002:000087e8       __real@3fa5555555545d4e    00000001800737e8     libucrt:cosh.obj
 0002:000087f0       __real@3fa5555555555502    00000001800737f0     libucrt:cosh.obj
 0002:000087f8       __real@3fc5555555548f7c    00000001800737f8     libucrt:cosh.obj
 0002:00008800       __real@3fc5555555555555    0000000180073800     libucrt:cosh.obj
 0002:00008808       __real@4034000000000000    0000000180073808     libucrt:cosh.obj
 0002:00008810       __real@40471547652b82fe    0000000180073810     libucrt:cosh.obj
 0002:00008818       __real@408633ce8fb9f87e    0000000180073818     libucrt:cosh.obj
 0002:00009518       ??_C@_04COOMCNPB@sinh?$AA@ 0000000180074518     libucrt:sinh.obj
 0002:00009520       __real@40420fd21b95825f    0000000180074520     libucrt:sinh.obj
 0002:000098c0       __real@3e48cc5a847e6cec    00000001800748c0     libucrt:tanh.obj
 0002:000098c8       __real@3e4e82d10d09af81    00000001800748c8     libucrt:tanh.obj
 0002:000098d0       __real@3f26af77f334e750    00000001800748d0     libucrt:tanh.obj
 0002:000098d8       __real@3f2b68b3cecad284    00000001800748d8     libucrt:tanh.obj
 0002:000098e0       __real@3f8defad6e212118    00000001800748e0     libucrt:tanh.obj
 0002:000098e8       __real@3f912335baec487f    00000001800748e8     libucrt:tanh.obj
 0002:000098f0       __real@3f920629b90302ae    00000001800748f0     libucrt:tanh.obj
 0002:000098f8       __real@3f94a3d4cc7a88a9    00000001800748f8     libucrt:tanh.obj
 0002:00009900       __real@3fcd28597c5ae288    0000000180074900     libucrt:tanh.obj
 0002:00009908       __real@3fd189b6e8007758    0000000180074908     libucrt:tanh.obj
 0002:00009910       __real@3fd44d1459bcc5f6    0000000180074910     libucrt:tanh.obj
 0002:00009918       __real@3fd86cd01c4ab94c    0000000180074918     libucrt:tanh.obj
 0002:00009920       __real@3fe5de431d442afd    0000000180074920     libucrt:tanh.obj
 0002:00009928       __real@3fea4e925c00b304    0000000180074928     libucrt:tanh.obj
 0002:00009930       __real@3feccccccccccccd    0000000180074930     libucrt:tanh.obj
 0002:00009938       __real@bf25b483c69835dd    0000000180074938     libucrt:tanh.obj
 0002:00009940       __real@bf2a387bfaf479c9    0000000180074940     libucrt:tanh.obj
 0002:00009950       __acrt_exception_action_table 0000000180074950     libucrt:exception_filter.obj
 0002:00009a10       __acrt_signal_action_table_count 0000000180074a10     libucrt:exception_filter.obj
 0002:00009a18       __acrt_signal_action_first_fpe_index 0000000180074a18     libucrt:exception_filter.obj
 0002:00009a20       __acrt_signal_action_fpe_count 0000000180074a20     libucrt:exception_filter.obj
 0002:00009a28       ??_C@_1BI@BGOHAHKC@?$AAm?$AAs?$AAc?$AAo?$AAr?$AAe?$AAe?$AA?4?$AAd?$AAl?$AAl?$AA?$AA@ 0000000180074a28     libucrt:exit.obj
 0002:00009a40       ??_C@_0P@MIGLKIOC@CorExitProcess?$AA@ 0000000180074a40     libucrt:exit.obj
 0002:00009b50       standard_lookup_table      0000000180074b50     libucrt:output.obj
 0002:00009bb0       ??_C@_1O@CEDCILHN@?$AA?$CI?$AAn?$AAu?$AAl?$AAl?$AA?$CJ?$AA?$AA@ 0000000180074bb0     libucrt:output.obj
 0002:00009bc0       ??_C@_06OJHGLDPL@?$CInull?$CJ?$AA@ 0000000180074bc0     libucrt:output.obj
 0002:00009d40       __lc_time_c                0000000180074d40     libucrt:nlsdata.obj
 0002:0000a000       ??_C@_03KOEHGMDN@Sun?$AA@  0000000180075000     libucrt:nlsdata.obj
 0002:0000a004       ??_C@_03PDAGKDH@Mon?$AA@   0000000180075004     libucrt:nlsdata.obj
 0002:0000a008       ??_C@_03NAGEINEP@Tue?$AA@  0000000180075008     libucrt:nlsdata.obj
 0002:0000a00c       ??_C@_03MHOMLAJA@Wed?$AA@  000000018007500c     libucrt:nlsdata.obj
 0002:0000a010       ??_C@_03IOFIKPDN@Thu?$AA@  0000000180075010     libucrt:nlsdata.obj
 0002:0000a014       ??_C@_03IDIOELNC@Fri?$AA@  0000000180075014     libucrt:nlsdata.obj
 0002:0000a018       ??_C@_03FEFJNEK@Sat?$AA@   0000000180075018     libucrt:nlsdata.obj
 0002:0000a01c       ??_C@_06OOPIFAJ@Sunday?$AA@ 000000018007501c     libucrt:nlsdata.obj
 0002:0000a024       ??_C@_06JLEDEDGH@Monday?$AA@ 0000000180075024     libucrt:nlsdata.obj
 0002:0000a030       ??_C@_07BAAGCFCM@Tuesday?$AA@ 0000000180075030     libucrt:nlsdata.obj
 0002:0000a038       ??_C@_09DLIGFAKA@Wednesday?$AA@ 0000000180075038     libucrt:nlsdata.obj
 0002:0000a048       ??_C@_08HACCIKIA@Thursday?$AA@ 0000000180075048     libucrt:nlsdata.obj
 0002:0000a054       ??_C@_06JECMNKMI@Friday?$AA@ 0000000180075054     libucrt:nlsdata.obj
 0002:0000a060       ??_C@_08INBOOONO@Saturday?$AA@ 0000000180075060     libucrt:nlsdata.obj
 0002:0000a06c       ??_C@_03JIHJHPIE@Jan?$AA@  000000018007506c     libucrt:nlsdata.obj
 0002:0000a070       ??_C@_03HJBDCHOM@Feb?$AA@  0000000180075070     libucrt:nlsdata.obj
 0002:0000a074       ??_C@_03ODNJBKGA@Mar?$AA@  0000000180075074     libucrt:nlsdata.obj
 0002:0000a078       ??_C@_03LEOLGMJP@Apr?$AA@  0000000180075078     libucrt:nlsdata.obj
 0002:0000a07c       ??_C@_03CNMDKL@May?$AA@    000000018007507c     libucrt:nlsdata.obj
 0002:0000a080       ??_C@_03IDFGHECI@Jun?$AA@  0000000180075080     libucrt:nlsdata.obj
 0002:0000a084       ??_C@_03LBGABGKK@Jul?$AA@  0000000180075084     libucrt:nlsdata.obj
 0002:0000a088       ??_C@_03IFJFEIGA@Aug?$AA@  0000000180075088     libucrt:nlsdata.obj
 0002:0000a08c       ??_C@_03GGCAPAJC@Sep?$AA@  000000018007508c     libucrt:nlsdata.obj
 0002:0000a090       ??_C@_03BMAOKBAD@Oct?$AA@  0000000180075090     libucrt:nlsdata.obj
 0002:0000a094       ??_C@_03JPJOFNIA@Nov?$AA@  0000000180075094     libucrt:nlsdata.obj
 0002:0000a098       ??_C@_03MKABNOCG@Dec?$AA@  0000000180075098     libucrt:nlsdata.obj
 0002:0000a0a0       ??_C@_07CGJPFGJA@January?$AA@ 00000001800750a0     libucrt:nlsdata.obj
 0002:0000a0a8       ??_C@_08GNJGEPFN@February?$AA@ 00000001800750a8     libucrt:nlsdata.obj
 0002:0000a0b4       ??_C@_05HPCKOFNC@March?$AA@ 00000001800750b4     libucrt:nlsdata.obj
 0002:0000a0bc       ??_C@_05DMJDNLEJ@April?$AA@ 00000001800750bc     libucrt:nlsdata.obj
 0002:0000a0c4       ??_C@_04CNLMGBGM@June?$AA@ 00000001800750c4     libucrt:nlsdata.obj
 0002:0000a0cc       ??_C@_04MIEPOIFP@July?$AA@ 00000001800750cc     libucrt:nlsdata.obj
 0002:0000a0d4       ??_C@_06LBBHFDDG@August?$AA@ 00000001800750d4     libucrt:nlsdata.obj
 0002:0000a0e0       ??_C@_09BHHEALKD@September?$AA@ 00000001800750e0     libucrt:nlsdata.obj
 0002:0000a0f0       ??_C@_07JJNFCEND@October?$AA@ 00000001800750f0     libucrt:nlsdata.obj
 0002:0000a0f8       ??_C@_08HCHEGEOA@November?$AA@ 00000001800750f8     libucrt:nlsdata.obj
 0002:0000a108       ??_C@_08EDHMEBNP@December?$AA@ 0000000180075108     libucrt:nlsdata.obj
 0002:0000a114       ??_C@_02DEDBPAFC@AM?$AA@   0000000180075114     libucrt:nlsdata.obj
 0002:0000a118       ??_C@_02CJNFDJBF@PM?$AA@   0000000180075118     libucrt:nlsdata.obj
 0002:0000a120       ??_C@_08BPBNCDIB@MM?1dd?1yy?$AA@ 0000000180075120     libucrt:nlsdata.obj
 0002:0000a130       ??_C@_0BE@CKGJFCPC@dddd?0?5MMMM?5dd?0?5yyyy?$AA@ 0000000180075130     libucrt:nlsdata.obj
 0002:0000a148       ??_C@_08JCCMCCIL@HH?3mm?3ss?$AA@ 0000000180075148     libucrt:nlsdata.obj
 0002:0000a158       ??_C@_17MBGCMIPB@?$AAS?$AAu?$AAn?$AA?$AA@ 0000000180075158     libucrt:nlsdata.obj
 0002:0000a160       ??_C@_17KBOMKBF@?$AAM?$AAo?$AAn?$AA?$AA@ 0000000180075160     libucrt:nlsdata.obj
 0002:0000a168       ??_C@_17BMKGEGOJ@?$AAT?$AAu?$AAe?$AA?$AA@ 0000000180075168     libucrt:nlsdata.obj
 0002:0000a170       ??_C@_17CJEDCEPE@?$AAW?$AAe?$AAd?$AA?$AA@ 0000000180075170     libucrt:nlsdata.obj
 0002:0000a178       ??_C@_17PDPHAADD@?$AAT?$AAh?$AAu?$AA?$AA@ 0000000180075178     libucrt:nlsdata.obj
 0002:0000a180       ??_C@_17HFOLPPLP@?$AAF?$AAr?$AAi?$AA?$AA@ 0000000180075180     libucrt:nlsdata.obj
 0002:0000a188       ??_C@_17GGIBDPIH@?$AAS?$AAa?$AAt?$AA?$AA@ 0000000180075188     libucrt:nlsdata.obj
 0002:0000a190       ??_C@_1O@IHNHDHPB@?$AAS?$AAu?$AAn?$AAd?$AAa?$AAy?$AA?$AA@ 0000000180075190     libucrt:nlsdata.obj
 0002:0000a1a0       ??_C@_1O@MMNBFLIA@?$AAM?$AAo?$AAn?$AAd?$AAa?$AAy?$AA?$AA@ 00000001800751a0     libucrt:nlsdata.obj
 0002:0000a1b0       ??_C@_1BA@ENFBFFEK@?$AAT?$AAu?$AAe?$AAs?$AAd?$AAa?$AAy?$AA?$AA@ 00000001800751b0     libucrt:nlsdata.obj
 0002:0000a1c0       ??_C@_1BE@EBOGMDOH@?$AAW?$AAe?$AAd?$AAn?$AAe?$AAs?$AAd?$AAa?$AAy?$AA?$AA@ 00000001800751c0     libucrt:nlsdata.obj
 0002:0000a1d8       ??_C@_1BC@HHMNLIHE@?$AAT?$AAh?$AAu?$AAr?$AAs?$AAd?$AAa?$AAy?$AA?$AA@ 00000001800751d8     libucrt:nlsdata.obj
 0002:0000a1f0       ??_C@_1O@PDICJHAG@?$AAF?$AAr?$AAi?$AAd?$AAa?$AAy?$AA?$AA@ 00000001800751f0     libucrt:nlsdata.obj
 0002:0000a200       ??_C@_1BC@ENMNNPAJ@?$AAS?$AAa?$AAt?$AAu?$AAr?$AAd?$AAa?$AAy?$AA?$AA@ 0000000180075200     libucrt:nlsdata.obj
 0002:0000a218       ??_C@_17DKNBKCHM@?$AAJ?$AAa?$AAn?$AA?$AA@ 0000000180075218     libucrt:nlsdata.obj
 0002:0000a220       ??_C@_17LMDJEKJN@?$AAF?$AAe?$AAb?$AA?$AA@ 0000000180075220     libucrt:nlsdata.obj
 0002:0000a228       ??_C@_17CKNLEDEC@?$AAM?$AAa?$AAr?$AA?$AA@ 0000000180075228     libucrt:nlsdata.obj
 0002:0000a230       ??_C@_17LFPOIHDD@?$AAA?$AAp?$AAr?$AA?$AA@ 0000000180075230     libucrt:nlsdata.obj
 0002:0000a238       ??_C@_17PNNKMEED@?$AAM?$AAa?$AAy?$AA?$AA@ 0000000180075238     libucrt:nlsdata.obj
 0002:0000a240       ??_C@_17KCJGOCPB@?$AAJ?$AAu?$AAn?$AA?$AA@ 0000000180075240     libucrt:nlsdata.obj
 0002:0000a248       ??_C@_17IJPCKHK@?$AAJ?$AAu?$AAl?$AA?$AA@ 0000000180075248     libucrt:nlsdata.obj
 0002:0000a250       ??_C@_17ICPELBCN@?$AAA?$AAu?$AAg?$AA?$AA@ 0000000180075250     libucrt:nlsdata.obj
 0002:0000a258       ??_C@_17HCHCOKMG@?$AAS?$AAe?$AAp?$AA?$AA@ 0000000180075258     libucrt:nlsdata.obj
 0002:0000a260       ??_C@_17FNLKOI@?$AAO?$AAc?$AAt?$AA?$AA@ 0000000180075260     libucrt:nlsdata.obj
 0002:0000a268       ??_C@_17BBDMLCIG@?$AAN?$AAo?$AAv?$AA?$AA@ 0000000180075268     libucrt:nlsdata.obj
 0002:0000a270       ??_C@_17EGKACKIF@?$AAD?$AAe?$AAc?$AA?$AA@ 0000000180075270     libucrt:nlsdata.obj
 0002:0000a278       ??_C@_1BA@EFMEIEBA@?$AAJ?$AAa?$AAn?$AAu?$AAa?$AAr?$AAy?$AA?$AA@ 0000000180075278     libucrt:nlsdata.obj
 0002:0000a288       ??_C@_1BC@JGDDFFAM@?$AAF?$AAe?$AAb?$AAr?$AAu?$AAa?$AAr?$AAy?$AA?$AA@ 0000000180075288     libucrt:nlsdata.obj
 0002:0000a2a0       ??_C@_1M@IKEENEDF@?$AAM?$AAa?$AAr?$AAc?$AAh?$AA?$AA@ 00000001800752a0     libucrt:nlsdata.obj
 0002:0000a2b0       ??_C@_1M@GJNLMHFD@?$AAA?$AAp?$AAr?$AAi?$AAl?$AA?$AA@ 00000001800752b0     libucrt:nlsdata.obj
 0002:0000a2c0       ??_C@_19EPFLPGAP@?$AAJ?$AAu?$AAn?$AAe?$AA?$AA@ 00000001800752c0     libucrt:nlsdata.obj
 0002:0000a2d0       ??_C@_19BIFMLPCD@?$AAJ?$AAu?$AAl?$AAy?$AA?$AA@ 00000001800752d0     libucrt:nlsdata.obj
 0002:0000a2e0       ??_C@_1O@PAHLKOAC@?$AAA?$AAu?$AAg?$AAu?$AAs?$AAt?$AA?$AA@ 00000001800752e0     libucrt:nlsdata.obj
 0002:0000a2f0       ??_C@_1BE@DKAAMBJL@?$AAS?$AAe?$AAp?$AAt?$AAe?$AAm?$AAb?$AAe?$AAr?$AA?$AA@ 00000001800752f0     libucrt:nlsdata.obj
 0002:0000a308       ??_C@_1BA@EPANDLNG@?$AAO?$AAc?$AAt?$AAo?$AAb?$AAe?$AAr?$AA?$AA@ 0000000180075308     libucrt:nlsdata.obj
 0002:0000a318       ??_C@_1BC@BGLIFPF@?$AAN?$AAo?$AAv?$AAe?$AAm?$AAb?$AAe?$AAr?$AA?$AA@ 0000000180075318     libucrt:nlsdata.obj
 0002:0000a330       ??_C@_1BC@FEMKIFH@?$AAD?$AAe?$AAc?$AAe?$AAm?$AAb?$AAe?$AAr?$AA?$AA@ 0000000180075330     libucrt:nlsdata.obj
 0002:0000a344       ??_C@_15ODEHAHHF@?$AAA?$AAM?$AA?$AA@ 0000000180075344     libucrt:nlsdata.obj
 0002:0000a34c       ??_C@_15CLMNNGEL@?$AAP?$AAM?$AA?$AA@ 000000018007534c     libucrt:nlsdata.obj
 0002:0000a358       ??_C@_1BC@IEBCMHCM@?$AAM?$AAM?$AA?1?$AAd?$AAd?$AA?1?$AAy?$AAy?$AA?$AA@ 0000000180075358     libucrt:nlsdata.obj
 0002:0000a370       ??_C@_1CI@KNAKOEBC@?$AAd?$AAd?$AAd?$AAd?$AA?0?$AA?5?$AAM?$AAM?$AAM?$AAM?$AA?5?$AAd?$AAd?$AA?0?$AA?5?$AAy?$AAy?$AAy?$AAy?$AA?$AA@ 0000000180075370     libucrt:nlsdata.obj
 0002:0000a398       ??_C@_1BC@GDGBMEMK@?$AAH?$AAH?$AA?3?$AAm?$AAm?$AA?3?$AAs?$AAs?$AA?$AA@ 0000000180075398     libucrt:nlsdata.obj
 0002:0000a3b0       ??_C@_1M@BMHNFIME@?$AAe?$AAn?$AA?9?$AAU?$AAS?$AA?$AA@ 00000001800753b0     libucrt:nlsdata.obj
 0002:0000a3c0       __newctype                 00000001800753c0     libucrt:ctype.obj
 0002:0000a6c0       __newclmap                 00000001800756c0     libucrt:ctype.obj
 0002:0000a840       __newcumap                 0000000180075840     libucrt:ctype.obj
 0002:0000a9c0       _wctype                    00000001800759c0     libucrt:ctype.obj
 0002:0000abd0       __Lcosarray                0000000180075bd0     libucrt:lsincos_array.obj
 0002:0000ac30       __Lsinarray                0000000180075c30     libucrt:lsincos_array.obj
 0002:0000afb0       ??_C@_03BLEJJJBH@sin?$AA@  0000000180075fb0     libucrt:sincos_special.obj
 0002:0000afb4       ??_C@_03LALBNOCG@cos?$AA@  0000000180075fb4     libucrt:sincos_special.obj
 0002:0000afb8       ??_C@_03IIINPABG@tan?$AA@  0000000180075fb8     libucrt:sincos_special.obj
 0002:0000afc0       __two_to_jby64_table       0000000180075fc0     libucrt:two_to_jby64_table.obj
 0002:0000b1c0       __two_to_jby64_head_table  00000001800761c0     libucrt:two_to_jby64_head_tail_table.obj
 0002:0000b3c0       __two_to_jby64_tail_table  00000001800763c0     libucrt:two_to_jby64_head_tail_table.obj
 0002:0000b5c0       ??_C@_03KHJOGHMM@exp?$AA@  00000001800765c0     libucrt:exp_special.obj
 0002:0000b5d0       __log_256_lead             00000001800765d0     libucrt:log_256_lead_tail_table.obj
 0002:0000bde0       __log_256_tail             0000000180076de0     libucrt:log_256_lead_tail_table.obj
 0002:0000c5f0       __log_F_inv_qword          00000001800775f0     libucrt:log_f_inv_qword_table.obj
 0002:0000ce00       ??_C@_03MGHMBJCF@log?$AA@  0000000180077e00     libucrt:log_special.obj
 0002:0000ce04       ??_C@_05HGHHAHAP@log10?$AA@ 0000000180077e04     libucrt:log_special.obj
 0002:0000ce10       __log10_256_lead           0000000180077e10     libucrt:log10_256_lead_tail_table.obj
 0002:0000d620       __log10_256_tail           0000000180078620     libucrt:log10_256_lead_tail_table.obj
 0002:0000de48       ??_C@_1M@HPNHIDJI@?$AAj?$AAa?$AA?9?$AAJ?$AAP?$AA?$AA@ 0000000180078e48     libucrt:mbctype.obj
 0002:0000de58       ??_C@_1M@BIBDDEMK@?$AAz?$AAh?$AA?9?$AAC?$AAN?$AA?$AA@ 0000000180078e58     libucrt:mbctype.obj
 0002:0000de68       ??_C@_1M@JLOOOEGK@?$AAk?$AAo?$AA?9?$AAK?$AAR?$AA?$AA@ 0000000180078e68     libucrt:mbctype.obj
 0002:0000de78       ??_C@_1M@CLNBBOPM@?$AAz?$AAh?$AA?9?$AAT?$AAW?$AA?$AA@ 0000000180078e78     libucrt:mbctype.obj
 0002:0000df30       ??_C@_1EA@JGEFHKEI@?$AAa?$AAp?$AAi?$AA?9?$AAm?$AAs?$AA?9?$AAw?$AAi?$AAn?$AA?9?$AAc?$AAo?$AAr?$AAe?$AA?9?$AAd?$AAa?$AAt?$AAe?$AAt?$AAi?$AAm?$AAe?$AA?9?$AAl?$AA1?$AA?9?$AA1?$AA?9?$AA1?$AA?$AA@ 0000000180078f30     libucrt:winapi_thunks.obj
 0002:0000df70       ??_C@_1DM@KHCHBNEB@?$AAa?$AAp?$AAi?$AA?9?$AAm?$AAs?$AA?9?$AAw?$AAi?$AAn?$AA?9?$AAc?$AAo?$AAr?$AAe?$AA?9?$AAf?$AAi?$AAb?$AAe?$AAr?$AAs?$AA?9?$AAl?$AA1?$AA?9?$AA1?$AA?9?$AA1?$AA?$AA@ 0000000180078f70     libucrt:winapi_thunks.obj
 0002:0000dfb0       ??_C@_1DI@IJCEHOCB@?$AAa?$AAp?$AAi?$AA?9?$AAm?$AAs?$AA?9?$AAw?$AAi?$AAn?$AA?9?$AAc?$AAo?$AAr?$AAe?$AA?9?$AAf?$AAi?$AAl?$AAe?$AA?9?$AAl?$AA1?$AA?9?$AA2?$AA?9?$AA2?$AA?$AA@ 0000000180078fb0     libucrt:winapi_thunks.obj
 0002:0000dff0       ??_C@_1EI@MPIAOHOC@?$AAa?$AAp?$AAi?$AA?9?$AAm?$AAs?$AA?9?$AAw?$AAi?$AAn?$AA?9?$AAc?$AAo?$AAr?$AAe?$AA?9?$AAl?$AAo?$AAc?$AAa?$AAl?$AAi?$AAz?$AAa?$AAt?$AAi?$AAo?$AAn?$AA?9?$AAl?$AA1?$AA?9@ 0000000180078ff0     libucrt:winapi_thunks.obj
 0002:0000e040       ??_C@_1FK@FPHCKFIE@?$AAa?$AAp?$AAi?$AA?9?$AAm?$AAs?$AA?9?$AAw?$AAi?$AAn?$AA?9?$AAc?$AAo?$AAr?$AAe?$AA?9?$AAl?$AAo?$AAc?$AAa?$AAl?$AAi?$AAz?$AAa?$AAt?$AAi?$AAo?$AAn?$AA?9?$AAo?$AAb?$AAs@ 0000000180079040     libucrt:winapi_thunks.obj
 0002:0000e0a0       ??_C@_1EM@DILCGIIO@?$AAa?$AAp?$AAi?$AA?9?$AAm?$AAs?$AA?9?$AAw?$AAi?$AAn?$AA?9?$AAc?$AAo?$AAr?$AAe?$AA?9?$AAp?$AAr?$AAo?$AAc?$AAe?$AAs?$AAs?$AAt?$AAh?$AAr?$AAe?$AAa?$AAd?$AAs?$AA?9?$AAl@ 00000001800790a0     libucrt:winapi_thunks.obj
 0002:0000e0f0       ??_C@_1DM@LNCGDDPN@?$AAa?$AAp?$AAi?$AA?9?$AAm?$AAs?$AA?9?$AAw?$AAi?$AAn?$AA?9?$AAc?$AAo?$AAr?$AAe?$AA?9?$AAs?$AAt?$AAr?$AAi?$AAn?$AAg?$AA?9?$AAl?$AA1?$AA?9?$AA1?$AA?9?$AA0?$AA?$AA@ 00000001800790f0     libucrt:winapi_thunks.obj
 0002:0000e130       ??_C@_1DK@LPPGFMPP@?$AAa?$AAp?$AAi?$AA?9?$AAm?$AAs?$AA?9?$AAw?$AAi?$AAn?$AA?9?$AAc?$AAo?$AAr?$AAe?$AA?9?$AAs?$AAy?$AAn?$AAc?$AAh?$AA?9?$AAl?$AA1?$AA?9?$AA2?$AA?9?$AA0?$AA?$AA@ 0000000180079130     libucrt:winapi_thunks.obj
 0002:0000e170       ??_C@_1DO@FPAPJEMD@?$AAa?$AAp?$AAi?$AA?9?$AAm?$AAs?$AA?9?$AAw?$AAi?$AAn?$AA?9?$AAc?$AAo?$AAr?$AAe?$AA?9?$AAs?$AAy?$AAs?$AAi?$AAn?$AAf?$AAo?$AA?9?$AAl?$AA1?$AA?9?$AA2?$AA?9?$AA1?$AA?$AA@ 0000000180079170     libucrt:winapi_thunks.obj
 0002:0000e1b0       ??_C@_1DK@NDHNAHIO@?$AAa?$AAp?$AAi?$AA?9?$AAm?$AAs?$AA?9?$AAw?$AAi?$AAn?$AA?9?$AAc?$AAo?$AAr?$AAe?$AA?9?$AAw?$AAi?$AAn?$AAr?$AAt?$AA?9?$AAl?$AA1?$AA?9?$AA1?$AA?9?$AA0?$AA?$AA@ 00000001800791b0     libucrt:winapi_thunks.obj
 0002:0000e1f0       ??_C@_1DM@KGHDGBCM@?$AAa?$AAp?$AAi?$AA?9?$AAm?$AAs?$AA?9?$AAw?$AAi?$AAn?$AA?9?$AAc?$AAo?$AAr?$AAe?$AA?9?$AAx?$AAs?$AAt?$AAa?$AAt?$AAe?$AA?9?$AAl?$AA2?$AA?9?$AA1?$AA?9?$AA0?$AA?$AA@ 00000001800791f0     libucrt:winapi_thunks.obj
 0002:0000e230       ??_C@_1EO@IJIOEFOH@?$AAa?$AAp?$AAi?$AA?9?$AAm?$AAs?$AA?9?$AAw?$AAi?$AAn?$AA?9?$AAr?$AAt?$AAc?$AAo?$AAr?$AAe?$AA?9?$AAn?$AAt?$AAu?$AAs?$AAe?$AAr?$AA?9?$AAw?$AAi?$AAn?$AAd?$AAo?$AAw?$AA?9@ 0000000180079230     libucrt:winapi_thunks.obj
 0002:0000e280       ??_C@_1FG@HHGEKANL@?$AAa?$AAp?$AAi?$AA?9?$AAm?$AAs?$AA?9?$AAw?$AAi?$AAn?$AA?9?$AAs?$AAe?$AAc?$AAu?$AAr?$AAi?$AAt?$AAy?$AA?9?$AAs?$AAy?$AAs?$AAt?$AAe?$AAm?$AAf?$AAu?$AAn?$AAc?$AAt?$AAi@ 0000000180079280     libucrt:winapi_thunks.obj
 0002:0000e2e0       ??_C@_1EG@DBIOJECG@?$AAe?$AAx?$AAt?$AA?9?$AAm?$AAs?$AA?9?$AAw?$AAi?$AAn?$AA?9?$AAn?$AAt?$AAu?$AAs?$AAe?$AAr?$AA?9?$AAd?$AAi?$AAa?$AAl?$AAo?$AAg?$AAb?$AAo?$AAx?$AA?9?$AAl?$AA1?$AA?9?$AA1@ 00000001800792e0     libucrt:winapi_thunks.obj
 0002:0000e330       ??_C@_1EO@FIHMJCLF@?$AAe?$AAx?$AAt?$AA?9?$AAm?$AAs?$AA?9?$AAw?$AAi?$AAn?$AA?9?$AAn?$AAt?$AAu?$AAs?$AAe?$AAr?$AA?9?$AAw?$AAi?$AAn?$AAd?$AAo?$AAw?$AAs?$AAt?$AAa?$AAt?$AAi?$AAo?$AAn?$AA?9@ 0000000180079330     libucrt:winapi_thunks.obj
 0002:0000e380       ??_C@_1BC@DNHGCMLG@?$AAa?$AAd?$AAv?$AAa?$AAp?$AAi?$AA3?$AA2?$AA?$AA@ 0000000180079380     libucrt:winapi_thunks.obj
 0002:0000e398       ??_C@_1BC@GDMECMAK@?$AAk?$AAe?$AAr?$AAn?$AAe?$AAl?$AA3?$AA2?$AA?$AA@ 0000000180079398     libucrt:winapi_thunks.obj
 0002:0000e3b0       ??_C@_1M@OAIMIKLP@?$AAn?$AAt?$AAd?$AAl?$AAl?$AA?$AA@ 00000001800793b0     libucrt:winapi_thunks.obj
 0002:0000e3c0       ??_C@_1EG@DPGNFKGC@?$AAa?$AAp?$AAi?$AA?9?$AAm?$AAs?$AA?9?$AAw?$AAi?$AAn?$AA?9?$AAa?$AAp?$AAp?$AAm?$AAo?$AAd?$AAe?$AAl?$AA?9?$AAr?$AAu?$AAn?$AAt?$AAi?$AAm?$AAe?$AA?9?$AAl?$AA1?$AA?9?$AA1@ 00000001800793c0     libucrt:winapi_thunks.obj
 0002:0000e408       ??_C@_1O@BCCLBEOE@?$AAu?$AAs?$AAe?$AAr?$AA3?$AA2?$AA?$AA@ 0000000180079408     libucrt:winapi_thunks.obj
 0002:0000e418       ??_C@_1BA@PFFKHIOG@?$AAa?$AAp?$AAi?$AA?9?$AAm?$AAs?$AA?9?$AA?$AA@ 0000000180079418     libucrt:winapi_thunks.obj
 0002:0000e428       ??_C@_1BA@IAIFMGEF@?$AAe?$AAx?$AAt?$AA?9?$AAm?$AAs?$AA?9?$AA?$AA@ 0000000180079428     libucrt:winapi_thunks.obj
 0002:0000e440       ??_C@_0BA@FHFNEAED@AreFileApisANSI?$AA@ 0000000180079440     libucrt:winapi_thunks.obj
 0002:0000e458       ??_C@_08KNHFBNJ@FlsAlloc?$AA@ 0000000180079458     libucrt:winapi_thunks.obj
 0002:0000e470       ??_C@_07PEJMOBNF@FlsFree?$AA@ 0000000180079470     libucrt:winapi_thunks.obj
 0002:0000e480       ??_C@_0M@GDNOONDI@FlsGetValue?$AA@ 0000000180079480     libucrt:winapi_thunks.obj
 0002:0000e498       ??_C@_0M@JCPCPOEF@FlsSetValue?$AA@ 0000000180079498     libucrt:winapi_thunks.obj
 0002:0000e4b0       ??_C@_0BA@HNOPNCHB@GetActiveWindow?$AA@ 00000001800794b0     libucrt:winapi_thunks.obj
 0002:0000e4c8       ??_C@_0BD@HHGDFDBJ@GetLastActivePopup?$AA@ 00000001800794c8     libucrt:winapi_thunks.obj
 0002:0000e4e8       ??_C@_0BI@DFKBFLJE@GetProcessWindowStation?$AA@ 00000001800794e8     libucrt:winapi_thunks.obj
 0002:0000e508       ??_C@_0BK@DEKFELLI@GetUserObjectInformationW?$AA@ 0000000180079508     libucrt:winapi_thunks.obj
 0002:0000e530       ??_C@_0BM@HCFOFFN@InitializeCriticalSectionEx?$AA@ 0000000180079530     libucrt:winapi_thunks.obj
 0002:0000e558       ??_C@_0O@KKBNKAPF@LCMapStringEx?$AA@ 0000000180079558     libucrt:winapi_thunks.obj
 0002:0000e570       ??_C@_0BB@HBDEELFH@LocaleNameToLCID?$AA@ 0000000180079570     libucrt:winapi_thunks.obj
 0002:0000e590       ??_C@_0M@CHKKJDAI@MessageBoxA?$AA@ 0000000180079590     libucrt:winapi_thunks.obj
 0002:0000e5a8       ??_C@_0M@DLDCCGNP@MessageBoxW?$AA@ 00000001800795a8     libucrt:winapi_thunks.obj
 0002:0000e5b8       ??_C@_0CF@OJOFEIGO@AppPolicyGetProcessTerminationMe@ 00000001800795b8     libucrt:winapi_thunks.obj
 0002:0000e5e8       ??_C@_0CE@OICFMIKE@AppPolicyGetShowDeveloperDiagnos@ 00000001800795e8     libucrt:winapi_thunks.obj
 0002:0000e610       ??_C@_0BL@ODDJNEDA@AppPolicyGetWindowingModel?$AA@ 0000000180079610     libucrt:winapi_thunks.obj
 0002:0000e62c       ??_C@_03OEIAHPBN@INF?$AA@  000000018007962c     libucrt:cvt.obj
 0002:0000e630       ??_C@_03OJHLLCGB@inf?$AA@  0000000180079630     libucrt:cvt.obj
 0002:0000e634       ??_C@_03LKNCIKJB@NAN?$AA@  0000000180079634     libucrt:cvt.obj
 0002:0000e638       ??_C@_03LHCJEHON@nan?$AA@  0000000180079638     libucrt:cvt.obj
 0002:0000e640       ??_C@_09OFJJIMPC@NAN?$CISNAN?$CJ?$AA@ 0000000180079640     libucrt:cvt.obj
 0002:0000e650       ??_C@_09IPFBKMDL@nan?$CIsnan?$CJ?$AA@ 0000000180079650     libucrt:cvt.obj
 0002:0000e660       ??_C@_08IKHNHAJ@NAN?$CIIND?$CJ?$AA@ 0000000180079660     libucrt:cvt.obj
 0002:0000e670       ??_C@_08OFCDMILK@nan?$CIind?$CJ?$AA@ 0000000180079670     libucrt:cvt.obj
 0002:0000e67c       ??_C@_05KLBDPFGC@e?$CL000?$AA@ 000000018007967c     libucrt:cvt.obj
 0002:0000e684       ??_C@_15PJPFLCCM@?$AAu?$AAk?$AA?$AA@ 0000000180079684     libucrt:get_qualified_locale.obj
 0002:0000e6a0       __L_2_by_pi_bits           00000001800796a0     libucrt:l2_by_pi_bits.obj
 0002:0000f580       ??_C@_15EMKDOKLE@?$AAa?$AAr?$AA?$AA@ 000000018007a580     libucrt:lcidtoname_downlevel.obj
 0002:0000f588       ??_C@_15KNPADPLH@?$AAb?$AAg?$AA?$AA@ 000000018007a588     libucrt:lcidtoname_downlevel.obj
 0002:0000f590       ??_C@_15EDMHLDMO@?$AAc?$AAa?$AA?$AA@ 000000018007a590     libucrt:lcidtoname_downlevel.obj
 0002:0000f598       ??_C@_1O@BPEAJADD@?$AAz?$AAh?$AA?9?$AAC?$AAH?$AAS?$AA?$AA@ 000000018007a598     libucrt:lcidtoname_downlevel.obj
 0002:0000f5a8       ??_C@_15LJNHCMNK@?$AAc?$AAs?$AA?$AA@ 000000018007a5a8     libucrt:lcidtoname_downlevel.obj
 0002:0000f5b0       ??_C@_15FOMCIDHG@?$AAd?$AAa?$AA?$AA@ 000000018007a5b0     libucrt:lcidtoname_downlevel.obj
 0002:0000f5b8       ??_C@_15NBKABECB@?$AAd?$AAe?$AA?$AA@ 000000018007a5b8     libucrt:lcidtoname_downlevel.obj
 0002:0000f5c0       ??_C@_15GHPEIIAO@?$AAe?$AAl?$AA?$AA@ 000000018007a5c0     libucrt:lcidtoname_downlevel.obj
 0002:0000f5c8       ??_C@_15MNPNEAIF@?$AAe?$AAn?$AA?$AA@ 000000018007a5c8     libucrt:lcidtoname_downlevel.obj
 0002:0000f5d0       ??_C@_15GPIOMPMH@?$AAe?$AAs?$AA?$AA@ 000000018007a5d0     libucrt:lcidtoname_downlevel.obj
 0002:0000f5d8       ??_C@_15NGLOAKJC@?$AAf?$AAi?$AA?$AA@ 000000018007a5d8     libucrt:lcidtoname_downlevel.obj
 0002:0000f5e0       ??_C@_15FBKGNKAM@?$AAf?$AAr?$AA?$AA@ 000000018007a5e0     libucrt:lcidtoname_downlevel.obj
 0002:0000f5e8       ??_C@_15KGGCNEFK@?$AAh?$AAe?$AA?$AA@ 000000018007a5e8     libucrt:lcidtoname_downlevel.obj
 0002:0000f5f0       ??_C@_15PGHLIDMF@?$AAh?$AAu?$AA?$AA@ 000000018007a5f0     libucrt:lcidtoname_downlevel.obj
 0002:0000f5f8       ??_C@_15BIEMAPLM@?$AAi?$AAs?$AA?$AA@ 000000018007a5f8     libucrt:lcidtoname_downlevel.obj
 0002:0000f600       ??_C@_15IFJLDHAF@?$AAi?$AAt?$AA?$AA@ 000000018007a600     libucrt:lcidtoname_downlevel.obj
 0002:0000f608       ??_C@_15GEMIOCAG@?$AAj?$AAa?$AA?$AA@ 000000018007a608     libucrt:lcidtoname_downlevel.obj
 0002:0000f610       ??_C@_15EPELEGJA@?$AAk?$AAo?$AA?$AA@ 000000018007a610     libucrt:lcidtoname_downlevel.obj
 0002:0000f618       ??_C@_15NDDHIMN@?$AAn?$AAl?$AA?$AA@ 000000018007a618     libucrt:lcidtoname_downlevel.obj
 0002:0000f620       ??_C@_15BPIGNHCD@?$AAn?$AAo?$AA?$AA@ 000000018007a620     libucrt:lcidtoname_downlevel.obj
 0002:0000f628       ??_C@_15DEOPBLCG@?$AAp?$AAl?$AA?$AA@ 000000018007a628     libucrt:lcidtoname_downlevel.obj
 0002:0000f630       ??_C@_15KBECGEFG@?$AAp?$AAt?$AA?$AA@ 000000018007a630     libucrt:lcidtoname_downlevel.obj
 0002:0000f638       ??_C@_15GLJCBFMD@?$AAr?$AAo?$AA?$AA@ 000000018007a638     libucrt:lcidtoname_downlevel.obj
 0002:0000f640       ??_C@_15FEDGKCDI@?$AAr?$AAu?$AA?$AA@ 000000018007a640     libucrt:lcidtoname_downlevel.obj
 0002:0000f648       ??_C@_15GLKMLLHM@?$AAh?$AAr?$AA?$AA@ 000000018007a648     libucrt:lcidtoname_downlevel.obj
 0002:0000f650       ??_C@_15CPKMFBDB@?$AAs?$AAk?$AA?$AA@ 000000018007a650     libucrt:lcidtoname_downlevel.obj
 0002:0000f658       ??_C@_15BAAIOGMK@?$AAs?$AAq?$AA?$AA@ 000000018007a658     libucrt:lcidtoname_downlevel.obj
 0002:0000f660       ??_C@_15INNPNOHD@?$AAs?$AAv?$AA?$AA@ 000000018007a660     libucrt:lcidtoname_downlevel.obj
 0002:0000f668       ??_C@_15CABMMOGH@?$AAt?$AAh?$AA?$AA@ 000000018007a668     libucrt:lcidtoname_downlevel.obj
 0002:0000f670       ??_C@_15BPLIHJJM@?$AAt?$AAr?$AA?$AA@ 000000018007a670     libucrt:lcidtoname_downlevel.obj
 0002:0000f678       ??_C@_15NEOEKKDJ@?$AAu?$AAr?$AA?$AA@ 000000018007a678     libucrt:lcidtoname_downlevel.obj
 0002:0000f680       ??_C@_15NFICGAJK@?$AAi?$AAd?$AA?$AA@ 000000018007a680     libucrt:lcidtoname_downlevel.obj
 0002:0000f688       ??_C@_15HPJPHDM@?$AAb?$AAe?$AA?$AA@ 000000018007a688     libucrt:lcidtoname_downlevel.obj
 0002:0000f690       ??_C@_15LCHLGJII@?$AAs?$AAl?$AA?$AA@ 000000018007a690     libucrt:lcidtoname_downlevel.obj
 0002:0000f698       ??_C@_15PCFJPHHO@?$AAe?$AAt?$AA?$AA@ 000000018007a698     libucrt:lcidtoname_downlevel.obj
 0002:0000f6a0       ??_C@_15HPFPGODN@?$AAl?$AAv?$AA?$AA@ 000000018007a6a0     libucrt:lcidtoname_downlevel.obj
 0002:0000f6a8       ??_C@_15NFFGKGLG@?$AAl?$AAt?$AA?$AA@ 000000018007a6a8     libucrt:lcidtoname_downlevel.obj
 0002:0000f6b0       ??_C@_15BDAKCCHN@?$AAf?$AAa?$AA?$AA@ 000000018007a6b0     libucrt:lcidtoname_downlevel.obj
 0002:0000f6b8       ??_C@_15NFGIAIAJ@?$AAv?$AAi?$AA?$AA@ 000000018007a6b8     libucrt:lcidtoname_downlevel.obj
 0002:0000f6c0       ??_C@_15LMKNDMHN@?$AAh?$AAy?$AA?$AA@ 000000018007a6c0     libucrt:lcidtoname_downlevel.obj
 0002:0000f6c8       ??_C@_15IJBHMCFL@?$AAa?$AAz?$AA?$AA@ 000000018007a6c8     libucrt:lcidtoname_downlevel.obj
 0002:0000f6d0       ??_C@_15EKOFJABL@?$AAe?$AAu?$AA?$AA@ 000000018007a6d0     libucrt:lcidtoname_downlevel.obj
 0002:0000f6d8       ??_C@_15BGHADCNK@?$AAm?$AAk?$AA?$AA@ 000000018007a6d8     libucrt:lcidtoname_downlevel.obj
 0002:0000f6e0       ??_C@_15JDNICKHM@?$AAa?$AAf?$AA?$AA@ 000000018007a6e0     libucrt:lcidtoname_downlevel.obj
 0002:0000f6e8       ??_C@_15KPJEDBKD@?$AAk?$AAa?$AA?$AA@ 000000018007a6e8     libucrt:lcidtoname_downlevel.obj
 0002:0000f6f0       ??_C@_15PDNFFFEO@?$AAf?$AAo?$AA?$AA@ 000000018007a6f0     libucrt:lcidtoname_downlevel.obj
 0002:0000f6f8       ??_C@_15OMLEGLOC@?$AAh?$AAi?$AA?$AA@ 000000018007a6f8     libucrt:lcidtoname_downlevel.obj
 0002:0000f700       ??_C@_15IDNNENKK@?$AAm?$AAs?$AA?$AA@ 000000018007a700     libucrt:lcidtoname_downlevel.obj
 0002:0000f708       ??_C@_15MACJNBMH@?$AAk?$AAk?$AA?$AA@ 000000018007a708     libucrt:lcidtoname_downlevel.obj
 0002:0000f710       ??_C@_15DKDJEOND@?$AAk?$AAy?$AA?$AA@ 000000018007a710     libucrt:lcidtoname_downlevel.obj
 0002:0000f718       ??_C@_15DFGDLJBG@?$AAs?$AAw?$AA?$AA@ 000000018007a718     libucrt:lcidtoname_downlevel.obj
 0002:0000f720       ??_C@_15BBFAICNG@?$AAu?$AAz?$AA?$AA@ 000000018007a720     libucrt:lcidtoname_downlevel.obj
 0002:0000f728       ??_C@_15DKNDCGEA@?$AAt?$AAt?$AA?$AA@ 000000018007a728     libucrt:lcidtoname_downlevel.obj
 0002:0000f730       ??_C@_15MGIFMDPL@?$AAp?$AAa?$AA?$AA@ 000000018007a730     libucrt:lcidtoname_downlevel.obj
 0002:0000f738       ??_C@_15HCNDBBA@?$AAg?$AAu?$AA?$AA@ 000000018007a738     libucrt:lcidtoname_downlevel.obj
 0002:0000f740       ??_C@_15FNBEIBON@?$AAt?$AAa?$AA?$AA@ 000000018007a740     libucrt:lcidtoname_downlevel.obj
 0002:0000f748       ??_C@_15NCHGBGLK@?$AAt?$AAe?$AA?$AA@ 000000018007a748     libucrt:lcidtoname_downlevel.obj
 0002:0000f750       ??_C@_15PHPHCBPF@?$AAk?$AAn?$AA?$AA@ 000000018007a750     libucrt:lcidtoname_downlevel.obj
 0002:0000f758       ??_C@_15DLGBCKMP@?$AAm?$AAr?$AA?$AA@ 000000018007a758     libucrt:lcidtoname_downlevel.obj
 0002:0000f760       ??_C@_15EABBLBFF@?$AAs?$AAa?$AA?$AA@ 000000018007a760     libucrt:lcidtoname_downlevel.obj
 0002:0000f768       ??_C@_15CBKOMCOI@?$AAm?$AAn?$AA?$AA@ 000000018007a768     libucrt:lcidtoname_downlevel.obj
 0002:0000f770       ??_C@_15CKDMCJAF@?$AAg?$AAl?$AA?$AA@ 000000018007a770     libucrt:lcidtoname_downlevel.obj
 0002:0000f778       ??_C@_17CNJFBPG@?$AAk?$AAo?$AAk?$AA?$AA@ 000000018007a778     libucrt:lcidtoname_downlevel.obj
 0002:0000f780       ??_C@_17FFBJICPL@?$AAs?$AAy?$AAr?$AA?$AA@ 000000018007a780     libucrt:lcidtoname_downlevel.obj
 0002:0000f788       ??_C@_17KPNDCPAF@?$AAd?$AAi?$AAv?$AA?$AA@ 000000018007a788     libucrt:lcidtoname_downlevel.obj
 0002:0000f790       ??_C@_11LOCGONAA@?$AA?$AA@ 000000018007a790     libucrt:lcidtoname_downlevel.obj
 0002:0000f798       ??_C@_1M@OKAHONE@?$AAa?$AAr?$AA?9?$AAS?$AAA?$AA?$AA@ 000000018007a798     libucrt:lcidtoname_downlevel.obj
 0002:0000f7a8       ??_C@_1M@FFFIGIGK@?$AAb?$AAg?$AA?9?$AAB?$AAG?$AA?$AA@ 000000018007a7a8     libucrt:lcidtoname_downlevel.obj
 0002:0000f7b8       ??_C@_1M@BJNKEDC@?$AAc?$AAa?$AA?9?$AAE?$AAS?$AA?$AA@ 000000018007a7b8     libucrt:lcidtoname_downlevel.obj
 0002:0000f7c8       ??_C@_1M@IJJHFJHA@?$AAc?$AAs?$AA?9?$AAC?$AAZ?$AA?$AA@ 000000018007a7c8     libucrt:lcidtoname_downlevel.obj
 0002:0000f7d8       ??_C@_1M@CLPEOBGI@?$AAd?$AAa?$AA?9?$AAD?$AAK?$AA?$AA@ 000000018007a7d8     libucrt:lcidtoname_downlevel.obj
 0002:0000f7e8       ??_C@_1M@MCMADGCB@?$AAd?$AAe?$AA?9?$AAD?$AAE?$AA?$AA@ 000000018007a7e8     libucrt:lcidtoname_downlevel.obj
 0002:0000f7f8       ??_C@_1M@OOCKEMAM@?$AAe?$AAl?$AA?9?$AAG?$AAR?$AA?$AA@ 000000018007a7f8     libucrt:lcidtoname_downlevel.obj
 0002:0000f808       ??_C@_1M@DDNJFGID@?$AAf?$AAi?$AA?9?$AAF?$AAI?$AA?$AA@ 000000018007a808     libucrt:lcidtoname_downlevel.obj
 0002:0000f818       ??_C@_1M@GLIPPMAC@?$AAf?$AAr?$AA?9?$AAF?$AAR?$AA?$AA@ 000000018007a818     libucrt:lcidtoname_downlevel.obj
 0002:0000f828       ??_C@_1M@GFMCHPE@?$AAh?$AAe?$AA?9?$AAI?$AAL?$AA?$AA@ 000000018007a828     libucrt:lcidtoname_downlevel.obj
 0002:0000f838       ??_C@_1M@MHLPGNKM@?$AAh?$AAu?$AA?9?$AAH?$AAU?$AA?$AA@ 000000018007a838     libucrt:lcidtoname_downlevel.obj
 0002:0000f848       ??_C@_1M@LPDDNNPN@?$AAi?$AAs?$AA?9?$AAI?$AAS?$AA?$AA@ 000000018007a848     libucrt:lcidtoname_downlevel.obj
 0002:0000f858       ??_C@_1M@MADIPODN@?$AAi?$AAt?$AA?9?$AAI?$AAT?$AA?$AA@ 000000018007a858     libucrt:lcidtoname_downlevel.obj
 0002:0000f868       ??_C@_1M@IHBJJGG@?$AAn?$AAl?$AA?9?$AAN?$AAL?$AA?$AA@ 000000018007a868     libucrt:lcidtoname_downlevel.obj
 0002:0000f878       ??_C@_1M@EANAGDL@?$AAn?$AAb?$AA?9?$AAN?$AAO?$AA?$AA@ 000000018007a878     libucrt:lcidtoname_downlevel.obj
 0002:0000f888       ??_C@_1M@NEIEMEGP@?$AAp?$AAl?$AA?9?$AAP?$AAL?$AA?$AA@ 000000018007a888     libucrt:lcidtoname_downlevel.obj
 0002:0000f898       ??_C@_1M@BOCFIGEP@?$AAp?$AAt?$AA?9?$AAB?$AAR?$AA?$AA@ 000000018007a898     libucrt:lcidtoname_downlevel.obj
 0002:0000f8a8       ??_C@_1M@IMPFOPBG@?$AAr?$AAo?$AA?9?$AAR?$AAO?$AA?$AA@ 000000018007a8a8     libucrt:lcidtoname_downlevel.obj
 0002:0000f8b8       ??_C@_1M@IDNNEJMM@?$AAr?$AAu?$AA?9?$AAR?$AAU?$AA?$AA@ 000000018007a8b8     libucrt:lcidtoname_downlevel.obj
 0002:0000f8c8       ??_C@_1M@LILEEOGM@?$AAh?$AAr?$AA?9?$AAH?$AAR?$AA?$AA@ 000000018007a8c8     libucrt:lcidtoname_downlevel.obj
 0002:0000f8d8       ??_C@_1M@FKIFEHPB@?$AAs?$AAk?$AA?9?$AAS?$AAK?$AA?$AA@ 000000018007a8d8     libucrt:lcidtoname_downlevel.obj
 0002:0000f8e8       ??_C@_1M@LJMAMNPJ@?$AAs?$AAq?$AA?9?$AAA?$AAL?$AA?$AA@ 000000018007a8e8     libucrt:lcidtoname_downlevel.obj
 0002:0000f8f8       ??_C@_1M@GIAKDKJK@?$AAs?$AAv?$AA?9?$AAS?$AAE?$AA?$AA@ 000000018007a8f8     libucrt:lcidtoname_downlevel.obj
 0002:0000f908       ??_C@_1M@MKJKIKCL@?$AAt?$AAh?$AA?9?$AAT?$AAH?$AA?$AA@ 000000018007a908     libucrt:lcidtoname_downlevel.obj
 0002:0000f918       ??_C@_1M@MFLCCMPB@?$AAt?$AAr?$AA?9?$AAT?$AAR?$AA?$AA@ 000000018007a918     libucrt:lcidtoname_downlevel.obj
 0002:0000f928       ??_C@_1M@OIJHDKJN@?$AAu?$AAr?$AA?9?$AAP?$AAK?$AA?$AA@ 000000018007a928     libucrt:lcidtoname_downlevel.obj
 0002:0000f938       ??_C@_1M@LHIPCIEK@?$AAi?$AAd?$AA?9?$AAI?$AAD?$AA?$AA@ 000000018007a938     libucrt:lcidtoname_downlevel.obj
 0002:0000f948       ??_C@_1M@MFMOBGI@?$AAu?$AAk?$AA?9?$AAU?$AAA?$AA?$AA@ 000000018007a948     libucrt:lcidtoname_downlevel.obj
 0002:0000f958       ??_C@_1M@OBGLJIPL@?$AAb?$AAe?$AA?9?$AAB?$AAY?$AA?$AA@ 000000018007a958     libucrt:lcidtoname_downlevel.obj
 0002:0000f968       ??_C@_1M@BCFAJEAD@?$AAs?$AAl?$AA?9?$AAS?$AAI?$AA?$AA@ 000000018007a968     libucrt:lcidtoname_downlevel.obj
 0002:0000f978       ??_C@_1M@FKFFEDDN@?$AAe?$AAt?$AA?9?$AAE?$AAE?$AA?$AA@ 000000018007a978     libucrt:lcidtoname_downlevel.obj
 0002:0000f988       ??_C@_1M@KGKKAACI@?$AAl?$AAv?$AA?9?$AAL?$AAV?$AA?$AA@ 000000018007a988     libucrt:lcidtoname_downlevel.obj
 0002:0000f998       ??_C@_1M@IFGBIJO@?$AAl?$AAt?$AA?9?$AAL?$AAT?$AA?$AA@ 000000018007a998     libucrt:lcidtoname_downlevel.obj
 0002:0000f9a8       ??_C@_1M@FGEAHEDM@?$AAf?$AAa?$AA?9?$AAI?$AAR?$AA?$AA@ 000000018007a9a8     libucrt:lcidtoname_downlevel.obj
 0002:0000f9b8       ??_C@_1M@KBMAIBFN@?$AAv?$AAi?$AA?9?$AAV?$AAN?$AA?$AA@ 000000018007a9b8     libucrt:lcidtoname_downlevel.obj
 0002:0000f9c8       ??_C@_1M@GPCBKDJK@?$AAh?$AAy?$AA?9?$AAA?$AAM?$AA?$AA@ 000000018007a9c8     libucrt:lcidtoname_downlevel.obj
 0002:0000f9d8       ??_C@_1BG@BECMDDJB@?$AAa?$AAz?$AA?9?$AAA?$AAZ?$AA?9?$AAL?$AAa?$AAt?$AAn?$AA?$AA@ 000000018007a9d8     libucrt:lcidtoname_downlevel.obj
 0002:0000f9f0       ??_C@_1M@MAOFCAEA@?$AAe?$AAu?$AA?9?$AAE?$AAS?$AA?$AA@ 000000018007a9f0     libucrt:lcidtoname_downlevel.obj
 0002:0000fa00       ??_C@_1M@IGHABKPI@?$AAm?$AAk?$AA?9?$AAM?$AAK?$AA?$AA@ 000000018007aa00     libucrt:lcidtoname_downlevel.obj
 0002:0000fa10       ??_C@_1M@IAIGNEJG@?$AAt?$AAn?$AA?9?$AAZ?$AAA?$AA?$AA@ 000000018007aa10     libucrt:lcidtoname_downlevel.obj
 0002:0000fa20       ??_C@_1M@IIJCOJFA@?$AAx?$AAh?$AA?9?$AAZ?$AAA?$AA?$AA@ 000000018007aa20     libucrt:lcidtoname_downlevel.obj
 0002:0000fa30       ??_C@_1M@LGPJHNJH@?$AAz?$AAu?$AA?9?$AAZ?$AAA?$AA?$AA@ 000000018007aa30     libucrt:lcidtoname_downlevel.obj
 0002:0000fa40       ??_C@_1M@HOKAOIO@?$AAa?$AAf?$AA?9?$AAZ?$AAA?$AA?$AA@ 000000018007aa40     libucrt:lcidtoname_downlevel.obj
 0002:0000fa50       ??_C@_1M@DPCLHLIE@?$AAk?$AAa?$AA?9?$AAG?$AAE?$AA?$AA@ 000000018007aa50     libucrt:lcidtoname_downlevel.obj
 0002:0000fa60       ??_C@_1M@BLKMHJBI@?$AAf?$AAo?$AA?9?$AAF?$AAO?$AA?$AA@ 000000018007aa60     libucrt:lcidtoname_downlevel.obj
 0002:0000fa70       ??_C@_1M@LGGJAPPB@?$AAh?$AAi?$AA?9?$AAI?$AAN?$AA?$AA@ 000000018007aa70     libucrt:lcidtoname_downlevel.obj
 0002:0000fa80       ??_C@_1M@FIKPIHFE@?$AAm?$AAt?$AA?9?$AAM?$AAT?$AA?$AA@ 000000018007aa80     libucrt:lcidtoname_downlevel.obj
 0002:0000fa90       ??_C@_1M@HEGGPBFA@?$AAs?$AAe?$AA?9?$AAN?$AAO?$AA?$AA@ 000000018007aa90     libucrt:lcidtoname_downlevel.obj
 0002:0000faa0       ??_C@_1M@EIBJEEPA@?$AAm?$AAs?$AA?9?$AAM?$AAY?$AA?$AA@ 000000018007aaa0     libucrt:lcidtoname_downlevel.obj
 0002:0000fab0       ??_C@_1M@FHLBGMPP@?$AAk?$AAk?$AA?9?$AAK?$AAZ?$AA?$AA@ 000000018007aab0     libucrt:lcidtoname_downlevel.obj
 0002:0000fac0       ??_C@_1M@NGJJLCGI@?$AAk?$AAy?$AA?9?$AAK?$AAG?$AA?$AA@ 000000018007aac0     libucrt:lcidtoname_downlevel.obj
 0002:0000fad0       ??_C@_1M@GIENNBFC@?$AAs?$AAw?$AA?9?$AAK?$AAE?$AA?$AA@ 000000018007aad0     libucrt:lcidtoname_downlevel.obj
 0002:0000fae0       ??_C@_1BG@NDGMJIMJ@?$AAu?$AAz?$AA?9?$AAU?$AAZ?$AA?9?$AAL?$AAa?$AAt?$AAn?$AA?$AA@ 000000018007aae0     libucrt:lcidtoname_downlevel.obj
 0002:0000faf8       ??_C@_1M@IDCCIHBC@?$AAt?$AAt?$AA?9?$AAR?$AAU?$AA?$AA@ 000000018007aaf8     libucrt:lcidtoname_downlevel.obj
 0002:0000fb08       ??_C@_1M@LOICPMOJ@?$AAb?$AAn?$AA?9?$AAI?$AAN?$AA?$AA@ 000000018007ab08     libucrt:lcidtoname_downlevel.obj
 0002:0000fb18       ??_C@_1M@KPKKNEAH@?$AAp?$AAa?$AA?9?$AAI?$AAN?$AA?$AA@ 000000018007ab18     libucrt:lcidtoname_downlevel.obj
 0002:0000fb28       ??_C@_1M@PJGPPBOG@?$AAg?$AAu?$AA?9?$AAI?$AAN?$AA?$AA@ 000000018007ab28     libucrt:lcidtoname_downlevel.obj
 0002:0000fb38       ??_C@_1M@KMKMOPHI@?$AAt?$AAa?$AA?9?$AAI?$AAN?$AA?$AA@ 000000018007ab38     libucrt:lcidtoname_downlevel.obj
 0002:0000fb48       ??_C@_1M@KFEHEPAC@?$AAt?$AAe?$AA?9?$AAI?$AAN?$AA?$AA@ 000000018007ab48     libucrt:lcidtoname_downlevel.obj
 0002:0000fb58       ??_C@_1M@CDCLMGHI@?$AAk?$AAn?$AA?9?$AAI?$AAN?$AA?$AA@ 000000018007ab58     libucrt:lcidtoname_downlevel.obj
 0002:0000fb68       ??_C@_1M@MIODLDKF@?$AAm?$AAl?$AA?9?$AAI?$AAN?$AA?$AA@ 000000018007ab68     libucrt:lcidtoname_downlevel.obj
 0002:0000fb78       ??_C@_1M@PBIEACPO@?$AAm?$AAr?$AA?9?$AAI?$AAN?$AA?$AA@ 000000018007ab78     libucrt:lcidtoname_downlevel.obj
 0002:0000fb88       ??_C@_1M@NIDEAGPH@?$AAs?$AAa?$AA?9?$AAI?$AAN?$AA?$AA@ 000000018007ab88     libucrt:lcidtoname_downlevel.obj
 0002:0000fb98       ??_C@_1M@FHIHCBIO@?$AAm?$AAn?$AA?9?$AAM?$AAN?$AA?$AA@ 000000018007ab98     libucrt:lcidtoname_downlevel.obj
 0002:0000fba8       ??_C@_1M@JAIJPENP@?$AAc?$AAy?$AA?9?$AAG?$AAB?$AA?$AA@ 000000018007aba8     libucrt:lcidtoname_downlevel.obj
 0002:0000fbb8       ??_C@_1M@PHGFBEPN@?$AAg?$AAl?$AA?9?$AAE?$AAS?$AA?$AA@ 000000018007abb8     libucrt:lcidtoname_downlevel.obj
 0002:0000fbc8       ??_C@_1O@KPIPDNCP@?$AAk?$AAo?$AAk?$AA?9?$AAI?$AAN?$AA?$AA@ 000000018007abc8     libucrt:lcidtoname_downlevel.obj
 0002:0000fbd8       ??_C@_1O@KNHJLDJA@?$AAs?$AAy?$AAr?$AA?9?$AAS?$AAY?$AA?$AA@ 000000018007abd8     libucrt:lcidtoname_downlevel.obj
 0002:0000fbe8       ??_C@_1O@MKEKBLAH@?$AAd?$AAi?$AAv?$AA?9?$AAM?$AAV?$AA?$AA@ 000000018007abe8     libucrt:lcidtoname_downlevel.obj
 0002:0000fbf8       ??_C@_1O@OHDCKDDF@?$AAq?$AAu?$AAz?$AA?9?$AAB?$AAO?$AA?$AA@ 000000018007abf8     libucrt:lcidtoname_downlevel.obj
 0002:0000fc08       ??_C@_1M@LEPJNLFD@?$AAn?$AAs?$AA?9?$AAZ?$AAA?$AA?$AA@ 000000018007ac08     libucrt:lcidtoname_downlevel.obj
 0002:0000fc18       ??_C@_1M@OMLEIIJB@?$AAm?$AAi?$AA?9?$AAN?$AAZ?$AA?$AA@ 000000018007ac18     libucrt:lcidtoname_downlevel.obj
 0002:0000fc28       ??_C@_1M@PMPEAILG@?$AAa?$AAr?$AA?9?$AAI?$AAQ?$AA?$AA@ 000000018007ac28     libucrt:lcidtoname_downlevel.obj
 0002:0000fc38       ??_C@_1M@CNKPNOEE@?$AAd?$AAe?$AA?9?$AAC?$AAH?$AA?$AA@ 000000018007ac38     libucrt:lcidtoname_downlevel.obj
 0002:0000fc48       ??_C@_1M@LKMGMLKO@?$AAe?$AAn?$AA?9?$AAG?$AAB?$AA?$AA@ 000000018007ac48     libucrt:lcidtoname_downlevel.obj
 0002:0000fc58       ??_C@_1M@PGKJFFGL@?$AAe?$AAs?$AA?9?$AAM?$AAX?$AA?$AA@ 000000018007ac58     libucrt:lcidtoname_downlevel.obj
 0002:0000fc68       ??_C@_1M@DNNANBDC@?$AAf?$AAr?$AA?9?$AAB?$AAE?$AA?$AA@ 000000018007ac68     libucrt:lcidtoname_downlevel.obj
 0002:0000fc78       ??_C@_1M@HLGMDFHM@?$AAi?$AAt?$AA?9?$AAC?$AAH?$AA?$AA@ 000000018007ac78     libucrt:lcidtoname_downlevel.obj
 0002:0000fc88       ??_C@_1M@CLLBGJH@?$AAn?$AAl?$AA?9?$AAB?$AAE?$AA?$AA@ 000000018007ac88     libucrt:lcidtoname_downlevel.obj
 0002:0000fc98       ??_C@_1M@BODBOGLF@?$AAn?$AAn?$AA?9?$AAN?$AAO?$AA?$AA@ 000000018007ac98     libucrt:lcidtoname_downlevel.obj
 0002:0000fca8       ??_C@_1M@HFFAHKAD@?$AAp?$AAt?$AA?9?$AAP?$AAT?$AA?$AA@ 000000018007aca8     libucrt:lcidtoname_downlevel.obj
 0002:0000fcb8       ??_C@_1BG@LNOAKHIE@?$AAs?$AAr?$AA?9?$AAS?$AAP?$AA?9?$AAL?$AAa?$AAt?$AAn?$AA?$AA@ 000000018007acb8     libucrt:lcidtoname_downlevel.obj
 0002:0000fcd0       ??_C@_1M@HBMHBGAK@?$AAs?$AAv?$AA?9?$AAF?$AAI?$AA?$AA@ 000000018007acd0     libucrt:lcidtoname_downlevel.obj
 0002:0000fce0       ??_C@_1BG@DGCJGJBE@?$AAa?$AAz?$AA?9?$AAA?$AAZ?$AA?9?$AAC?$AAy?$AAr?$AAl?$AA?$AA@ 000000018007ace0     libucrt:lcidtoname_downlevel.obj
 0002:0000fcf8       ??_C@_1M@KEJDAAHB@?$AAs?$AAe?$AA?9?$AAS?$AAE?$AA?$AA@ 000000018007acf8     libucrt:lcidtoname_downlevel.obj
 0002:0000fd08       ??_C@_1M@HEIBJJAD@?$AAm?$AAs?$AA?9?$AAB?$AAN?$AA?$AA@ 000000018007ad08     libucrt:lcidtoname_downlevel.obj
 0002:0000fd18       ??_C@_1BG@PBGJMCEM@?$AAu?$AAz?$AA?9?$AAU?$AAZ?$AA?9?$AAC?$AAy?$AAr?$AAl?$AA?$AA@ 000000018007ad18     libucrt:lcidtoname_downlevel.obj
 0002:0000fd30       ??_C@_1O@LAOBCMDF@?$AAq?$AAu?$AAz?$AA?9?$AAE?$AAC?$AA?$AA@ 000000018007ad30     libucrt:lcidtoname_downlevel.obj
 0002:0000fd40       ??_C@_1M@POEEMAIO@?$AAa?$AAr?$AA?9?$AAE?$AAG?$AA?$AA@ 000000018007ad40     libucrt:lcidtoname_downlevel.obj
 0002:0000fd50       ??_C@_1M@EFAKDEDL@?$AAz?$AAh?$AA?9?$AAH?$AAK?$AA?$AA@ 000000018007ad50     libucrt:lcidtoname_downlevel.obj
 0002:0000fd60       ??_C@_1M@HKKIJHGI@?$AAd?$AAe?$AA?9?$AAA?$AAT?$AA?$AA@ 000000018007ad60     libucrt:lcidtoname_downlevel.obj
 0002:0000fd70       ??_C@_1M@KBFBEHJF@?$AAe?$AAn?$AA?9?$AAA?$AAU?$AA?$AA@ 000000018007ad70     libucrt:lcidtoname_downlevel.obj
 0002:0000fd80       ??_C@_1M@MNPLFAAH@?$AAe?$AAs?$AA?9?$AAE?$AAS?$AA?$AA@ 000000018007ad80     libucrt:lcidtoname_downlevel.obj
 0002:0000fd90       ??_C@_1M@HJOOJFMA@?$AAf?$AAr?$AA?9?$AAC?$AAA?$AA?$AA@ 000000018007ad90     libucrt:lcidtoname_downlevel.obj
 0002:0000fda0       ??_C@_1BG@JPOFPNAB@?$AAs?$AAr?$AA?9?$AAS?$AAP?$AA?9?$AAC?$AAy?$AAr?$AAl?$AA?$AA@ 000000018007ada0     libucrt:lcidtoname_downlevel.obj
 0002:0000fdb8       ??_C@_1M@LNFOCMOB@?$AAs?$AAe?$AA?9?$AAF?$AAI?$AA?$AA@ 000000018007adb8     libucrt:lcidtoname_downlevel.obj
 0002:0000fdc8       ??_C@_1O@MGJBOAMB@?$AAq?$AAu?$AAz?$AA?9?$AAP?$AAE?$AA?$AA@ 000000018007adc8     libucrt:lcidtoname_downlevel.obj
 0002:0000fdd8       ??_C@_1M@GJINLBOK@?$AAa?$AAr?$AA?9?$AAL?$AAY?$AA?$AA@ 000000018007add8     libucrt:lcidtoname_downlevel.obj
 0002:0000fde8       ??_C@_1M@GGMNHJNL@?$AAz?$AAh?$AA?9?$AAS?$AAG?$AA?$AA@ 000000018007ade8     libucrt:lcidtoname_downlevel.obj
 0002:0000fdf8       ??_C@_1M@HOIKODND@?$AAd?$AAe?$AA?9?$AAL?$AAU?$AA?$AA@ 000000018007adf8     libucrt:lcidtoname_downlevel.obj
 0002:0000fe08       ??_C@_1M@DDOCCGFG@?$AAe?$AAn?$AA?9?$AAC?$AAA?$AA?$AA@ 000000018007ae08     libucrt:lcidtoname_downlevel.obj
 0002:0000fe18       ??_C@_1M@BNOEMJLF@?$AAe?$AAs?$AA?9?$AAG?$AAT?$AA?$AA@ 000000018007ae18     libucrt:lcidtoname_downlevel.obj
 0002:0000fe28       ??_C@_1M@EOGNKEK@?$AAf?$AAr?$AA?9?$AAC?$AAH?$AA?$AA@ 000000018007ae28     libucrt:lcidtoname_downlevel.obj
 0002:0000fe38       ??_C@_1M@FLIDJFHL@?$AAh?$AAr?$AA?9?$AAB?$AAA?$AA?$AA@ 000000018007ae38     libucrt:lcidtoname_downlevel.obj
 0002:0000fe48       ??_C@_1O@FMCELNAJ@?$AAs?$AAm?$AAj?$AA?9?$AAN?$AAO?$AA?$AA@ 000000018007ae48     libucrt:lcidtoname_downlevel.obj
 0002:0000fe58       ??_C@_1M@JHGLJMGJ@?$AAa?$AAr?$AA?9?$AAD?$AAZ?$AA?$AA@ 000000018007ae58     libucrt:lcidtoname_downlevel.obj
 0002:0000fe68       ??_C@_1M@JKKFDCNP@?$AAz?$AAh?$AA?9?$AAM?$AAO?$AA?$AA@ 000000018007ae68     libucrt:lcidtoname_downlevel.obj
 0002:0000fe78       ??_C@_1M@GEEFALPE@?$AAd?$AAe?$AA?9?$AAL?$AAI?$AA?$AA@ 000000018007ae78     libucrt:lcidtoname_downlevel.obj
 0002:0000fe88       ??_C@_1M@IGEOFBG@?$AAe?$AAn?$AA?9?$AAN?$AAZ?$AA?$AA@ 000000018007ae88     libucrt:lcidtoname_downlevel.obj
 0002:0000fe98       ??_C@_1M@KDBONEHP@?$AAe?$AAs?$AA?9?$AAC?$AAR?$AA?$AA@ 000000018007ae98     libucrt:lcidtoname_downlevel.obj
 0002:0000fea8       ??_C@_1M@FHMDOHNN@?$AAf?$AAr?$AA?9?$AAL?$AAU?$AA?$AA@ 000000018007aea8     libucrt:lcidtoname_downlevel.obj
 0002:0000feb8       ??_C@_1BG@NFKKMAFG@?$AAb?$AAs?$AA?9?$AAB?$AAA?$AA?9?$AAL?$AAa?$AAt?$AAn?$AA?$AA@ 000000018007aeb8     libucrt:lcidtoname_downlevel.obj
 0002:0000fed0       ??_C@_1O@IMNBEMCI@?$AAs?$AAm?$AAj?$AA?9?$AAS?$AAE?$AA?$AA@ 000000018007aed0     libucrt:lcidtoname_downlevel.obj
 0002:0000fee0       ??_C@_1M@DHHMBNDP@?$AAa?$AAr?$AA?9?$AAM?$AAA?$AA?$AA@ 000000018007aee0     libucrt:lcidtoname_downlevel.obj
 0002:0000fef0       ??_C@_1M@BNBLJCGH@?$AAe?$AAn?$AA?9?$AAI?$AAE?$AA?$AA@ 000000018007aef0     libucrt:lcidtoname_downlevel.obj
 0002:0000ff00       ??_C@_1M@GEPAFMDL@?$AAe?$AAs?$AA?9?$AAP?$AAA?$AA?$AA@ 000000018007af00     libucrt:lcidtoname_downlevel.obj
 0002:0000ff10       ??_C@_1M@OJONDMDL@?$AAf?$AAr?$AA?9?$AAM?$AAC?$AA?$AA@ 000000018007af10     libucrt:lcidtoname_downlevel.obj
 0002:0000ff20       ??_C@_1BG@OBCNFJB@?$AAs?$AAr?$AA?9?$AAB?$AAA?$AA?9?$AAL?$AAa?$AAt?$AAn?$AA?$AA@ 000000018007af20     libucrt:lcidtoname_downlevel.obj
 0002:0000ff38       ??_C@_1O@KEMEEGPO@?$AAs?$AAm?$AAa?$AA?9?$AAN?$AAO?$AA?$AA@ 000000018007af38     libucrt:lcidtoname_downlevel.obj
 0002:0000ff48       ??_C@_1M@ELMGFODK@?$AAa?$AAr?$AA?9?$AAT?$AAN?$AA?$AA@ 000000018007af48     libucrt:lcidtoname_downlevel.obj
 0002:0000ff58       ??_C@_1M@BHDLHFAF@?$AAe?$AAn?$AA?9?$AAZ?$AAA?$AA?$AA@ 000000018007af58     libucrt:lcidtoname_downlevel.obj
 0002:0000ff68       ??_C@_1M@BMGIGLIF@?$AAe?$AAs?$AA?9?$AAD?$AAO?$AA?$AA@ 000000018007af68     libucrt:lcidtoname_downlevel.obj
 0002:0000ff78       ??_C@_1BG@CMBHIPBE@?$AAs?$AAr?$AA?9?$AAB?$AAA?$AA?9?$AAC?$AAy?$AAr?$AAl?$AA?$AA@ 000000018007af78     libucrt:lcidtoname_downlevel.obj
 0002:0000ff90       ??_C@_1O@HEDBLHNP@?$AAs?$AAm?$AAa?$AA?9?$AAS?$AAE?$AA?$AA@ 000000018007af90     libucrt:lcidtoname_downlevel.obj
 0002:0000ffa0       ??_C@_1M@DAGCADIM@?$AAa?$AAr?$AA?9?$AAO?$AAM?$AA?$AA@ 000000018007afa0     libucrt:lcidtoname_downlevel.obj
 0002:0000ffb0       ??_C@_1M@FODLMICG@?$AAe?$AAn?$AA?9?$AAJ?$AAM?$AA?$AA@ 000000018007afb0     libucrt:lcidtoname_downlevel.obj
 0002:0000ffc0       ??_C@_1M@DNMLCIHB@?$AAe?$AAs?$AA?9?$AAV?$AAE?$AA?$AA@ 000000018007afc0     libucrt:lcidtoname_downlevel.obj
 0002:0000ffd0       ??_C@_1O@EOKHMKJK@?$AAs?$AAm?$AAs?$AA?9?$AAF?$AAI?$AA?$AA@ 000000018007afd0     libucrt:lcidtoname_downlevel.obj
 0002:0000ffe0       ??_C@_1M@CAFJMKOF@?$AAa?$AAr?$AA?9?$AAY?$AAE?$AA?$AA@ 000000018007afe0     libucrt:lcidtoname_downlevel.obj
 0002:0000fff0       ??_C@_1M@CBFHIJLI@?$AAe?$AAn?$AA?9?$AAC?$AAB?$AA?$AA@ 000000018007aff0     libucrt:lcidtoname_downlevel.obj
 0002:00010000       ??_C@_1M@BGNFLDN@?$AAe?$AAs?$AA?9?$AAC?$AAO?$AA?$AA@ 000000018007b000     libucrt:lcidtoname_downlevel.obj
 0002:00010010       ??_C@_1O@JMPHMAMC@?$AAs?$AAm?$AAn?$AA?9?$AAF?$AAI?$AA?$AA@ 000000018007b010     libucrt:lcidtoname_downlevel.obj
 0002:00010020       ??_C@_1M@JLANABKE@?$AAa?$AAr?$AA?9?$AAS?$AAY?$AA?$AA@ 000000018007b020     libucrt:lcidtoname_downlevel.obj
 0002:00010030       ??_C@_1M@HPKGCFGN@?$AAe?$AAn?$AA?9?$AAB?$AAZ?$AA?$AA@ 000000018007b030     libucrt:lcidtoname_downlevel.obj
 0002:00010040       ??_C@_1M@OLJCMLGM@?$AAe?$AAs?$AA?9?$AAP?$AAE?$AA?$AA@ 000000018007b040     libucrt:lcidtoname_downlevel.obj
 0002:00010050       ??_C@_1M@MKKGFKLE@?$AAa?$AAr?$AA?9?$AAJ?$AAO?$AA?$AA@ 000000018007b050     libucrt:lcidtoname_downlevel.obj
 0002:00010060       ??_C@_1M@EKPGLDNI@?$AAe?$AAn?$AA?9?$AAT?$AAT?$AA?$AA@ 000000018007b060     libucrt:lcidtoname_downlevel.obj
 0002:00010070       ??_C@_1M@OONGHFHE@?$AAe?$AAs?$AA?9?$AAA?$AAR?$AA?$AA@ 000000018007b070     libucrt:lcidtoname_downlevel.obj
 0002:00010080       ??_C@_1M@OOJFGBHE@?$AAa?$AAr?$AA?9?$AAL?$AAB?$AA?$AA@ 000000018007b080     libucrt:lcidtoname_downlevel.obj
 0002:00010090       ??_C@_1M@GCEJHNEG@?$AAe?$AAn?$AA?9?$AAZ?$AAW?$AA?$AA@ 000000018007b090     libucrt:lcidtoname_downlevel.obj
 0002:000100a0       ??_C@_1M@JNOCAHJI@?$AAe?$AAs?$AA?9?$AAE?$AAC?$AA?$AA@ 000000018007b0a0     libucrt:lcidtoname_downlevel.obj
 0002:000100b0       ??_C@_1M@JEFHPGGB@?$AAa?$AAr?$AA?9?$AAK?$AAW?$AA?$AA@ 000000018007b0b0     libucrt:lcidtoname_downlevel.obj
 0002:000100c0       ??_C@_1M@MLKIBJOJ@?$AAe?$AAn?$AA?9?$AAP?$AAH?$AA?$AA@ 000000018007b0c0     libucrt:lcidtoname_downlevel.obj
 0002:000100d0       ??_C@_1M@BDNIPEND@?$AAe?$AAs?$AA?9?$AAC?$AAL?$AA?$AA@ 000000018007b0d0     libucrt:lcidtoname_downlevel.obj
 0002:000100e0       ??_C@_1M@MPNMEKBD@?$AAa?$AAr?$AA?9?$AAA?$AAE?$AA?$AA@ 000000018007b0e0     libucrt:lcidtoname_downlevel.obj
 0002:000100f0       ??_C@_1M@KBJALCPI@?$AAe?$AAs?$AA?9?$AAU?$AAY?$AA?$AA@ 000000018007b0f0     libucrt:lcidtoname_downlevel.obj
 0002:00010100       ??_C@_1M@LLCCOAGA@?$AAa?$AAr?$AA?9?$AAB?$AAH?$AA?$AA@ 000000018007b100     libucrt:lcidtoname_downlevel.obj
 0002:00010110       ??_C@_1M@PBFNCDEL@?$AAe?$AAs?$AA?9?$AAP?$AAY?$AA?$AA@ 000000018007b110     libucrt:lcidtoname_downlevel.obj
 0002:00010120       ??_C@_1M@EDGINPNP@?$AAa?$AAr?$AA?9?$AAQ?$AAA?$AA?$AA@ 000000018007b120     libucrt:lcidtoname_downlevel.obj
 0002:00010130       ??_C@_1M@MKDBIIJI@?$AAe?$AAs?$AA?9?$AAB?$AAO?$AA?$AA@ 000000018007b130     libucrt:lcidtoname_downlevel.obj
 0002:00010140       ??_C@_1M@CPKKEBLD@?$AAe?$AAs?$AA?9?$AAS?$AAV?$AA?$AA@ 000000018007b140     libucrt:lcidtoname_downlevel.obj
 0002:00010150       ??_C@_1M@NDBGMMJL@?$AAe?$AAs?$AA?9?$AAH?$AAN?$AA?$AA@ 000000018007b150     libucrt:lcidtoname_downlevel.obj
 0002:00010160       ??_C@_1M@JIJIBHDP@?$AAe?$AAs?$AA?9?$AAN?$AAI?$AA?$AA@ 000000018007b160     libucrt:lcidtoname_downlevel.obj
 0002:00010170       ??_C@_1M@CGFMKEEK@?$AAe?$AAs?$AA?9?$AAP?$AAR?$AA?$AA@ 000000018007b170     libucrt:lcidtoname_downlevel.obj
 0002:00010180       ??_C@_1O@ICJHKIIK@?$AAz?$AAh?$AA?9?$AAC?$AAH?$AAT?$AA?$AA@ 000000018007b180     libucrt:lcidtoname_downlevel.obj
 0002:00010190       ??_C@_15CLNEJCE@?$AAs?$AAr?$AA?$AA@ 000000018007b190     libucrt:lcidtoname_downlevel.obj
 0002:00010fe0       ??_C@_1M@KAHEKEIG@?$AAa?$AAf?$AA?9?$AAz?$AAa?$AA?$AA@ 000000018007bfe0     libucrt:lcidtoname_downlevel.obj
 0002:00010ff0       ??_C@_1M@GIECOABL@?$AAa?$AAr?$AA?9?$AAa?$AAe?$AA?$AA@ 000000018007bff0     libucrt:lcidtoname_downlevel.obj
 0002:00011000       ??_C@_1M@BMLMEKGI@?$AAa?$AAr?$AA?9?$AAb?$AAh?$AA?$AA@ 000000018007c000     libucrt:lcidtoname_downlevel.obj
 0002:00011010       ??_C@_1M@DAPFDGGB@?$AAa?$AAr?$AA?9?$AAd?$AAz?$AA?$AA@ 000000018007c010     libucrt:lcidtoname_downlevel.obj
 0002:00011020       ??_C@_1M@FJNKGKIG@?$AAa?$AAr?$AA?9?$AAe?$AAg?$AA?$AA@ 000000018007c020     libucrt:lcidtoname_downlevel.obj
 0002:00011030       ??_C@_1M@FLGKKCLO@?$AAa?$AAr?$AA?9?$AAi?$AAq?$AA?$AA@ 000000018007c030     libucrt:lcidtoname_downlevel.obj
 0002:00011040       ??_C@_1M@GNDIPALM@?$AAa?$AAr?$AA?9?$AAj?$AAo?$AA?$AA@ 000000018007c040     libucrt:lcidtoname_downlevel.obj
 0002:00011050       ??_C@_1M@DDMJFMGJ@?$AAa?$AAr?$AA?9?$AAk?$AAw?$AA?$AA@ 000000018007c050     libucrt:lcidtoname_downlevel.obj
 0002:00011060       ??_C@_1M@EJALMLHM@?$AAa?$AAr?$AA?9?$AAl?$AAb?$AA?$AA@ 000000018007c060     libucrt:lcidtoname_downlevel.obj
 0002:00011070       ??_C@_1M@MOBDBLOC@?$AAa?$AAr?$AA?9?$AAl?$AAy?$AA?$AA@ 000000018007c070     libucrt:lcidtoname_downlevel.obj
 0002:00011080       ??_C@_1M@JAOCLHDH@?$AAa?$AAr?$AA?9?$AAm?$AAa?$AA?$AA@ 000000018007c080     libucrt:lcidtoname_downlevel.obj
 0002:00011090       ??_C@_1M@JHPMKJIE@?$AAa?$AAr?$AA?9?$AAo?$AAm?$AA?$AA@ 000000018007c090     libucrt:lcidtoname_downlevel.obj
 0002:000110a0       ??_C@_1M@OEPGHFNH@?$AAa?$AAr?$AA?9?$AAq?$AAa?$AA?$AA@ 000000018007c0a0     libucrt:lcidtoname_downlevel.obj
 0002:000110b0       ??_C@_1M@KJDONENM@?$AAa?$AAr?$AA?9?$AAs?$AAa?$AA?$AA@ 000000018007c0b0     libucrt:lcidtoname_downlevel.obj
 0002:000110c0       ??_C@_1M@DMJDKLKM@?$AAa?$AAr?$AA?9?$AAs?$AAy?$AA?$AA@ 000000018007c0c0     libucrt:lcidtoname_downlevel.obj
 0002:000110d0       ??_C@_1M@OMFIPEDC@?$AAa?$AAr?$AA?9?$AAt?$AAn?$AA?$AA@ 000000018007c0d0     libucrt:lcidtoname_downlevel.obj
 0002:000110e0       ??_C@_1M@IHMHGAON@?$AAa?$AAr?$AA?9?$AAy?$AAe?$AA?$AA@ 000000018007c0e0     libucrt:lcidtoname_downlevel.obj
 0002:000110f0       ??_C@_1BG@KDCPGJGB@?$AAa?$AAz?$AA?9?$AAa?$AAz?$AA?9?$AAc?$AAy?$AAr?$AAl?$AA?$AA@ 000000018007c0f0     libucrt:lcidtoname_downlevel.obj
 0002:00011108       ??_C@_1BG@IBCKDDOE@?$AAa?$AAz?$AA?9?$AAa?$AAz?$AA?9?$AAl?$AAa?$AAt?$AAn?$AA?$AA@ 000000018007c108     libucrt:lcidtoname_downlevel.obj
 0002:00011120       ??_C@_1M@EGPFDCPD@?$AAb?$AAe?$AA?9?$AAb?$AAy?$AA?$AA@ 000000018007c120     libucrt:lcidtoname_downlevel.obj
 0002:00011130       ??_C@_1M@PCMGMCGC@?$AAb?$AAg?$AA?9?$AAb?$AAg?$AA?$AA@ 000000018007c130     libucrt:lcidtoname_downlevel.obj
 0002:00011140       ??_C@_1M@BJBMFGOB@?$AAb?$AAn?$AA?9?$AAi?$AAn?$AA?$AA@ 000000018007c140     libucrt:lcidtoname_downlevel.obj
 0002:00011150       ??_C@_1BG@EAKMMACD@?$AAb?$AAs?$AA?9?$AAb?$AAa?$AA?9?$AAl?$AAa?$AAt?$AAn?$AA?$AA@ 000000018007c150     libucrt:lcidtoname_downlevel.obj
 0002:00011168       ??_C@_1M@KGADAODK@?$AAc?$AAa?$AA?9?$AAe?$AAs?$AA?$AA@ 000000018007c168     libucrt:lcidtoname_downlevel.obj
 0002:00011178       ??_C@_1M@COAJPDHI@?$AAc?$AAs?$AA?9?$AAc?$AAz?$AA?$AA@ 000000018007c178     libucrt:lcidtoname_downlevel.obj
 0002:00011188       ??_C@_1M@DHBHFONH@?$AAc?$AAy?$AA?9?$AAg?$AAb?$AA?$AA@ 000000018007c188     libucrt:lcidtoname_downlevel.obj
 0002:00011198       ??_C@_1M@IMGKELGA@?$AAd?$AAa?$AA?9?$AAd?$AAk?$AA?$AA@ 000000018007c198     libucrt:lcidtoname_downlevel.obj
 0002:000111a8       ??_C@_1M@NNDGDNGA@?$AAd?$AAe?$AA?9?$AAa?$AAt?$AA?$AA@ 000000018007c1a8     libucrt:lcidtoname_downlevel.obj
 0002:000111b8       ??_C@_1M@IKDBHEEM@?$AAd?$AAe?$AA?9?$AAc?$AAh?$AA?$AA@ 000000018007c1b8     libucrt:lcidtoname_downlevel.obj
 0002:000111c8       ??_C@_1M@GFFOJMCJ@?$AAd?$AAe?$AA?9?$AAd?$AAe?$AA?$AA@ 000000018007c1c8     libucrt:lcidtoname_downlevel.obj
 0002:000111d8       ??_C@_1M@MDNLKBPM@?$AAd?$AAe?$AA?9?$AAl?$AAi?$AA?$AA@ 000000018007c1d8     libucrt:lcidtoname_downlevel.obj
 0002:000111e8       ??_C@_1M@NJBEEJNL@?$AAd?$AAe?$AA?9?$AAl?$AAu?$AA?$AA@ 000000018007c1e8     libucrt:lcidtoname_downlevel.obj
 0002:000111f8       ??_C@_1O@GNNELBAP@?$AAd?$AAi?$AAv?$AA?9?$AAm?$AAv?$AA?$AA@ 000000018007c1f8     libucrt:lcidtoname_downlevel.obj
 0002:00011208       ??_C@_1M@EJLEOGAE@?$AAe?$AAl?$AA?9?$AAg?$AAr?$AA?$AA@ 000000018007c208     libucrt:lcidtoname_downlevel.obj
 0002:00011218       ??_C@_1M@GMPONJN@?$AAe?$AAn?$AA?9?$AAa?$AAu?$AA?$AA@ 000000018007c218     libucrt:lcidtoname_downlevel.obj
 0002:00011228       ??_C@_1M@NIDIIPGF@?$AAe?$AAn?$AA?9?$AAb?$AAz?$AA?$AA@ 000000018007c228     libucrt:lcidtoname_downlevel.obj
 0002:00011238       ??_C@_1M@JEHMIMFO@?$AAe?$AAn?$AA?9?$AAc?$AAa?$AA?$AA@ 000000018007c238     libucrt:lcidtoname_downlevel.obj
 0002:00011248       ??_C@_1M@IGMJCDLA@?$AAe?$AAn?$AA?9?$AAc?$AAb?$AA?$AA@ 000000018007c248     libucrt:lcidtoname_downlevel.obj
 0002:00011258       ??_C@_1M@BNFIGBKG@?$AAe?$AAn?$AA?9?$AAg?$AAb?$AA?$AA@ 000000018007c258     libucrt:lcidtoname_downlevel.obj
 0002:00011268       ??_C@_1M@LKIFDIGP@?$AAe?$AAn?$AA?9?$AAi?$AAe?$AA?$AA@ 000000018007c268     libucrt:lcidtoname_downlevel.obj
 0002:00011278       ??_C@_1M@PJKFGCCO@?$AAe?$AAn?$AA?9?$AAj?$AAm?$AA?$AA@ 000000018007c278     libucrt:lcidtoname_downlevel.obj
 0002:00011288       ??_C@_1M@KPPKEPBO@?$AAe?$AAn?$AA?9?$AAn?$AAz?$AA?$AA@ 000000018007c288     libucrt:lcidtoname_downlevel.obj
 0002:00011298       ??_C@_1M@GMDGLDOB@?$AAe?$AAn?$AA?9?$AAp?$AAh?$AA?$AA@ 000000018007c298     libucrt:lcidtoname_downlevel.obj
 0002:000112a8       ??_C@_1M@ONGIBJNA@?$AAe?$AAn?$AA?9?$AAt?$AAt?$AA?$AA@ 000000018007c2a8     libucrt:lcidtoname_downlevel.obj
 0002:000112b8       ??_C@_1M@LLODPCMM@?$AAe?$AAn?$AA?9?$AAu?$AAs?$AA?$AA@ 000000018007c2b8     libucrt:lcidtoname_downlevel.obj
 0002:000112c8       ??_C@_1M@LAKFNPAN@?$AAe?$AAn?$AA?9?$AAz?$AAa?$AA?$AA@ 000000018007c2c8     libucrt:lcidtoname_downlevel.obj
 0002:000112d8       ??_C@_1M@MFNHNHEO@?$AAe?$AAn?$AA?9?$AAz?$AAw?$AA?$AA@ 000000018007c2d8     libucrt:lcidtoname_downlevel.obj
 0002:000112e8       ??_C@_1M@EJEINPHM@?$AAe?$AAs?$AA?9?$AAa?$AAr?$AA?$AA@ 000000018007c2e8     libucrt:lcidtoname_downlevel.obj
 0002:000112f8       ??_C@_1M@GNKPCCJA@?$AAe?$AAs?$AA?9?$AAb?$AAo?$AA?$AA@ 000000018007c2f8     libucrt:lcidtoname_downlevel.obj
 0002:00011308       ??_C@_1M@LEEGFONL@?$AAe?$AAs?$AA?9?$AAc?$AAl?$AA?$AA@ 000000018007c308     libucrt:lcidtoname_downlevel.obj
 0002:00011318       ??_C@_1M@KGPDPBDF@?$AAe?$AAs?$AA?9?$AAc?$AAo?$AA?$AA@ 000000018007c318     libucrt:lcidtoname_downlevel.obj
 0002:00011328       ??_C@_1M@EIAHOHH@?$AAe?$AAs?$AA?9?$AAc?$AAr?$AA?$AA@ 000000018007c328     libucrt:lcidtoname_downlevel.obj
 0002:00011338       ??_C@_1M@LLPGMBIN@?$AAe?$AAs?$AA?9?$AAd?$AAo?$AA?$AA@ 000000018007c338     libucrt:lcidtoname_downlevel.obj
 0002:00011348       ??_C@_1M@DKHMKNJA@?$AAe?$AAs?$AA?9?$AAe?$AAc?$AA?$AA@ 000000018007c348     libucrt:lcidtoname_downlevel.obj
 0002:00011358       ??_C@_1M@GKGFPKAP@?$AAe?$AAs?$AA?9?$AAe?$AAs?$AA?$AA@ 000000018007c358     libucrt:lcidtoname_downlevel.obj
 0002:00011368       ??_C@_1M@LKHKGDLN@?$AAe?$AAs?$AA?9?$AAg?$AAt?$AA?$AA@ 000000018007c368     libucrt:lcidtoname_downlevel.obj
 0002:00011378       ??_C@_1M@HEIIGGJD@?$AAe?$AAs?$AA?9?$AAh?$AAn?$AA?$AA@ 000000018007c378     libucrt:lcidtoname_downlevel.obj
 0002:00011388       ??_C@_1M@FBDHPPGD@?$AAe?$AAs?$AA?9?$AAm?$AAx?$AA?$AA@ 000000018007c388     libucrt:lcidtoname_downlevel.obj
 0002:00011398       ??_C@_1M@DPAGLNDH@?$AAe?$AAs?$AA?9?$AAn?$AAi?$AA?$AA@ 000000018007c398     libucrt:lcidtoname_downlevel.obj
 0002:000113a8       ??_C@_1M@MDGOPGDD@?$AAe?$AAs?$AA?9?$AAp?$AAa?$AA?$AA@ 000000018007c3a8     libucrt:lcidtoname_downlevel.obj
 0002:000113b8       ??_C@_1M@EMAMGBGE@?$AAe?$AAs?$AA?9?$AAp?$AAe?$AA?$AA@ 000000018007c3b8     libucrt:lcidtoname_downlevel.obj
 0002:000113c8       ??_C@_1M@IBMCAOEC@?$AAe?$AAs?$AA?9?$AAp?$AAr?$AA?$AA@ 000000018007c3c8     libucrt:lcidtoname_downlevel.obj
 0002:000113d8       ??_C@_1M@FGMDIJED@?$AAe?$AAs?$AA?9?$AAp?$AAy?$AA?$AA@ 000000018007c3d8     libucrt:lcidtoname_downlevel.obj
 0002:000113e8       ??_C@_1M@IIDEOLLL@?$AAe?$AAs?$AA?9?$AAs?$AAv?$AA?$AA@ 000000018007c3e8     libucrt:lcidtoname_downlevel.obj
 0002:000113f8       ??_C@_1M@GAOBIPA@?$AAe?$AAs?$AA?9?$AAu?$AAy?$AA?$AA@ 000000018007c3f8     libucrt:lcidtoname_downlevel.obj
 0002:00011408       ??_C@_1M@JKFFICHJ@?$AAe?$AAs?$AA?9?$AAv?$AAe?$AA?$AA@ 000000018007c408     libucrt:lcidtoname_downlevel.obj
 0002:00011418       ??_C@_1M@PNMLOJDF@?$AAe?$AAt?$AA?9?$AAe?$AAe?$AA?$AA@ 000000018007c418     libucrt:lcidtoname_downlevel.obj
 0002:00011428       ??_C@_1M@GHHLIKEI@?$AAe?$AAu?$AA?9?$AAe?$AAs?$AA?$AA@ 000000018007c428     libucrt:lcidtoname_downlevel.obj
 0002:00011438       ??_C@_1M@PBNONODE@?$AAf?$AAa?$AA?9?$AAi?$AAr?$AA?$AA@ 000000018007c438     libucrt:lcidtoname_downlevel.obj
 0002:00011448       ??_C@_1M@JEEHPMIL@?$AAf?$AAi?$AA?9?$AAf?$AAi?$AA?$AA@ 000000018007c448     libucrt:lcidtoname_downlevel.obj
 0002:00011458       ??_C@_1M@LMDCNDBA@?$AAf?$AAo?$AA?9?$AAf?$AAo?$AA?$AA@ 000000018007c458     libucrt:lcidtoname_downlevel.obj
 0002:00011468       ??_C@_1M@JKEOHLDK@?$AAf?$AAr?$AA?9?$AAb?$AAe?$AA?$AA@ 000000018007c468     libucrt:lcidtoname_downlevel.obj
 0002:00011478       ??_C@_1M@NOHADPMI@?$AAf?$AAr?$AA?9?$AAc?$AAa?$AA?$AA@ 000000018007c478     libucrt:lcidtoname_downlevel.obj
 0002:00011488       ??_C@_1M@KDHIHAEC@?$AAf?$AAr?$AA?9?$AAc?$AAh?$AA?$AA@ 000000018007c488     libucrt:lcidtoname_downlevel.obj
 0002:00011498       ??_C@_1M@MMBBFGAK@?$AAf?$AAr?$AA?9?$AAf?$AAr?$AA?$AA@ 000000018007c498     libucrt:lcidtoname_downlevel.obj
 0002:000114a8       ??_C@_1M@PAFNENNF@?$AAf?$AAr?$AA?9?$AAl?$AAu?$AA?$AA@ 000000018007c4a8     libucrt:lcidtoname_downlevel.obj
 0002:000114b8       ??_C@_1M@EOHDJGDD@?$AAf?$AAr?$AA?9?$AAm?$AAc?$AA?$AA@ 000000018007c4b8     libucrt:lcidtoname_downlevel.obj
 0002:000114c8       ??_C@_1M@FAPLLOPF@?$AAg?$AAl?$AA?9?$AAe?$AAs?$AA?$AA@ 000000018007c4c8     libucrt:lcidtoname_downlevel.obj
 0002:000114d8       ??_C@_1M@FOPBFLOO@?$AAg?$AAu?$AA?9?$AAi?$AAn?$AA?$AA@ 000000018007c4d8     libucrt:lcidtoname_downlevel.obj
 0002:000114e8       ??_C@_1M@KBMCINPM@?$AAh?$AAe?$AA?9?$AAi?$AAl?$AA?$AA@ 000000018007c4e8     libucrt:lcidtoname_downlevel.obj
 0002:000114f8       ??_C@_1M@BBPHKFPJ@?$AAh?$AAi?$AA?9?$AAi?$AAn?$AA?$AA@ 000000018007c4f8     libucrt:lcidtoname_downlevel.obj
 0002:00011508       ??_C@_1M@PMBNDPHD@?$AAh?$AAr?$AA?9?$AAb?$AAa?$AA?$AA@ 000000018007c508     libucrt:lcidtoname_downlevel.obj
 0002:00011518       ??_C@_1M@BPCKOEGE@?$AAh?$AAr?$AA?9?$AAh?$AAr?$AA?$AA@ 000000018007c518     libucrt:lcidtoname_downlevel.obj
 0002:00011528       ??_C@_1M@GACBMHKE@?$AAh?$AAu?$AA?9?$AAh?$AAu?$AA?$AA@ 000000018007c528     libucrt:lcidtoname_downlevel.obj
 0002:00011538       ??_C@_1M@MILPAJJC@?$AAh?$AAy?$AA?9?$AAa?$AAm?$AA?$AA@ 000000018007c538     libucrt:lcidtoname_downlevel.obj
 0002:00011548       ??_C@_1M@BABBICEC@?$AAi?$AAd?$AA?9?$AAi?$AAd?$AA?$AA@ 000000018007c548     libucrt:lcidtoname_downlevel.obj
 0002:00011558       ??_C@_1M@BIKNHHPF@?$AAi?$AAs?$AA?9?$AAi?$AAs?$AA?$AA@ 000000018007c558     libucrt:lcidtoname_downlevel.obj
 0002:00011568       ??_C@_1M@NMPCJPHE@?$AAi?$AAt?$AA?9?$AAc?$AAh?$AA?$AA@ 000000018007c568     libucrt:lcidtoname_downlevel.obj
 0002:00011578       ??_C@_1M@GHKGFEDF@?$AAi?$AAt?$AA?9?$AAi?$AAt?$AA?$AA@ 000000018007c578     libucrt:lcidtoname_downlevel.obj
 0002:00011588       ??_C@_1M@NIEJCJJA@?$AAj?$AAa?$AA?9?$AAj?$AAp?$AA?$AA@ 000000018007c588     libucrt:lcidtoname_downlevel.obj
 0002:00011598       ??_C@_1M@JILFNBIM@?$AAk?$AAa?$AA?9?$AAg?$AAe?$AA?$AA@ 000000018007c598     libucrt:lcidtoname_downlevel.obj
 0002:000115a8       ??_C@_1M@PACPMGPH@?$AAk?$AAk?$AA?9?$AAk?$AAz?$AA?$AA@ 000000018007c5a8     libucrt:lcidtoname_downlevel.obj
 0002:000115b8       ??_C@_1M@IELFGMHA@?$AAk?$AAn?$AA?9?$AAi?$AAn?$AA?$AA@ 000000018007c5b8     libucrt:lcidtoname_downlevel.obj
 0002:000115c8       ??_C@_1O@IBBJHCH@?$AAk?$AAo?$AAk?$AA?9?$AAi?$AAn?$AA?$AA@ 000000018007c5c8     libucrt:lcidtoname_downlevel.obj
 0002:000115d8       ??_C@_1M@DMHAEOGC@?$AAk?$AAo?$AA?9?$AAk?$AAr?$AA?$AA@ 000000018007c5d8     libucrt:lcidtoname_downlevel.obj
 0002:000115e8       ??_C@_1M@HBAHBIGA@?$AAk?$AAy?$AA?9?$AAk?$AAg?$AA?$AA@ 000000018007c5e8     libucrt:lcidtoname_downlevel.obj
 0002:000115f8       ??_C@_1M@KPMILCJG@?$AAl?$AAt?$AA?9?$AAl?$AAt?$AA?$AA@ 000000018007c5f8     libucrt:lcidtoname_downlevel.obj
 0002:00011608       ??_C@_1M@BDEKKCA@?$AAl?$AAv?$AA?9?$AAl?$AAv?$AA?$AA@ 000000018007c608     libucrt:lcidtoname_downlevel.obj
 0002:00011618       ??_C@_1M@ELCKCCJJ@?$AAm?$AAi?$AA?9?$AAn?$AAz?$AA?$AA@ 000000018007c618     libucrt:lcidtoname_downlevel.obj
 0002:00011628       ??_C@_1M@CBOOLAPA@?$AAm?$AAk?$AA?9?$AAm?$AAk?$AA?$AA@ 000000018007c628     libucrt:lcidtoname_downlevel.obj
 0002:00011638       ??_C@_1M@GPHNBJKN@?$AAm?$AAl?$AA?9?$AAi?$AAn?$AA?$AA@ 000000018007c638     libucrt:lcidtoname_downlevel.obj
 0002:00011648       ??_C@_1M@PABJILIG@?$AAm?$AAn?$AA?9?$AAm?$AAn?$AA?$AA@ 000000018007c648     libucrt:lcidtoname_downlevel.obj
 0002:00011658       ??_C@_1M@FGBKKIPG@?$AAm?$AAr?$AA?9?$AAi?$AAn?$AA?$AA@ 000000018007c658     libucrt:lcidtoname_downlevel.obj
 0002:00011668       ??_C@_1M@NDBPDDAL@?$AAm?$AAs?$AA?9?$AAb?$AAn?$AA?$AA@ 000000018007c668     libucrt:lcidtoname_downlevel.obj
 0002:00011678       ??_C@_1M@OPIHOOPI@?$AAm?$AAs?$AA?9?$AAm?$AAy?$AA?$AA@ 000000018007c678     libucrt:lcidtoname_downlevel.obj
 0002:00011688       ??_C@_1M@PPDBCNFM@?$AAm?$AAt?$AA?9?$AAm?$AAt?$AA?$AA@ 000000018007c688     libucrt:lcidtoname_downlevel.obj
 0002:00011698       ??_C@_1M@KDJDKMDD@?$AAn?$AAb?$AA?9?$AAn?$AAo?$AA?$AA@ 000000018007c698     libucrt:lcidtoname_downlevel.obj
 0002:000116a8       ??_C@_1M@KFCFLMJP@?$AAn?$AAl?$AA?9?$AAb?$AAe?$AA?$AA@ 000000018007c6a8     libucrt:lcidtoname_downlevel.obj
 0002:000116b8       ??_C@_1M@KPOPDDGO@?$AAn?$AAl?$AA?9?$AAn?$AAl?$AA?$AA@ 000000018007c6b8     libucrt:lcidtoname_downlevel.obj
 0002:000116c8       ??_C@_1M@LJKPEMLN@?$AAn?$AAn?$AA?9?$AAn?$AAo?$AA?$AA@ 000000018007c6c8     libucrt:lcidtoname_downlevel.obj
 0002:000116d8       ??_C@_1M@BDGHHBFL@?$AAn?$AAs?$AA?9?$AAz?$AAa?$AA?$AA@ 000000018007c6d8     libucrt:lcidtoname_downlevel.obj
 0002:000116e8       ??_C@_1M@IDEHOAP@?$AAp?$AAa?$AA?9?$AAi?$AAn?$AA?$AA@ 000000018007c6e8     libucrt:lcidtoname_downlevel.obj
 0002:000116f8       ??_C@_1M@HDBKGOGH@?$AAp?$AAl?$AA?9?$AAp?$AAl?$AA?$AA@ 000000018007c6f8     libucrt:lcidtoname_downlevel.obj
 0002:00011708       ??_C@_1M@LJLLCMEH@?$AAp?$AAt?$AA?9?$AAb?$AAr?$AA?$AA@ 000000018007c708     libucrt:lcidtoname_downlevel.obj
 0002:00011718       ??_C@_1M@NCMONAAL@?$AAp?$AAt?$AA?9?$AAp?$AAt?$AA?$AA@ 000000018007c718     libucrt:lcidtoname_downlevel.obj
 0002:00011728       ??_C@_1O@EAKMAJDN@?$AAq?$AAu?$AAz?$AA?9?$AAb?$AAo?$AA?$AA@ 000000018007c728     libucrt:lcidtoname_downlevel.obj
 0002:00011738       ??_C@_1O@BHHPIGDN@?$AAq?$AAu?$AAz?$AA?9?$AAe?$AAc?$AA?$AA@ 000000018007c738     libucrt:lcidtoname_downlevel.obj
 0002:00011748       ??_C@_1O@GBAPEKMJ@?$AAq?$AAu?$AAz?$AA?9?$AAp?$AAe?$AA?$AA@ 000000018007c748     libucrt:lcidtoname_downlevel.obj
 0002:00011758       ??_C@_1M@CLGLEFBO@?$AAr?$AAo?$AA?9?$AAr?$AAo?$AA?$AA@ 000000018007c758     libucrt:lcidtoname_downlevel.obj
 0002:00011768       ??_C@_1M@CEEDODME@?$AAr?$AAu?$AA?9?$AAr?$AAu?$AA?$AA@ 000000018007c768     libucrt:lcidtoname_downlevel.obj
 0002:00011778       ??_C@_1M@HPKKKMPP@?$AAs?$AAa?$AA?9?$AAi?$AAn?$AA?$AA@ 000000018007c778     libucrt:lcidtoname_downlevel.obj
 0002:00011788       ??_C@_1M@BKMAIGOJ@?$AAs?$AAe?$AA?9?$AAf?$AAi?$AA?$AA@ 000000018007c788     libucrt:lcidtoname_downlevel.obj
 0002:00011798       ??_C@_1M@NDPIFLFI@?$AAs?$AAe?$AA?9?$AAn?$AAo?$AA?$AA@ 000000018007c798     libucrt:lcidtoname_downlevel.obj
 0002:000117a8       ??_C@_1M@DANKKHJ@?$AAs?$AAe?$AA?9?$AAs?$AAe?$AA?$AA@ 000000018007c7a8     libucrt:lcidtoname_downlevel.obj
 0002:000117b8       ??_C@_1M@PNBLONPJ@?$AAs?$AAk?$AA?9?$AAs?$AAk?$AA?$AA@ 000000018007c7b8     libucrt:lcidtoname_downlevel.obj
 0002:000117c8       ??_C@_1M@LFMODOAL@?$AAs?$AAl?$AA?9?$AAs?$AAi?$AA?$AA@ 000000018007c7c8     libucrt:lcidtoname_downlevel.obj
 0002:000117d8       ??_C@_1O@DFKOMPG@?$AAs?$AAm?$AAa?$AA?9?$AAn?$AAo?$AA?$AA@ 000000018007c7d8     libucrt:lcidtoname_downlevel.obj
 0002:000117e8       ??_C@_1O@NDKPBNNH@?$AAs?$AAm?$AAa?$AA?9?$AAs?$AAe?$AA?$AA@ 000000018007c7e8     libucrt:lcidtoname_downlevel.obj
 0002:000117f8       ??_C@_1O@PLLKBHAB@?$AAs?$AAm?$AAj?$AA?9?$AAn?$AAo?$AA?$AA@ 000000018007c7f8     libucrt:lcidtoname_downlevel.obj
 0002:00011808       ??_C@_1O@CLEPOGCA@?$AAs?$AAm?$AAj?$AA?9?$AAs?$AAe?$AA?$AA@ 000000018007c808     libucrt:lcidtoname_downlevel.obj
 0002:00011818       ??_C@_1O@DLGJGKMK@?$AAs?$AAm?$AAn?$AA?9?$AAf?$AAi?$AA?$AA@ 000000018007c818     libucrt:lcidtoname_downlevel.obj
 0002:00011828       ??_C@_1O@OJDJGAJC@?$AAs?$AAm?$AAs?$AA?9?$AAf?$AAi?$AA?$AA@ 000000018007c828     libucrt:lcidtoname_downlevel.obj
 0002:00011838       ??_C@_1M@BOFOGHPB@?$AAs?$AAq?$AA?9?$AAa?$AAl?$AA?$AA@ 000000018007c838     libucrt:lcidtoname_downlevel.obj
 0002:00011848       ??_C@_1BG@LJBBIPGB@?$AAs?$AAr?$AA?9?$AAb?$AAa?$AA?9?$AAc?$AAy?$AAr?$AAl?$AA?$AA@ 000000018007c848     libucrt:lcidtoname_downlevel.obj
 0002:00011860       ??_C@_1BG@JLBENFOE@?$AAs?$AAr?$AA?9?$AAb?$AAa?$AA?9?$AAl?$AAa?$AAt?$AAn?$AA?$AA@ 000000018007c860     libucrt:lcidtoname_downlevel.obj
 0002:00011878       ??_C@_1BG@KODPNHE@?$AAs?$AAr?$AA?9?$AAs?$AAp?$AA?9?$AAc?$AAy?$AAr?$AAl?$AA?$AA@ 000000018007c878     libucrt:lcidtoname_downlevel.obj
 0002:00011890       ??_C@_1BG@CIOGKHPB@?$AAs?$AAr?$AA?9?$AAs?$AAp?$AA?9?$AAl?$AAa?$AAt?$AAn?$AA?$AA@ 000000018007c890     libucrt:lcidtoname_downlevel.obj
 0002:000118a8       ??_C@_1M@NGFJLMAC@?$AAs?$AAv?$AA?9?$AAf?$AAi?$AA?$AA@ 000000018007c8a8     libucrt:lcidtoname_downlevel.obj
 0002:000118b8       ??_C@_1M@MPJEJAJC@?$AAs?$AAv?$AA?9?$AAs?$AAe?$AA?$AA@ 000000018007c8b8     libucrt:lcidtoname_downlevel.obj
 0002:000118c8       ??_C@_1M@MPNDHLFK@?$AAs?$AAw?$AA?9?$AAk?$AAe?$AA?$AA@ 000000018007c8c8     libucrt:lcidtoname_downlevel.obj
 0002:000118d8       ??_C@_1O@KOHBJJI@?$AAs?$AAy?$AAr?$AA?9?$AAs?$AAy?$AA?$AA@ 000000018007c8d8     libucrt:lcidtoname_downlevel.obj
 0002:000118e8       ??_C@_1M@LDCEFHA@?$AAt?$AAa?$AA?9?$AAi?$AAn?$AA?$AA@ 000000018007c8e8     libucrt:lcidtoname_downlevel.obj
 0002:000118f8       ??_C@_1M@CNJOFAK@?$AAt?$AAe?$AA?9?$AAi?$AAn?$AA?$AA@ 000000018007c8f8     libucrt:lcidtoname_downlevel.obj
 0002:00011908       ??_C@_1M@GNAECACD@?$AAt?$AAh?$AA?9?$AAt?$AAh?$AA?$AA@ 000000018007c908     libucrt:lcidtoname_downlevel.obj
 0002:00011918       ??_C@_1M@CHBIHOJO@?$AAt?$AAn?$AA?9?$AAz?$AAa?$AA?$AA@ 000000018007c918     libucrt:lcidtoname_downlevel.obj
 0002:00011928       ??_C@_1M@GCCMIGPJ@?$AAt?$AAr?$AA?9?$AAt?$AAr?$AA?$AA@ 000000018007c928     libucrt:lcidtoname_downlevel.obj
 0002:00011938       ??_C@_1M@CELMCNBK@?$AAt?$AAt?$AA?9?$AAr?$AAu?$AA?$AA@ 000000018007c938     libucrt:lcidtoname_downlevel.obj
 0002:00011948       ??_C@_1M@KLMCELGA@?$AAu?$AAk?$AA?9?$AAu?$AAa?$AA?$AA@ 000000018007c948     libucrt:lcidtoname_downlevel.obj
 0002:00011958       ??_C@_1M@EPAJJAJF@?$AAu?$AAr?$AA?9?$AAp?$AAk?$AA?$AA@ 000000018007c958     libucrt:lcidtoname_downlevel.obj
 0002:00011968       ??_C@_1BG@GEGPMCDJ@?$AAu?$AAz?$AA?9?$AAu?$AAz?$AA?9?$AAc?$AAy?$AAr?$AAl?$AA?$AA@ 000000018007c968     libucrt:lcidtoname_downlevel.obj
 0002:00011980       ??_C@_1BG@EGGKJILM@?$AAu?$AAz?$AA?9?$AAu?$AAz?$AA?9?$AAl?$AAa?$AAt?$AAn?$AA?$AA@ 000000018007c980     libucrt:lcidtoname_downlevel.obj
 0002:00011998       ??_C@_1M@GFOCLFF@?$AAv?$AAi?$AA?9?$AAv?$AAn?$AA?$AA@ 000000018007c998     libucrt:lcidtoname_downlevel.obj
 0002:000119a8       ??_C@_1M@CPAMEDFI@?$AAx?$AAh?$AA?9?$AAz?$AAa?$AA?$AA@ 000000018007c9a8     libucrt:lcidtoname_downlevel.obj
 0002:000119b8       ??_C@_1O@EBKIFIGN@?$AAz?$AAh?$AA?9?$AAc?$AAh?$AAs?$AA?$AA@ 000000018007c9b8     libucrt:lcidtoname_downlevel.obj
 0002:000119c8       ??_C@_1O@NMHPGANE@?$AAz?$AAh?$AA?9?$AAc?$AAh?$AAt?$AA?$AA@ 000000018007c9c8     libucrt:lcidtoname_downlevel.obj
 0002:000119d8       ??_C@_1M@LPINJOMC@?$AAz?$AAh?$AA?9?$AAc?$AAn?$AA?$AA@ 000000018007c9d8     libucrt:lcidtoname_downlevel.obj
 0002:000119e8       ??_C@_1M@OCJEJODD@?$AAz?$AAh?$AA?9?$AAh?$AAk?$AA?$AA@ 000000018007c9e8     libucrt:lcidtoname_downlevel.obj
 0002:000119f8       ??_C@_1M@DNDLJINH@?$AAz?$AAh?$AA?9?$AAm?$AAo?$AA?$AA@ 000000018007c9f8     libucrt:lcidtoname_downlevel.obj
 0002:00011a08       ??_C@_1M@MBFDNDND@?$AAz?$AAh?$AA?9?$AAs?$AAg?$AA?$AA@ 000000018007ca08     libucrt:lcidtoname_downlevel.obj
 0002:00011a18       ??_C@_1M@IMEPLEPE@?$AAz?$AAh?$AA?9?$AAt?$AAw?$AA?$AA@ 000000018007ca18     libucrt:lcidtoname_downlevel.obj
 0002:00011a28       ??_C@_1M@BBGHNHJP@?$AAz?$AAu?$AA?9?$AAz?$AAa?$AA?$AA@ 000000018007ca28     libucrt:lcidtoname_downlevel.obj
 0002:00011a34       ??_C@_00CNPNBAHC@?$AA@     000000018007ca34     libucrt:mbrtowc.obj
 0002:00011a40       ?large_power_data@?1??multiply_by_power_of_ten@__crt_strtox@@YA_NAEAUbig_integer@2@I@Z@4QBIB 000000018007ca40     libucrt:cfout.obj
 0002:00012350       ?large_power_indices@?1??multiply_by_power_of_ten@__crt_strtox@@YA_NAEAUbig_integer@2@I@Z@4QBUunpack_index@?1??12@YA_N0I@Z@B 000000018007d350     libucrt:cfout.obj
 0002:000123e8       ?small_powers_of_ten@?1??multiply_by_power_of_ten@__crt_strtox@@YA_NAEAUbig_integer@2@I@Z@4QBIB 000000018007d3e8     libucrt:cfout.obj
 0002:0001240c       ??_C@_01GBGANLPD@0?$AA@    000000018007d40c     libucrt:cfout.obj
 0002:00012410       ??_C@_05DNEBIAHO@1?$CDINF?$AA@ 000000018007d410     libucrt:cfout.obj
 0002:00012418       ??_C@_06IMKFLFPG@1?$CDQNAN?$AA@ 000000018007d418     libucrt:cfout.obj
 0002:00012420       ??_C@_06PGGFOGJG@1?$CDSNAN?$AA@ 000000018007d420     libucrt:cfout.obj
 0002:00012428       ??_C@_05PHHOCPM@1?$CDIND?$AA@ 000000018007d428     libucrt:cfout.obj
 0002:00012430       ??_C@_1BA@BALFACEM@?$AAC?$AAO?$AAN?$AAO?$AAU?$AAT?$AA$?$AA?$AA@ 000000018007d430     libucrt:initcon.obj
 0002:00012440       ??_C@_1BK@DBDEIDLH@?$AAK?$AAE?$AAR?$AAN?$AAE?$AAL?$AA3?$AA2?$AA?4?$AAD?$AAL?$AAL@ 000000018007d440     DelayImp:delayhlp.obj
 0002:00012460       ??_C@_0BI@OMNLIJDB@AcquireSRWLockExclusive@ 000000018007d460     DelayImp:delayhlp.obj
 0002:00012478       ??_C@_0BI@HMIEPCNJ@ReleaseSRWLockExclusive@ 000000018007d478     DelayImp:delayhlp.obj
 0002:00012490       __pfnDliFailureHook2       000000018007d490     DelayImp:delayhk1.obj
 0002:000124a0       _load_config_used          000000018007d4a0     LIBCMT:loadcfg.obj
 0002:000125a0       ??_C@_0BA@JFNIOLAK@string?5too?5long@ 000000018007d5a0     talib.obj
 0002:000125b0       ??_C@_1KE@ONBKCJNC@?$AAc?$AA?3?$AA?2?$AAu?$AAs?$AAe?$AAr?$AAs?$AA?2?$AAm?$AAa?$AAr?$AAc?$AAu?$AAs@ 000000018007d5b0     talib.obj
 0002:00012658       ??_C@_1BO@OPFMAOCA@?$AAl?$AAe?$AAn?$AA?5?$AA?$DM?$AA?$DN?$AA?5?$AAI?$AAN?$AAT?$AA_?$AAM?$AAA?$AAX@ 000000018007d658     talib.obj
 0002:00012678       ??_C@_1BE@CKDJNAPC@?$AAs?$AAt?$AAr?$AA_?$AA?5?$AA?$CB?$AA?$DN?$AA?5?$AA0@ 000000018007d678     talib.obj
 0002:00012690       ??_C@_0BC@EBHDFLHM@nan?3Callback?3Call@ 000000018007d690     talib.obj
 0002:000126a4       ??_C@_05KKCIMGE@error@     000000018007d6a4     talib.obj
 0002:000126b0       ??_C@_0CF@MCHKMGIO@Failed?5wo?9?$DOretCode?5is?5not?5TA_SU@ 000000018007d6b0     talib.obj
 0002:000126d8       ??_C@_08KOJCJGCO@begIndex@ 000000018007d6d8     talib.obj
 0002:000126e8       ??_C@_09LANMJAIM@nbElement@ 000000018007d6e8     talib.obj
 0002:000126f4       ??_C@_06KJFADLGN@result@   000000018007d6f4     talib.obj
 0002:000126fc       ??_C@_04MEMAJGDJ@name@     000000018007d6fc     talib.obj
 0002:00012704       ??_C@_05MGJOOGAJ@group@    000000018007d704     talib.obj
 0002:0001270c       ??_C@_04NPKLNGDP@hint@     000000018007d70c     talib.obj
 0002:00012714       ??_C@_05NCDILCCA@price@    000000018007d714     talib.obj
 0002:0001271c       ??_C@_04GPMDFGEJ@type@     000000018007d71c     talib.obj
 0002:00012724       ??_C@_04DGGKDJMA@real@     000000018007d724     talib.obj
 0002:00012730       ??_C@_07LKHFMGFB@integer@  000000018007d730     talib.obj
 0002:00012738       ??_C@_04PMOCAHAA@open@     000000018007d738     talib.obj
 0002:00012740       ??_C@_04DGANLAON@high@     000000018007d740     talib.obj
 0002:00012748       ??_C@_03IMLOALHE@low@      000000018007d748     talib.obj
 0002:0001274c       ??_C@_05LBOHBHFK@close@    000000018007d74c     talib.obj
 0002:00012754       ??_C@_06EMCPHFGM@volume@   000000018007d754     talib.obj
 0002:00012760       ??_C@_0N@PEFOAIJJ@openinterest@ 000000018007d760     talib.obj
 0002:00012770       ??_C@_09OMDJNLDP@timestamp@ 000000018007d770     talib.obj
 0002:0001277c       ??_C@_05GECEPKB@flags@     000000018007d77c     talib.obj
 0002:00012788       ??_C@_0M@NDEOCEGH@displayName@ 000000018007d788     talib.obj
 0002:00012798       ??_C@_0N@GIOGCODL@defaultValue@ 000000018007d798     talib.obj
 0002:000127a8       ??_C@_0L@HAGKODBI@real_range@ 000000018007d7a8     talib.obj
 0002:000127b8       ??_C@_09FCLKHCGP@real_list@ 000000018007d7b8     talib.obj
 0002:000127c8       ??_C@_0O@IMGBEEFP@integer_range@ 000000018007d7c8     talib.obj
 0002:000127d8       ??_C@_0N@OAJFEJDE@integer_list@ 000000018007d7d8     talib.obj
 0002:000127e8       ??_C@_07HCJJCOPK@percent@  000000018007d7e8     talib.obj
 0002:000127f0       ??_C@_06PJOBIDPN@degree@   000000018007d7f0     talib.obj
 0002:000127f8       ??_C@_08JLPCGLMH@currency@ 000000018007d7f8     talib.obj
 0002:00012808       ??_C@_08KEDNPLA@advanced@  000000018007d808     talib.obj
 0002:00012814       ??_C@_04HJPCFDOP@line@     000000018007d814     talib.obj
 0002:00012820       ??_C@_08OJGKIDIB@line_dot@ 000000018007d820     talib.obj
 0002:00012830       ??_C@_09NCOCFJCM@line_dash@ 000000018007d830     talib.obj
 0002:0001283c       ??_C@_03GCCHHAFI@dot@      000000018007d83c     talib.obj
 0002:00012840       ??_C@_09JOLNEMIB@histogram@ 000000018007d840     talib.obj
 0002:00012850       ??_C@_0N@JMHFFFFP@pattern_bool@ 000000018007d850     talib.obj
 0002:00012860       ??_C@_0BC@DIPBCEHG@pattern_bull_bear@ 000000018007d860     talib.obj
 0002:00012878       ??_C@_0BB@JHKLFBEP@pattern_strength@ 000000018007d878     talib.obj
 0002:00012890       ??_C@_08BAGPHLDB@positive@ 000000018007d890     talib.obj
 0002:000128a0       ??_C@_08JKGPMEKK@negative@ 000000018007d8a0     talib.obj
 0002:000128ac       ??_C@_04DDFHDMOL@zero@     000000018007d8ac     talib.obj
 0002:000128b8       ??_C@_0M@DBKCMADB@limit_upper@ 000000018007d8b8     talib.obj
 0002:000128c8       ??_C@_0M@GKBMKLII@limit_lower@ 000000018007d8c8     talib.obj
 0002:000128d4       ??_C@_06LMJKBNEF@inputs@   000000018007d8d4     talib.obj
 0002:000128e0       ??_C@_09PFJEJAJD@optInputs@ 000000018007d8e0     talib.obj
 0002:000128f0       ??_C@_07EPCMHIAC@outputs@  000000018007d8f0     talib.obj
 0002:000128f8       ??_C@_0CG@NNCDPGJ@One?5argument?5required?5?9?5Functio@ 000000018007d8f8     talib.obj
 0002:00012920       ??_C@_0CA@DIPMAIFJ@First?5argument?5must?5be?5a?5String@ 000000018007d920     talib.obj
 0002:00012940       ??_C@_0BB@DLNLJDAP@TA_FUNC_UNST_ADX@ 000000018007d940     talib.obj
 0002:00012958       ??_C@_0BC@BIAJPJNE@TA_FUNC_UNST_ADXR@ 000000018007d958     talib.obj
 0002:00012970       ??_C@_0BB@NNBCNIPF@TA_FUNC_UNST_ATR@ 000000018007d970     talib.obj
 0002:00012988       ??_C@_0BB@JLIAOEJN@TA_FUNC_UNST_CMO@ 000000018007d988     talib.obj
 0002:000129a0       ??_C@_0BA@DALPIBFA@TA_FUNC_UNST_DX@ 000000018007d9a0     talib.obj
 0002:000129b0       ??_C@_0BB@CAGIJGMP@TA_FUNC_UNST_EMA@ 000000018007d9b0     talib.obj
 0002:000129c8       ??_C@_0BJ@GLLLNANI@TA_FUNC_UNST_HT_DCPERIOD@ 000000018007d9c8     talib.obj
 0002:000129e8       ??_C@_0BI@PAFCFLDF@TA_FUNC_UNST_HT_DCPHASE@ 000000018007d9e8     talib.obj
 0002:00012a00       ??_C@_0BH@GLDFPOHG@TA_FUNC_UNST_HT_PHASOR@ 000000018007da00     talib.obj
 0002:00012a18       ??_C@_0BF@HPMAONHE@TA_FUNC_UNST_HT_SINE@ 000000018007da18     talib.obj
 0002:00012a30       ??_C@_0BK@JKLHFCOF@TA_FUNC_UNST_HT_TRENDLINE@ 000000018007da30     talib.obj
 0002:00012a50       ??_C@_0BK@IPCLKBFP@TA_FUNC_UNST_HT_TRENDMODE@ 000000018007da50     talib.obj
 0002:00012a70       ??_C@_0BB@KCGHKDHP@TA_FUNC_UNST_IMI@ 000000018007da70     talib.obj
 0002:00012a88       ??_C@_0BC@BOGFDBEO@TA_FUNC_UNST_KAMA@ 000000018007da88     talib.obj
 0002:00012aa0       ??_C@_0BC@JBCFMEOO@TA_FUNC_UNST_MAMA@ 000000018007daa0     talib.obj
 0002:00012ab8       ??_C@_0BB@CBFANLMJ@TA_FUNC_UNST_MFI@ 000000018007dab8     talib.obj
 0002:00012ad0       ??_C@_0BG@PECEBLI@TA_FUNC_UNST_MINUS_DI@ 000000018007dad0     talib.obj
 0002:00012ae8       ??_C@_0BG@GLCOIELM@TA_FUNC_UNST_MINUS_DM@ 000000018007dae8     talib.obj
 0002:00012b00       ??_C@_0BC@KEJNGHFD@TA_FUNC_UNST_NATR@ 000000018007db00     talib.obj
 0002:00012b18       ??_C@_0BF@PBGEPELM@TA_FUNC_UNST_PLUS_DI@ 000000018007db18     talib.obj
 0002:00012b30       ??_C@_0BF@JFAIDBLI@TA_FUNC_UNST_PLUS_DM@ 000000018007db30     talib.obj
 0002:00012b48       ??_C@_0BB@DDMHPNJL@TA_FUNC_UNST_RSI@ 000000018007db48     talib.obj
 0002:00012b60       ??_C@_0BG@DDFNNCI@TA_FUNC_UNST_STOCHRSI@ 000000018007db60     talib.obj
 0002:00012b78       ??_C@_0BA@KKJAJAEM@TA_FUNC_UNST_T3@ 000000018007db78     talib.obj
 0002:00012b88       ??_C@_0BB@BLGGBFOC@TA_FUNC_UNST_ALL@ 000000018007db88     talib.obj
 0002:00012ba0       ??_C@_0BC@FAHALCFA@TA_FUNC_UNST_NONE@ 000000018007dba0     talib.obj
 0002:00012bb8       ??_C@_0DI@JNIECDBB@Two?5arguments?5required?5?9?5Functi@ 000000018007dbb8     talib.obj
 0002:00012bf0       ??_C@_0CC@JMEBMCN@First?5argument?5must?5be?5an?5Integ@ 000000018007dbf0     talib.obj
 0002:00012c18       ??_C@_0CD@OENONDBO@Second?5argument?5must?5be?5an?5Inte@ 000000018007dc18     talib.obj
 0002:00012c40       ??_C@_0BA@KEENCHNI@nan?3AsyncWorker@ 000000018007dc40     talib.obj
 0002:00012c50       ??_C@_0BL@CCEGJHNG@argument?5required?5?9?5Object@ 000000018007dc50     talib.obj
 0002:00012c70       ??_C@_0GC@CMCOBBNI@First?5argument?5must?5be?5an?5Objec@ 000000018007dc70     talib.obj
 0002:00012cd8       ??_C@_0CJ@FFENAI@First?5argument?5must?5contain?5?8na@ 000000018007dcd8     talib.obj
 0002:00012d08       ??_C@_08NBJPKBAK@startIdx@ 000000018007dd08     talib.obj
 0002:00012d18       ??_C@_0CN@KDFMKAPD@First?5argument?5must?5contain?5?8st@ 000000018007dd18     talib.obj
 0002:00012d48       ??_C@_06KLHFHLNB@endIdx@   000000018007dd48     talib.obj
 0002:00012d50       ??_C@_0CL@IHOENFGB@First?5argument?5must?5contain?5?8en@ 000000018007dd50     talib.obj
 0002:00012d80       ??_C@_0DG@BEILPGDD@Arguments?5?8startIdx?8?5and?5?8endId@ 000000018007dd80     talib.obj
 0002:00012db8       ??_C@_0DP@MMNKJPHH@Argument?5?8startIdx?8?5needs?5to?5be@ 000000018007ddb8     talib.obj
 0002:00012df8       ??_C@_0CJ@GFAKMEEF@First?5argument?5must?5contain?5?8op@ 000000018007ddf8     talib.obj
 0002:00012e28       ??_C@_0CJ@LDMGHODD@First?5argument?5must?5contain?5?8hi@ 000000018007de28     talib.obj
 0002:00012e58       ??_C@_0CI@BIEJGHFN@First?5argument?5must?5contain?5?8lo@ 000000018007de58     talib.obj
 0002:00012e80       ??_C@_0CK@DONCHJBP@First?5argument?5must?5contain?5?8cl@ 000000018007de80     talib.obj
 0002:00012eb0       ??_C@_0CL@MFEHDEJK@First?5argument?5must?5contain?5?8vo@ 000000018007deb0     talib.obj
 0002:00012ee0       ??_C@_0N@HGKPIKDK@openInterest@ 000000018007dee0     talib.obj
 0002:00012ef0       ??_C@_0DB@NLJOPHJE@First?5argument?5must?5contain?5?8op@ 000000018007def0     talib.obj
 0002:00012f28       ??_C@_07KAPIBAOI@?8?5field@ 000000018007df28     talib.obj
 0002:00012f30       ??_C@_0BO@LGNKJMJN@First?5argument?5must?5contain?5?8@ 000000018007df30     talib.obj
 0002:00012f50       ??_C@_05GINOLLGO@1?41?42@  000000018007df50     talib.obj
 0002:00012f58       ??_C@_07CPCPJPKL@version@  000000018007df58     talib.obj
 0002:00012f60       ??_C@_09CEAIPAHE@functions@ 000000018007df60     talib.obj
 0002:00012f70       ??_C@_0BA@OKNDOCCO@functionUnstIds@ 000000018007df70     talib.obj
 0002:00012f80       ??_C@_07LFFDKBGI@explain@  000000018007df80     talib.obj
 0002:00012f88       ??_C@_07EMGJIMLB@execute@  000000018007df88     talib.obj
 0002:00012f90       ??_C@_0BC@HHOCAIEJ@setUnstablePeriod@ 000000018007df90     talib.obj
 0002:00012fb0       ??_C@_0FM@OEOAKDIP@c?3?2users?2marcus?2desktop?2coding_@ 000000018007dfb0     talib.obj
 0002:0001300c       ??_C@_05BLOBPOEH@talib@    000000018007e00c     talib.obj
 0002:00013018       ??_7AsyncWorker@Nan@@6B@   000000018007e018     talib.obj
 0002:00013048       ??_7ExecuteWorker@@6B@     000000018007e048     talib.obj
 0002:00013078       ??_C@_08HCOMDCCD@iojs?4exe@ 000000018007e078     win_delay_load_hook.obj
 0002:00013088       ??_C@_08JDDNMFDB@node?4exe@ 000000018007e088     win_delay_load_hook.obj
 0002:00013098       __pfnDliNotifyHook2        000000018007e098     win_delay_load_hook.obj
 0002:000130a0       __real@bff0000000000000    000000018007e0a0     talib.obj
 0002:00013120       ??_R4exception@std@@6B@    000000018007e120     libcpmt:xthrow.obj
 0002:00013148       ??_R3exception@std@@8      000000018007e148     libcpmt:xthrow.obj
 0002:00013160       ??_R2exception@std@@8      000000018007e160     libcpmt:xthrow.obj
 0002:00013170       ??_R1A@?0A@EA@exception@std@@8 000000018007e170     libcpmt:xthrow.obj
 0002:00013198       ??_R4bad_alloc@std@@6B@    000000018007e198     libcpmt:xthrow.obj
 0002:000131c0       ??_R3bad_alloc@std@@8      000000018007e1c0     libcpmt:xthrow.obj
 0002:000131d8       ??_R2bad_alloc@std@@8      000000018007e1d8     libcpmt:xthrow.obj
 0002:000131f0       ??_R1A@?0A@EA@bad_alloc@std@@8 000000018007e1f0     libcpmt:xthrow.obj
 0002:00013218       ??_R4logic_error@std@@6B@  000000018007e218     libcpmt:xthrow.obj
 0002:00013240       ??_R3logic_error@std@@8    000000018007e240     libcpmt:xthrow.obj
 0002:00013258       ??_R2logic_error@std@@8    000000018007e258     libcpmt:xthrow.obj
 0002:00013270       ??_R1A@?0A@EA@logic_error@std@@8 000000018007e270     libcpmt:xthrow.obj
 0002:00013298       ??_R4length_error@std@@6B@ 000000018007e298     libcpmt:xthrow.obj
 0002:000132c0       ??_R3length_error@std@@8   000000018007e2c0     libcpmt:xthrow.obj
 0002:000132d8       ??_R2length_error@std@@8   000000018007e2d8     libcpmt:xthrow.obj
 0002:000132f8       ??_R1A@?0A@EA@length_error@std@@8 000000018007e2f8     libcpmt:xthrow.obj
 0002:00013320       ??_R4type_info@@6B@        000000018007e320     LIBCMT:std_type_info_static.obj
 0002:00013348       ??_R3type_info@@8          000000018007e348     LIBCMT:std_type_info_static.obj
 0002:00013360       ??_R2type_info@@8          000000018007e360     LIBCMT:std_type_info_static.obj
 0002:00013370       ??_R1A@?0A@EA@type_info@@8 000000018007e370     LIBCMT:std_type_info_static.obj
 0002:00013398       ??_R4bad_array_new_length@std@@6B@ 000000018007e398     LIBCMT:throw_bad_alloc.obj
 0002:000133c0       ??_R3bad_array_new_length@std@@8 000000018007e3c0     LIBCMT:throw_bad_alloc.obj
 0002:000133d8       ??_R2bad_array_new_length@std@@8 000000018007e3d8     LIBCMT:throw_bad_alloc.obj
 0002:000133f8       ??_R1A@?0A@EA@bad_array_new_length@std@@8 000000018007e3f8     LIBCMT:throw_bad_alloc.obj
 0002:000137f0       __rtc_iaa                  000000018007e7f0     LIBCMT:initsect.obj
 0002:000137f8       __rtc_izz                  000000018007e7f8     LIBCMT:initsect.obj
 0002:00013800       __rtc_taa                  000000018007e800     LIBCMT:initsect.obj
 0002:00013808       __rtc_tzz                  000000018007e808     LIBCMT:initsect.obj
 0002:0001b3b0       _TI2?AVbad_alloc@std@@     00000001800863b0     libcpmt:xthrow.obj
 0002:0001b3d0       _CTA2?AVbad_alloc@std@@    00000001800863d0     libcpmt:xthrow.obj
 0002:0001b3e8       _CT??_R0?AVbad_alloc@std@@@8??0bad_alloc@std@@QEAA@AEBV01@@Z24 00000001800863e8     libcpmt:xthrow.obj
 0002:0001b410       _CT??_R0?AVexception@std@@@8??0exception@std@@QEAA@AEBV01@@Z24 0000000180086410     libcpmt:xthrow.obj
 0002:0001b438       _CT??_R0?AVlogic_error@std@@@8??0logic_error@std@@QEAA@AEBV01@@Z24 0000000180086438     libcpmt:xthrow.obj
 0002:0001b460       _TI3?AVlength_error@std@@  0000000180086460     libcpmt:xthrow.obj
 0002:0001b480       _CTA3?AVlength_error@std@@ 0000000180086480     libcpmt:xthrow.obj
 0002:0001b4a0       _CT??_R0?AVlength_error@std@@@8??0length_error@std@@QEAA@AEBV01@@Z24 00000001800864a0     libcpmt:xthrow.obj
 0002:0001b4c8       _TI3?AVbad_array_new_length@std@@ 00000001800864c8     LIBCMT:throw_bad_alloc.obj
 0002:0001b4e8       _CTA3?AVbad_array_new_length@std@@ 00000001800864e8     LIBCMT:throw_bad_alloc.obj
 0002:0001b508       _CT??_R0?AVbad_array_new_length@std@@@8??0bad_array_new_length@std@@QEAA@AEBV01@@Z24 0000000180086508     LIBCMT:throw_bad_alloc.obj
 0002:0001b52c       __DELAY_IMPORT_DESCRIPTOR_node_exe 000000018008652c     node:node.exe
 0002:0001b54c       __NULL_DELAY_IMPORT_DESCRIPTOR 000000018008654c     node:node.exe
 0002:0001b728       \177node_NULL_THUNK_DATA_DLN 0000000180086728     node:node.exe
 0002:0001c748       \177node_NULL_THUNK_DATA_DLB 0000000180087748     node:node.exe
 0002:0001c974       __IMPORT_DESCRIPTOR_KERNEL32 0000000180087974     kernel32:KERNEL32.dll
 0002:0001c988       __NULL_IMPORT_DESCRIPTOR   0000000180087988     kernel32:KERNEL32.dll
 0003:000001a0       TA_Globals                 00000001800891a0     ta_libc_csr:ta_global.obj
 0003:00000380       TA_GroupString             0000000180089380     ta_libc_csr:ta_def_ui.obj
 0003:000003f0       TA_INFO_AD                 00000001800893f0     ta_libc_csr:table_a.obj
 0003:00000450       TA_INFO_ADD                0000000180089450     ta_libc_csr:table_a.obj
 0003:000004c0       TA_INFO_ADOSC              00000001800894c0     ta_libc_csr:table_a.obj
 0003:00000528       TA_INFO_ADX                0000000180089528     ta_libc_csr:table_a.obj
 0003:00000590       TA_INFO_ADXR               0000000180089590     ta_libc_csr:table_a.obj
 0003:00000608       TA_INFO_APO                0000000180089608     ta_libc_csr:table_a.obj
 0003:00000678       TA_INFO_AROON              0000000180089678     ta_libc_csr:table_a.obj
 0003:000006e0       TA_INFO_AROONOSC           00000001800896e0     ta_libc_csr:table_a.obj
 0003:00000738       TA_INFO_ASIN               0000000180089738     ta_libc_csr:table_a.obj
 0003:00000790       TA_INFO_ATAN               0000000180089790     ta_libc_csr:table_a.obj
 0003:000007f8       TA_INFO_ATR                00000001800897f8     ta_libc_csr:table_a.obj
 0003:00000850       TA_INFO_AVGPRICE           0000000180089850     ta_libc_csr:table_a.obj
 0003:000008b8       TA_INFO_AVGDEV             00000001800898b8     ta_libc_csr:table_a.obj
 0003:000008f0       TA_DEF_TableA              00000001800898f0     ta_libc_csr:table_a.obj
 0003:000009b0       TA_INFO_ACCBANDS           00000001800899b0     ta_libc_csr:table_a.obj
 0003:00000a08       TA_INFO_ACOS               0000000180089a08     ta_libc_csr:table_a.obj
 0003:00000a50       TA_INFO_BOP                0000000180089a50     ta_libc_csr:table_b.obj
 0003:00000ac0       TA_INFO_BETA               0000000180089ac0     ta_libc_csr:table_b.obj
 0003:00000af8       TA_DEF_TableB              0000000180089af8     ta_libc_csr:table_b.obj
 0003:00000b70       TA_INFO_BBANDS             0000000180089b70     ta_libc_csr:table_b.obj
 0003:00000be0       TA_INFO_CDL3BLACKCROWS     0000000180089be0     ta_libc_csr:table_c.obj
 0003:00000c38       TA_INFO_CDLRICKSHAWMAN     0000000180089c38     ta_libc_csr:table_c.obj
 0003:00000c90       TA_INFO_CDL3INSIDE         0000000180089c90     ta_libc_csr:table_c.obj
 0003:00000ce8       TA_INFO_CDLRISEFALL3METHODS 0000000180089ce8     ta_libc_csr:table_c.obj
 0003:00000d40       TA_INFO_CDL3LINESTRIKE     0000000180089d40     ta_libc_csr:table_c.obj
 0003:00000d98       TA_INFO_CDLSEPARATINGLINES 0000000180089d98     ta_libc_csr:table_c.obj
 0003:00000df0       TA_INFO_CDL3OUTSIDE        0000000180089df0     ta_libc_csr:table_c.obj
 0003:00000e48       TA_INFO_CDLSHOOTINGSTAR    0000000180089e48     ta_libc_csr:table_c.obj
 0003:00000ea0       TA_INFO_CDL3STARSINSOUTH   0000000180089ea0     ta_libc_csr:table_c.obj
 0003:00000ef8       TA_INFO_CDLSHORTLINE       0000000180089ef8     ta_libc_csr:table_c.obj
 0003:00000f50       TA_INFO_CDL3WHITESOLDIERS  0000000180089f50     ta_libc_csr:table_c.obj
 0003:00000fa8       TA_INFO_CDLSPINNINGTOP     0000000180089fa8     ta_libc_csr:table_c.obj
 0003:00001010       TA_INFO_CDLABANDONEDBABY   000000018008a010     ta_libc_csr:table_c.obj
 0003:00001068       TA_INFO_CDLSTALLEDPATTERN  000000018008a068     ta_libc_csr:table_c.obj
 0003:000010c0       TA_INFO_CDLADVANCEBLOCK    000000018008a0c0     ta_libc_csr:table_c.obj
 0003:00001118       TA_INFO_CDLSTICKSANDWICH   000000018008a118     ta_libc_csr:table_c.obj
 0003:00001170       TA_INFO_CDLBELTHOLD        000000018008a170     ta_libc_csr:table_c.obj
 0003:000011c8       TA_INFO_CDLTAKURI          000000018008a1c8     ta_libc_csr:table_c.obj
 0003:00001220       TA_INFO_CDLBREAKAWAY       000000018008a220     ta_libc_csr:table_c.obj
 0003:00001278       TA_INFO_CDLTASUKIGAP       000000018008a278     ta_libc_csr:table_c.obj
 0003:000012d0       TA_INFO_CDLCLOSINGMARUBOZU 000000018008a2d0     ta_libc_csr:table_c.obj
 0003:00001328       TA_INFO_CDLTHRUSTING       000000018008a328     ta_libc_csr:table_c.obj
 0003:00001380       TA_INFO_CDLCONCEALBABYSWALL 000000018008a380     ta_libc_csr:table_c.obj
 0003:000013d8       TA_INFO_CDLTRISTAR         000000018008a3d8     ta_libc_csr:table_c.obj
 0003:00001430       TA_INFO_CDLCOUNTERATTACK   000000018008a430     ta_libc_csr:table_c.obj
 0003:00001488       TA_INFO_CDLUNIQUE3RIVER    000000018008a488     ta_libc_csr:table_c.obj
 0003:000014f0       TA_INFO_CDLDARKCLOUDCOVER  000000018008a4f0     ta_libc_csr:table_c.obj
 0003:00001548       TA_INFO_CDLUPSIDEGAP2CROWS 000000018008a548     ta_libc_csr:table_c.obj
 0003:000015a0       TA_INFO_CDLDOJI            000000018008a5a0     ta_libc_csr:table_c.obj
 0003:000015f8       TA_INFO_CDLXSIDEGAP3METHODS 000000018008a5f8     ta_libc_csr:table_c.obj
 0003:00001650       TA_INFO_CDLDOJISTAR        000000018008a650     ta_libc_csr:table_c.obj
 0003:000016a8       TA_INFO_CEIL               000000018008a6a8     ta_libc_csr:table_c.obj
 0003:00001700       TA_INFO_CDLDRAGONFLYDOJI   000000018008a700     ta_libc_csr:table_c.obj
 0003:00001768       TA_INFO_CMO                000000018008a768     ta_libc_csr:table_c.obj
 0003:000017c0       TA_INFO_CDLENGULFING       000000018008a7c0     ta_libc_csr:table_c.obj
 0003:00001830       TA_INFO_CORREL             000000018008a830     ta_libc_csr:table_c.obj
 0003:00001898       TA_INFO_CDLEVENINGDOJISTAR 000000018008a898     ta_libc_csr:table_c.obj
 0003:000018f0       TA_INFO_COS                000000018008a8f0     ta_libc_csr:table_c.obj
 0003:00001958       TA_INFO_CDLEVENINGSTAR     000000018008a958     ta_libc_csr:table_c.obj
 0003:000019b0       TA_INFO_COSH               000000018008a9b0     ta_libc_csr:table_c.obj
 0003:00001a08       TA_INFO_CDLGAPSIDESIDEWHITE 000000018008aa08     ta_libc_csr:table_c.obj
 0003:00001a40       TA_DEF_TableC              000000018008aa40     ta_libc_csr:table_c.obj
 0003:00001c80       TA_INFO_CDLGRAVESTONEDOJI  000000018008ac80     ta_libc_csr:table_c.obj
 0003:00001cd8       TA_INFO_CDLHAMMER          000000018008acd8     ta_libc_csr:table_c.obj
 0003:00001d30       TA_INFO_CDLHANGINGMAN      000000018008ad30     ta_libc_csr:table_c.obj
 0003:00001d88       TA_INFO_CDLHARAMI          000000018008ad88     ta_libc_csr:table_c.obj
 0003:00001de0       TA_INFO_CDLHARAMICROSS     000000018008ade0     ta_libc_csr:table_c.obj
 0003:00001e38       TA_INFO_CDLHIGHWAVE        000000018008ae38     ta_libc_csr:table_c.obj
 0003:00001e90       TA_INFO_CDLHIKKAKE         000000018008ae90     ta_libc_csr:table_c.obj
 0003:00001ee8       TA_INFO_CDLHIKKAKEMOD      000000018008aee8     ta_libc_csr:table_c.obj
 0003:00001f40       TA_INFO_CDLHOMINGPIGEON    000000018008af40     ta_libc_csr:table_c.obj
 0003:00001f98       TA_INFO_CDLIDENTICAL3CROWS 000000018008af98     ta_libc_csr:table_c.obj
 0003:00001ff0       TA_INFO_CDLINNECK          000000018008aff0     ta_libc_csr:table_c.obj
 0003:00002048       TA_INFO_CDLINVERTEDHAMMER  000000018008b048     ta_libc_csr:table_c.obj
 0003:000020a0       TA_INFO_CDLKICKING         000000018008b0a0     ta_libc_csr:table_c.obj
 0003:000020f8       TA_INFO_CDLKICKINGBYLENGTH 000000018008b0f8     ta_libc_csr:table_c.obj
 0003:00002150       TA_INFO_CDLLADDERBOTTOM    000000018008b150     ta_libc_csr:table_c.obj
 0003:000021a8       TA_INFO_CDLLONGLEGGEDDOJI  000000018008b1a8     ta_libc_csr:table_c.obj
 0003:00002200       TA_INFO_CDLLONGLINE        000000018008b200     ta_libc_csr:table_c.obj
 0003:00002258       TA_INFO_CDLMARUBOZU        000000018008b258     ta_libc_csr:table_c.obj
 0003:000022b0       TA_INFO_CDLMATCHINGLOW     000000018008b2b0     ta_libc_csr:table_c.obj
 0003:00002318       TA_INFO_CDLMATHOLD         000000018008b318     ta_libc_csr:table_c.obj
 0003:00002380       TA_INFO_CDLMORNINGDOJISTAR 000000018008b380     ta_libc_csr:table_c.obj
 0003:000023e8       TA_INFO_CDLMORNINGSTAR     000000018008b3e8     ta_libc_csr:table_c.obj
 0003:00002450       TA_INFO_CCI                000000018008b450     ta_libc_csr:table_c.obj
 0003:000024a8       TA_INFO_CDLONNECK          000000018008b4a8     ta_libc_csr:table_c.obj
 0003:00002500       TA_INFO_CDL2CROWS          000000018008b500     ta_libc_csr:table_c.obj
 0003:00002558       TA_INFO_CDLPIERCING        000000018008b558     ta_libc_csr:table_c.obj
 0003:000025c0       TA_INFO_DX                 000000018008b5c0     ta_libc_csr:table_d.obj
 0003:000025f8       TA_DEF_TableD              000000018008b5f8     ta_libc_csr:table_d.obj
 0003:00002648       TA_INFO_DEMA               000000018008b648     ta_libc_csr:table_d.obj
 0003:000026a8       TA_INFO_DIV                000000018008b6a8     ta_libc_csr:table_d.obj
 0003:000026e0       TA_DEF_TableE              000000018008b6e0     ta_libc_csr:table_e.obj
 0003:00002728       TA_INFO_EMA                000000018008b728     ta_libc_csr:table_e.obj
 0003:00002780       TA_INFO_EXP                000000018008b780     ta_libc_csr:table_e.obj
 0003:000027d8       TA_INFO_FLOOR              000000018008b7d8     ta_libc_csr:table_f.obj
 0003:00002810       TA_DEF_TableF              000000018008b810     ta_libc_csr:table_f.obj
 0003:00002848       TA_INFO_HT_PHASOR          000000018008b848     ta_libc_csr:table_h.obj
 0003:000028a8       TA_INFO_HT_SINE            000000018008b8a8     ta_libc_csr:table_h.obj
 0003:00002900       TA_INFO_HT_TRENDLINE       000000018008b900     ta_libc_csr:table_h.obj
 0003:00002958       TA_INFO_HT_TRENDMODE       000000018008b958     ta_libc_csr:table_h.obj
 0003:00002990       TA_DEF_TableH              000000018008b990     ta_libc_csr:table_h.obj
 0003:000029e8       TA_INFO_HT_DCPERIOD        000000018008b9e8     ta_libc_csr:table_h.obj
 0003:00002a40       TA_INFO_HT_DCPHASE         000000018008ba40     ta_libc_csr:table_h.obj
 0003:00002aa8       TA_INFO_IMI                000000018008baa8     ta_libc_csr:table_i.obj
 0003:00002ae0       TA_DEF_TableI              000000018008bae0     ta_libc_csr:table_i.obj
 0003:00002b20       TA_INFO_KAMA               000000018008bb20     ta_libc_csr:table_k.obj
 0003:00002b58       TA_DEF_TableK              000000018008bb58     ta_libc_csr:table_k.obj
 0003:00002b98       TA_INFO_LINEARREG_ANGLE    000000018008bb98     ta_libc_csr:table_l.obj
 0003:00002c00       TA_INFO_LINEARREG_INTERCEPT 000000018008bc00     ta_libc_csr:table_l.obj
 0003:00002c58       TA_INFO_LN                 000000018008bc58     ta_libc_csr:table_l.obj
 0003:00002cb0       TA_INFO_LOG10              000000018008bcb0     ta_libc_csr:table_l.obj
 0003:00002ce8       TA_DEF_TableL              000000018008bce8     ta_libc_csr:table_l.obj
 0003:00002d50       TA_INFO_LINEARREG          000000018008bd50     ta_libc_csr:table_l.obj
 0003:00002db8       TA_INFO_LINEARREG_SLOPE    000000018008bdb8     ta_libc_csr:table_l.obj
 0003:00002e40       TA_INFO_MACD               000000018008be40     ta_libc_csr:table_m.obj
 0003:00002ee0       TA_INFO_MACDEXT            000000018008bee0     ta_libc_csr:table_m.obj
 0003:00002f58       TA_INFO_MACDFIX            000000018008bf58     ta_libc_csr:table_m.obj
 0003:00002fd0       TA_INFO_MAMA               000000018008bfd0     ta_libc_csr:table_m.obj
 0003:00003050       TA_INFO_MAVP               000000018008c050     ta_libc_csr:table_m.obj
 0003:000030b8       TA_INFO_MAX                000000018008c0b8     ta_libc_csr:table_m.obj
 0003:00003120       TA_INFO_MAXINDEX           000000018008c120     ta_libc_csr:table_m.obj
 0003:00003178       TA_INFO_MEDPRICE           000000018008c178     ta_libc_csr:table_m.obj
 0003:000031e0       TA_INFO_MFI                000000018008c1e0     ta_libc_csr:table_m.obj
 0003:00003248       TA_INFO_MIDPRICE           000000018008c248     ta_libc_csr:table_m.obj
 0003:000032b0       TA_INFO_MIDPOINT           000000018008c2b0     ta_libc_csr:table_m.obj
 0003:00003318       TA_INFO_MIN                000000018008c318     ta_libc_csr:table_m.obj
 0003:00003380       TA_INFO_MININDEX           000000018008c380     ta_libc_csr:table_m.obj
 0003:000033f0       TA_INFO_MINMAX             000000018008c3f0     ta_libc_csr:table_m.obj
 0003:00003460       TA_INFO_MINMAXINDEX        000000018008c460     ta_libc_csr:table_m.obj
 0003:000034c8       TA_INFO_MINUS_DI           000000018008c4c8     ta_libc_csr:table_m.obj
 0003:00003530       TA_INFO_MINUS_DM           000000018008c530     ta_libc_csr:table_m.obj
 0003:00003598       TA_INFO_MOM                000000018008c598     ta_libc_csr:table_m.obj
 0003:000035f8       TA_INFO_MULT               000000018008c5f8     ta_libc_csr:table_m.obj
 0003:00003630       TA_DEF_TableM              000000018008c630     ta_libc_csr:table_m.obj
 0003:00003710       TA_INFO_MA                 000000018008c710     ta_libc_csr:table_m.obj
 0003:00003778       TA_INFO_NATR               000000018008c778     ta_libc_csr:table_n.obj
 0003:000037b0       TA_DEF_TableN              000000018008c7b0     ta_libc_csr:table_n.obj
 0003:000037e8       TA_INFO_OBV                000000018008c7e8     ta_libc_csr:table_o.obj
 0003:00003820       TA_DEF_TableO              000000018008c820     ta_libc_csr:table_o.obj
 0003:00003870       TA_INFO_PPO                000000018008c870     ta_libc_csr:table_p.obj
 0003:000038a8       TA_DEF_TableP              000000018008c8a8     ta_libc_csr:table_p.obj
 0003:000038f8       TA_INFO_PLUS_DI            000000018008c8f8     ta_libc_csr:table_p.obj
 0003:00003960       TA_INFO_PLUS_DM            000000018008c960     ta_libc_csr:table_p.obj
 0003:000039c8       TA_INFO_ROCR               000000018008c9c8     ta_libc_csr:table_r.obj
 0003:00003a30       TA_INFO_ROCR100            000000018008ca30     ta_libc_csr:table_r.obj
 0003:00003a98       TA_INFO_RSI                000000018008ca98     ta_libc_csr:table_r.obj
 0003:00003ad0       TA_DEF_TableR              000000018008cad0     ta_libc_csr:table_r.obj
 0003:00003b30       TA_INFO_ROC                000000018008cb30     ta_libc_csr:table_r.obj
 0003:00003b98       TA_INFO_ROCP               000000018008cb98     ta_libc_csr:table_r.obj
 0003:00003c38       TA_INFO_SAREXT             000000018008cc38     ta_libc_csr:table_s.obj
 0003:00003c90       TA_INFO_SIN                000000018008cc90     ta_libc_csr:table_s.obj
 0003:00003ce8       TA_INFO_SINH               000000018008cce8     ta_libc_csr:table_s.obj
 0003:00003d50       TA_INFO_SMA                000000018008cd50     ta_libc_csr:table_s.obj
 0003:00003da8       TA_INFO_SQRT               000000018008cda8     ta_libc_csr:table_s.obj
 0003:00003e08       TA_INFO_SUB                000000018008ce08     ta_libc_csr:table_s.obj
 0003:00003e70       TA_INFO_SUM                000000018008ce70     ta_libc_csr:table_s.obj
 0003:00003ee0       TA_INFO_STDDEV             000000018008cee0     ta_libc_csr:table_s.obj
 0003:00003f70       TA_INFO_STOCH              000000018008cf70     ta_libc_csr:table_s.obj
 0003:00003ff0       TA_INFO_STOCHF             000000018008cff0     ta_libc_csr:table_s.obj
 0003:00004078       TA_INFO_STOCHRSI           000000018008d078     ta_libc_csr:table_s.obj
 0003:000040b0       TA_DEF_TableS              000000018008d0b0     ta_libc_csr:table_s.obj
 0003:00004150       TA_INFO_SAR                000000018008d150     ta_libc_csr:table_s.obj
 0003:000041b0       TA_INFO_TANH               000000018008d1b0     ta_libc_csr:table_t.obj
 0003:00004218       TA_INFO_TEMA               000000018008d218     ta_libc_csr:table_t.obj
 0003:00004270       TA_INFO_TRANGE             000000018008d270     ta_libc_csr:table_t.obj
 0003:000042d8       TA_INFO_TRIMA              000000018008d2d8     ta_libc_csr:table_t.obj
 0003:00004340       TA_INFO_TRIX               000000018008d340     ta_libc_csr:table_t.obj
 0003:000043a8       TA_INFO_TSF                000000018008d3a8     ta_libc_csr:table_t.obj
 0003:00004400       TA_INFO_TYPPRICE           000000018008d400     ta_libc_csr:table_t.obj
 0003:00004450       TA_DEF_TableT              000000018008d450     ta_libc_csr:table_t.obj
 0003:000044c0       TA_INFO_T3                 000000018008d4c0     ta_libc_csr:table_t.obj
 0003:00004518       TA_INFO_TAN                000000018008d518     ta_libc_csr:table_t.obj
 0003:00004590       TA_INFO_ULTOSC             000000018008d590     ta_libc_csr:table_u.obj
 0003:000045c8       TA_DEF_TableU              000000018008d5c8     ta_libc_csr:table_u.obj
 0003:00004610       TA_INFO_VAR                000000018008d610     ta_libc_csr:table_v.obj
 0003:00004648       TA_DEF_TableV              000000018008d648     ta_libc_csr:table_v.obj
 0003:00004688       TA_INFO_WMA                000000018008d688     ta_libc_csr:table_w.obj
 0003:000046c0       TA_DEF_TableW              000000018008d6c0     ta_libc_csr:table_w.obj
 0003:00004700       TA_INFO_WCLPRICE           000000018008d700     ta_libc_csr:table_w.obj
 0003:00004768       TA_INFO_WILLR              000000018008d768     ta_libc_csr:table_w.obj
 0003:000047a0       TA_PerGroupFunc_0          000000018008d7a0     ta_libc_csr:ta_group_idx.obj
 0003:00004800       TA_PerGroupFunc_1          000000018008d800     ta_libc_csr:ta_group_idx.obj
 0003:00004880       TA_PerGroupFunc_2          000000018008d880     ta_libc_csr:ta_group_idx.obj
 0003:00004918       TA_PerGroupFunc_3          000000018008d918     ta_libc_csr:ta_group_idx.obj
 0003:00004940       TA_PerGroupFunc_4          000000018008d940     ta_libc_csr:ta_group_idx.obj
 0003:00004a40       TA_PerGroupFunc_5          000000018008da40     ta_libc_csr:ta_group_idx.obj
 0003:00004a70       TA_PerGroupFunc_6          000000018008da70     ta_libc_csr:ta_group_idx.obj
 0003:00004a90       TA_PerGroupFunc_7          000000018008da90     ta_libc_csr:ta_group_idx.obj
 0003:00004c80       TA_PerGroupFunc_8          000000018008dc80     ta_libc_csr:ta_group_idx.obj
 0003:00004cd0       TA_PerGroupFunc_9          000000018008dcd0     ta_libc_csr:ta_group_idx.obj
 0003:00004d00       TA_PerGroupFuncDef         000000018008dd00     ta_libc_csr:ta_group_idx.obj
 0003:00004d50       _fltused                   000000018008dd50     LIBCMT:fltused.obj
 0003:00004d58       __security_cookie_complement 000000018008dd58     LIBCMT:gs_cookie.obj
 0003:00004d60       __security_cookie          000000018008dd60     LIBCMT:gs_cookie.obj
 0003:00004d68       __isa_available            000000018008dd68     LIBCMT:cpu_disp.obj
 0003:00004d6c       __isa_enabled              000000018008dd6c     LIBCMT:cpu_disp.obj
 0003:00004d70       __memcpy_nt_iters          000000018008dd70     LIBCMT:cpu_disp.obj
 0003:00004d78       __scrt_native_dllmain_reason 000000018008dd78     LIBCMT:utility.obj
 0003:00004d90       __abort_behavior           000000018008dd90     libucrt:abort.obj
 0003:00004db0       _iob                       000000018008ddb0     libucrt:_file.obj
 0003:00004ec0       __acrt_initial_locale_data 000000018008dec0     libucrt:nlsdata.obj
 0003:00005018       __acrt_initial_locale_pointers 000000018008e018     libucrt:nlsdata.obj
 0003:00005028       __acrt_wide_c_locale_string 000000018008e028     libucrt:nlsdata.obj
 0003:00005030       _pwctype                   000000018008e030     libucrt:ctype.obj
 0003:00005350       __acrt_initial_multibyte_data 000000018008e350     libucrt:mbctype.obj
 0003:00005580       __badioinfo                000000018008e580     libucrt:ioinit.obj
 0003:000055c8       __globallocalestatus       000000018008e5c8     libucrt:glstatus.obj
 0003:000055d0       __acrt_lconv_c             000000018008e5d0     libucrt:localeconv.obj
 0003:00005668       __acrt_lconv_static_decimal 000000018008e668     libucrt:localeconv.obj
 0003:0000566c       __acrt_lconv_static_W_decimal 000000018008e66c     libucrt:localeconv.obj
 0003:00005670       _lookuptrailbytes          000000018008e670     libucrt:read.obj
 0003:000057c0       ??_R0?AVbad_alloc@std@@@8  000000018008e7c0     libcpmt:xthrow.obj
 0003:000057e8       ??_R0?AVexception@std@@@8  000000018008e7e8     libcpmt:xthrow.obj
 0003:00005810       ??_R0?AVlogic_error@std@@@8 000000018008e810     libcpmt:xthrow.obj
 0003:00005838       ??_R0?AVlength_error@std@@@8 000000018008e838     libcpmt:xthrow.obj
 0003:00005860       ??_R0?AVtype_info@@@8      000000018008e860     LIBCMT:std_type_info_static.obj
 0003:00005880       ??_R0?AVbad_array_new_length@std@@@8 000000018008e880     LIBCMT:throw_bad_alloc.obj
 0003:000058b0       __imp_uv_queue_work        000000018008e8b0     node:node.exe
 0003:000058b8       __imp_?Global@Context@v8@@QEAA?AV?$Local@VObject@v8@@@2@XZ 000000018008e8b8     node:node.exe
 0003:000058c0       __imp_?Value@External@v8@@QEBAPEAXXZ 000000018008e8c0     node:node.exe
 0003:000058c8       __imp_?New@External@v8@@SA?AV?$Local@VExternal@v8@@@2@PEAVIsolate@2@PEAX@Z 000000018008e8c8     node:node.exe
 0003:000058d0       __imp_?New@Integer@v8@@SA?AV?$Local@VInteger@v8@@@2@PEAVIsolate@2@H@Z 000000018008e8d0     node:node.exe
 0003:000058d8       __imp_?ThrowException@Isolate@v8@@QEAA?AV?$Local@VValue@v8@@@2@V32@@Z 000000018008e8d8     node:node.exe
 0003:000058e0       __imp_?GetCurrentContext@Isolate@v8@@QEAA?AV?$Local@VContext@v8@@@2@XZ 000000018008e8e0     node:node.exe
 0003:000058e8       __imp_?GetCurrent@Isolate@v8@@SAPEAV12@XZ 000000018008e8e8     node:node.exe
 0003:000058f0       __imp_?CreateHandle@HandleScope@v8@@KAPEAPEAVObject@internal@2@PEAVIsolate@42@PEAV342@@Z 000000018008e8f0     node:node.exe
 0003:000058f8       __imp_?CreateHandle@HandleScope@v8@@CAPEAPEAVObject@internal@2@PEAVHeapObject@42@PEAV342@@Z 000000018008e8f8     node:node.exe
 0003:00005900       __imp_??1HandleScope@v8@@QEAA@XZ 000000018008e900     node:node.exe
 0003:00005908       __imp_??0HandleScope@v8@@QEAA@PEAVIsolate@1@@Z 000000018008e908     node:node.exe
 0003:00005910       __imp_?Error@Exception@v8@@SA?AV?$Local@VValue@v8@@@2@V?$Local@VString@v8@@@2@@Z 000000018008e910     node:node.exe
 0003:00005918       __imp_?TypeError@Exception@v8@@SA?AV?$Local@VValue@v8@@@2@V?$Local@VString@v8@@@2@@Z 000000018008e918     node:node.exe
 0003:00005920       __imp_?New@Array@v8@@SA?AV?$Local@VArray@v8@@@2@PEAVIsolate@2@H@Z 000000018008e920     node:node.exe
 0003:00005928       __imp_?Length@Array@v8@@QEBAIXZ 000000018008e928     node:node.exe
 0003:00005930       __imp_?GetFunction@FunctionTemplate@v8@@QEAA?AV?$MaybeLocal@VFunction@v8@@@2@V?$Local@VContext@v8@@@2@@Z 000000018008e930     node:node.exe
 0003:00005938       __imp_?New@FunctionTemplate@v8@@SA?AV?$Local@VFunctionTemplate@v8@@@2@PEAVIsolate@2@P6AXAEBV?$FunctionCallbackInfo@VValue@v8@@@2@@ZV?$Local@VValue@v8@@@2@V?$Local@VSignature@v8@@@2@HW4ConstructorBehavior@2@W4SideEffectType@2@@Z 000000018008e938     node:node.exe
 0003:00005940       __imp_?ToLocalEmpty@V8@v8@@CAXXZ 000000018008e940     node:node.exe
 0003:00005948       __imp_?FromJustIsNothing@V8@v8@@CAXXZ 000000018008e948     node:node.exe
 0003:00005950       __imp_?DisposeGlobal@V8@v8@@CAXPEAPEAVObject@internal@2@@Z 000000018008e950     node:node.exe
 0003:00005958       __imp_?GlobalizeReference@V8@v8@@CAPEAPEAVObject@internal@2@PEAVIsolate@42@PEAPEAV342@@Z 000000018008e958     node:node.exe
 0003:00005960       __imp_?Int32Value@Value@v8@@QEBA?AV?$Maybe@H@2@V?$Local@VContext@v8@@@2@@Z 000000018008e960     node:node.exe
 0003:00005968       __imp_?Uint32Value@Value@v8@@QEBA?AV?$Maybe@I@2@V?$Local@VContext@v8@@@2@@Z 000000018008e968     node:node.exe
 0003:00005970       __imp_?IntegerValue@Value@v8@@QEBA?AV?$Maybe@_J@2@V?$Local@VContext@v8@@@2@@Z 000000018008e970     node:node.exe
 0003:00005978       __imp_?NumberValue@Value@v8@@QEBA?AV?$Maybe@N@2@V?$Local@VContext@v8@@@2@@Z 000000018008e978     node:node.exe
 0003:00005980       __imp_?ToInt32@Value@v8@@QEBA?AV?$MaybeLocal@VInt32@v8@@@2@V?$Local@VContext@v8@@@2@@Z 000000018008e980     node:node.exe
 0003:00005988       __imp_?ToObject@Value@v8@@QEBA?AV?$MaybeLocal@VObject@v8@@@2@V?$Local@VContext@v8@@@2@@Z 000000018008e988     node:node.exe
 0003:00005990       __imp_?ToString@Value@v8@@QEBA?AV?$MaybeLocal@VString@v8@@@2@V?$Local@VContext@v8@@@2@@Z 000000018008e990     node:node.exe
 0003:00005998       __imp_?IsNumber@Value@v8@@QEBA_NXZ 000000018008e998     node:node.exe
 0003:000059a0       __imp_?IsObject@Value@v8@@QEBA_NXZ 000000018008e9a0     node:node.exe
 0003:000059a8       __imp_?IsFunction@Value@v8@@QEBA_NXZ 000000018008e9a8     node:node.exe
 0003:000059b0       __imp_?Escape@EscapableHandleScope@v8@@AEAAPEAPEAVObject@internal@2@PEAPEAV342@@Z 000000018008e9b0     node:node.exe
 0003:000059b8       __imp_??0EscapableHandleScope@v8@@QEAA@PEAVIsolate@1@@Z 000000018008e9b8     node:node.exe
 0003:000059c0       __imp_?NewFromUtf8@String@v8@@SA?AV?$MaybeLocal@VString@v8@@@2@PEAVIsolate@2@PEBDW4NewStringType@2@H@Z 000000018008e9c0     node:node.exe
 0003:000059c8       __imp_?WriteUtf8@String@v8@@QEBAHPEADHPEAHH@Z 000000018008e9c8     node:node.exe
 0003:000059d0       __imp_?Length@String@v8@@QEBAHXZ 000000018008e9d0     node:node.exe
 0003:000059d8       __imp_?New@Number@v8@@SA?AV?$Local@VNumber@v8@@@2@PEAVIsolate@2@N@Z 000000018008e9d8     node:node.exe
 0003:000059e0       __imp_?SlowGetInternalField@Object@v8@@AEAA?AV?$Local@VValue@v8@@@2@H@Z 000000018008e9e0     node:node.exe
 0003:000059e8       __imp_?New@Object@v8@@SA?AV?$Local@VObject@v8@@@2@PEAVIsolate@2@@Z 000000018008e9e8     node:node.exe
 0003:000059f0       __imp_?HasOwnProperty@Object@v8@@QEAA?AV?$Maybe@_N@2@V?$Local@VContext@v8@@@2@V?$Local@VName@v8@@@2@@Z 000000018008e9f0     node:node.exe
 0003:000059f8       __imp_?SetInternalField@Object@v8@@QEAAXHV?$Local@VValue@v8@@@2@@Z 000000018008e9f8     node:node.exe
 0003:00005a00       __imp_?SetAccessor@Object@v8@@QEAA?AV?$Maybe@_N@2@V?$Local@VContext@v8@@@2@V?$Local@VName@v8@@@2@P6AX1AEBV?$PropertyCallbackInfo@VValue@v8@@@2@@ZP6AX1V?$Local@VValue@v8@@@2@AEBV?$PropertyCallbackInfo@X@2@@ZV?$MaybeLocal@VValue@v8@@@2@W4AccessControl@2@W4PropertyAttribute@2@W4SideEffectType@2@@Z 000000018008ea00     node:node.exe
 0003:00005a08       __imp_?Get@Object@v8@@QEAA?AV?$MaybeLocal@VValue@v8@@@2@V?$Local@VContext@v8@@@2@V?$Local@VValue@v8@@@2@@Z 000000018008ea08     node:node.exe
 0003:00005a10       __imp_?Get@Object@v8@@QEAA?AV?$MaybeLocal@VValue@v8@@@2@V?$Local@VContext@v8@@@2@I@Z 000000018008ea10     node:node.exe
 0003:00005a18       __imp_?Set@Object@v8@@QEAA?AV?$Maybe@_N@2@V?$Local@VContext@v8@@@2@V?$Local@VValue@v8@@@2@1@Z 000000018008ea18     node:node.exe
 0003:00005a20       __imp_?Set@Object@v8@@QEAA?AV?$Maybe@_N@2@V?$Local@VContext@v8@@@2@IV?$Local@VValue@v8@@@2@@Z 000000018008ea20     node:node.exe
 0003:00005a28       __imp_?SetInternalFieldCount@ObjectTemplate@v8@@QEAAXH@Z 000000018008ea28     node:node.exe
 0003:00005a30       __imp_?NewInstance@ObjectTemplate@v8@@QEAA?AV?$MaybeLocal@VObject@v8@@@2@V?$Local@VContext@v8@@@2@@Z 000000018008ea30     node:node.exe
 0003:00005a38       __imp_?New@ObjectTemplate@v8@@SA?AV?$Local@VObjectTemplate@v8@@@2@PEAVIsolate@2@V?$Local@VFunctionTemplate@v8@@@2@@Z 000000018008ea38     node:node.exe
 0003:00005a40       __imp_?EmitAsyncDestroy@node@@YAXPEAVIsolate@v8@@Uasync_context@1@@Z 000000018008ea40     node:node.exe
 0003:00005a48       __imp_node_module_register 000000018008ea48     node:node.exe
 0003:00005a50       __imp_?MakeCallback@node@@YA?AV?$MaybeLocal@VValue@v8@@@v8@@PEAVIsolate@3@V?$Local@VObject@v8@@@3@V?$Local@VFunction@v8@@@3@HPEAV?$Local@VValue@v8@@@3@Uasync_context@1@@Z 000000018008ea50     node:node.exe
 0003:00005a58       __imp_?EmitAsyncInit@node@@YA?AUasync_context@1@PEAVIsolate@v8@@V?$Local@VObject@v8@@@4@V?$Local@VString@v8@@@4@N@Z 000000018008ea58     node:node.exe
 0003:00005a60       __imp_?GetCurrentEventLoop@node@@YAPEAUuv_loop_s@@PEAVIsolate@v8@@@Z 000000018008ea60     node:node.exe
 0003:00005a68       \177node_NULL_THUNK_DATA_DLA 000000018008ea68     node:node.exe
 0003:00005a70       __hmod__node_exe           000000018008ea70     node:node.exe
 0003:00005a80       ta_theGlobals              000000018008ea80     ta_libc_csr:ta_global.obj
 0003:00005e70       TA_DEF_TableG              000000018008ee70     ta_libc_csr:table_g.obj
 0003:00005ea8       TA_DEF_TableJ              000000018008eea8     ta_libc_csr:table_j.obj
 0003:00005ed8       TA_DEF_TableQ              000000018008eed8     ta_libc_csr:table_q.obj
 0003:00005f28       TA_DEF_TableX              000000018008ef28     ta_libc_csr:table_x.obj
 0003:00005f30       TA_DEF_TableY              000000018008ef30     ta_libc_csr:table_y.obj
 0003:00005f38       TA_DEF_TableZ              000000018008ef38     ta_libc_csr:table_z.obj
 0003:00005f44       __favor                    000000018008ef44     LIBCMT:cpu_disp.obj
 0003:000064c0       ?__type_info_root_node@@3U__type_info_node@@A 000000018008f4c0     LIBCMT:tncleanup.obj
 0003:000064d0       ?_OptionsStorage@?1??__local_stdio_printf_options@@9@4_KA 000000018008f4d0     LIBCMT:default_local_stdio_options.obj
 0003:000064d8       ?_OptionsStorage@?1??__local_stdio_scanf_options@@9@4_KA 000000018008f4d8     LIBCMT:default_local_stdio_options.obj
 0003:000064e0       __scrt_current_native_startup_state 000000018008f4e0     LIBCMT:utility.obj
 0003:000064e8       __scrt_native_startup_lock 000000018008f4e8     LIBCMT:utility.obj
 0003:00006528       __scrt_debugger_hook_flag  000000018008f528     LIBCMT:utility_desktop.obj
 0003:00006530       __pPurecall                000000018008f530     libvcruntime:purevirt_data.obj
 0003:00006538       ?__WinRTOutOfMemoryExceptionCallback@@3P6APEAXXZEA 000000018008f538     libvcruntime:ehhelpers.obj
 0003:00006540       ?pArgList@UnDecorator@@0PEAVReplicator@@EA 000000018008f540     libvcruntime:undname.obj
 0003:00006548       ?pZNameList@UnDecorator@@0PEAVReplicator@@EA 000000018008f548     libvcruntime:undname.obj
 0003:00006550       ?pTemplateArgList@UnDecorator@@0PEAVReplicator@@EA 000000018008f550     libvcruntime:undname.obj
 0003:00006558       ?gName@UnDecorator@@0PEBDEB 000000018008f558     libvcruntime:undname.obj
 0003:00006560       ?name@UnDecorator@@0PEBDEB 000000018008f560     libvcruntime:undname.obj
 0003:00006568       ?disableFlags@UnDecorator@@0KA 000000018008f568     libvcruntime:undname.obj
 0003:0000656c       ?fExplicitTemplateParams@UnDecorator@@0_NA 000000018008f56c     libvcruntime:undname.obj
 0003:0000656d       ?fGetTemplateArgumentList@UnDecorator@@0_NA 000000018008f56d     libvcruntime:undname.obj
 0003:00006570       ?m_pGetParameter@UnDecorator@@0P6APEADJ@ZEA 000000018008f570     libvcruntime:undname.obj
 0003:00006578       ?m_CHPENameOffset@UnDecorator@@0KA 000000018008f578     libvcruntime:undname.obj
 0003:0000657c       ?m_recursionLevel@UnDecorator@@0KA 000000018008f57c     libvcruntime:undname.obj
 0003:000066d0       ?c_exit_complete@?1???R<lambda_6e4b09c48022b2350581041d5f6b0c4c>@@QEBA@XZ@4_NA 000000018008f6d0     libucrt:exit.obj
 0003:000067e8       _environ_table             000000018008f7e8     libucrt:environment_initialization.obj
 0003:000067f0       _wenviron_table            000000018008f7f0     libucrt:environment_initialization.obj
 0003:000067f8       __dcrt_initial_wide_environment 000000018008f7f8     libucrt:environment_initialization.obj
 0003:00006800       __dcrt_initial_narrow_environment 000000018008f800     libucrt:environment_initialization.obj
 0003:00006808       __acrt_atexit_table        000000018008f808     libucrt:onexit.obj
 0003:00006820       __acrt_at_quick_exit_table 000000018008f820     libucrt:onexit.obj
 0003:00006840       _nstream                   000000018008f840     libucrt:_file.obj
 0003:00006848       __piob                     000000018008f848     libucrt:_file.obj
 0003:00006850       _cflush                    000000018008f850     libucrt:_file.obj
 0003:00006878       __acrt_locale_changed_data 000000018008f878     libucrt:wsetlocale.obj
 0003:00006880       __acrt_current_locale_data 000000018008f880     libucrt:nlsdata.obj
 0003:00006888       __fma3_is_available        000000018008f888     libucrt:fma3_available.obj
 0003:0000688c       __use_fma3_lib             000000018008f88c     libucrt:fma3_available.obj
 0003:00006ad0       _mbctype                   000000018008fad0     libucrt:mbctype.obj
 0003:00006ad8       _mbcasemap                 000000018008fad8     libucrt:mbctype.obj
 0003:00006ae0       __acrt_current_multibyte_data 000000018008fae0     libucrt:mbctype.obj
 0003:00006af0       _pgmptr                    000000018008faf0     libucrt:argv_data.obj
 0003:00006af8       __argc                     000000018008faf8     libucrt:argv_data.obj
 0003:00006b00       __argv                     000000018008fb00     libucrt:argv_data.obj
 0003:00006b08       __wargv                    000000018008fb08     libucrt:argv_data.obj
 0003:00006b10       _acmdln                    000000018008fb10     libucrt:argv_data.obj
 0003:00006b18       _wcmdln                    000000018008fb18     libucrt:argv_data.obj
 0003:00006cd0       __acrt_heap                000000018008fcd0     libucrt:heap_handle.obj
 0003:00006ce0       __pioinfo                  000000018008fce0     libucrt:ioinit.obj
 0003:000070e0       _nhandle                   00000001800900e0     libucrt:ioinit.obj
 0003:000070f0       __acrt_stdout_buffer       00000001800900f0     libucrt:_sftbuf.obj
 0003:000070f8       __acrt_stderr_buffer       00000001800900f8     libucrt:_sftbuf.obj
 0003:00007114       __acrt_lconv_static_null   0000000180090114     libucrt:localeconv.obj
 0003:00007118       __acrt_lconv_static_W_null 0000000180090118     libucrt:localeconv.obj
 0003:00007128       ?DloadKernel32@@3PEAUHINSTANCE__@@EA 0000000180090128     DelayImp:delayhlp.obj
 0003:00007130       ?DloadAcquireSRWLockExclusive@@3P6AXPEA_K@ZEA 0000000180090130     DelayImp:delayhlp.obj
 0003:00007138       ?DloadReleaseSRWLockExclusive@@3P6AXPEA_K@ZEA 0000000180090138     DelayImp:delayhlp.obj
 0003:00007140       ?DloadSrwLock@@3_KA        0000000180090140     DelayImp:delayhlp.obj
 0003:00007148       ?DloadSectionLockCount@@3KA 0000000180090148     DelayImp:delayhlp.obj
 0003:0000714c       ?DloadSectionOldProtection@@3KA 000000018009014c     DelayImp:delayhlp.obj
 0003:00007150       ?DloadSectionCommitPermanent@@3KA 0000000180090150     DelayImp:delayhlp.obj
 0003:00007154       __scrt_ucrt_dll_is_in_use  0000000180090154     <common>
 0003:00007158       __dyn_tls_init_callback    0000000180090158     <common>

 entry point at        0001:00053c00

 Static symbols

 0000:fff65000       .debug$S                   0000000180000000     kernel32:KERNEL32.dll
 0000:fff65000       .debug$S                   0000000180000000     node:node.exe
 0000:fff65000       .debug$S                   0000000180000000     node:node.exe
 0000:fff65000       .debug$S                   0000000180000000     node:node.exe
 0000:fff65000       .debug$S                   0000000180000000     node:node.exe
 0000:fff65000       .debug$S                   0000000180000000     node:node.exe
 0000:fff65000       .debug$S                   0000000180000000     node:node.exe
 0000:fff65000       .debug$S                   0000000180000000     node:node.exe
 0000:fff65000       .debug$S                   0000000180000000     node:node.exe
 0000:fff65000       .debug$S                   0000000180000000     node:node.exe
 0000:fff65000       .debug$S                   0000000180000000     node:node.exe
 0000:fff65000       .debug$S                   0000000180000000     node:node.exe
 0000:fff65000       .debug$S                   0000000180000000     node:node.exe
 0000:fff65000       .debug$S                   0000000180000000     node:node.exe
 0000:fff65000       .debug$S                   0000000180000000     node:node.exe
 0000:fff65000       .debug$S                   0000000180000000     node:node.exe
 0000:fff65000       .debug$S                   0000000180000000     node:node.exe
 0000:fff65000       .debug$S                   0000000180000000     node:node.exe
 0000:fff65000       .debug$S                   0000000180000000     node:node.exe
 0000:fff65000       .debug$S                   0000000180000000     node:node.exe
 0000:fff65000       .debug$S                   0000000180000000     node:node.exe
 0000:fff65000       .debug$S                   0000000180000000     node:node.exe
 0000:fff65000       .debug$S                   0000000180000000     kernel32:KERNEL32.dll
 0000:fff65000       .debug$S                   0000000180000000     kernel32:KERNEL32.dll
 0000:fff65000       .debug$S                   0000000180000000     kernel32:KERNEL32.dll
 0000:fff65000       .debug$S                   0000000180000000     kernel32:KERNEL32.dll
 0000:fff65000       .debug$S                   0000000180000000     kernel32:KERNEL32.dll
 0000:fff65000       .debug$S                   0000000180000000     kernel32:KERNEL32.dll
 0000:fff65000       .debug$S                   0000000180000000     kernel32:KERNEL32.dll
 0000:fff65000       .debug$S                   0000000180000000     kernel32:KERNEL32.dll
 0000:fff65000       .debug$S                   0000000180000000     kernel32:KERNEL32.dll
 0000:fff65000       .debug$S                   0000000180000000     kernel32:KERNEL32.dll
 0000:fff65000       .debug$S                   0000000180000000     kernel32:KERNEL32.dll
 0000:fff65000       .debug$S                   0000000180000000     kernel32:KERNEL32.dll
 0000:fff65000       .debug$S                   0000000180000000     kernel32:KERNEL32.dll
 0000:fff65000       .debug$S                   0000000180000000     kernel32:KERNEL32.dll
 0000:fff65000       .debug$S                   0000000180000000     kernel32:KERNEL32.dll
 0000:fff65000       .debug$S                   0000000180000000     kernel32:KERNEL32.dll
 0000:fff65000       .debug$S                   0000000180000000     kernel32:KERNEL32.dll
 0000:fff65000       .debug$S                   0000000180000000     kernel32:KERNEL32.dll
 0000:fff65000       .debug$S                   0000000180000000     kernel32:KERNEL32.dll
 0000:fff65000       .debug$S                   0000000180000000     kernel32:KERNEL32.dll
 0000:fff65000       .debug$S                   0000000180000000     kernel32:KERNEL32.dll
 0000:fff65000       .debug$S                   0000000180000000     kernel32:KERNEL32.dll
 0000:fff65000       .debug$S                   0000000180000000     kernel32:KERNEL32.dll
 0000:fff65000       .debug$S                   0000000180000000     kernel32:KERNEL32.dll
 0000:fff65000       .debug$S                   0000000180000000     kernel32:KERNEL32.dll
 0000:fff65000       .debug$S                   0000000180000000     kernel32:KERNEL32.dll
 0000:fff65000       .debug$S                   0000000180000000     kernel32:KERNEL32.dll
 0000:fff65000       .debug$S                   0000000180000000     kernel32:KERNEL32.dll
 0000:fff65000       .debug$S                   0000000180000000     kernel32:KERNEL32.dll
 0000:fff65000       .debug$S                   0000000180000000     kernel32:KERNEL32.dll
 0000:fff65000       .debug$S                   0000000180000000     kernel32:KERNEL32.dll
 0000:fff65000       .debug$S                   0000000180000000     kernel32:KERNEL32.dll
 0000:fff65000       .debug$S                   0000000180000000     kernel32:KERNEL32.dll
 0000:fff65000       .debug$S                   0000000180000000     kernel32:KERNEL32.dll
 0000:fff65000       .debug$S                   0000000180000000     kernel32:KERNEL32.dll
 0000:fff65000       .debug$S                   0000000180000000     kernel32:KERNEL32.dll
 0000:fff65000       .debug$S                   0000000180000000     kernel32:KERNEL32.dll
 0000:fff65000       .debug$S                   0000000180000000     kernel32:KERNEL32.dll
 0000:fff65000       .debug$S                   0000000180000000     kernel32:KERNEL32.dll
 0000:fff65000       .debug$S                   0000000180000000     kernel32:KERNEL32.dll
 0000:fff65000       .debug$S                   0000000180000000     kernel32:KERNEL32.dll
 0000:fff65000       .debug$S                   0000000180000000     kernel32:KERNEL32.dll
 0000:fff65000       .debug$S                   0000000180000000     kernel32:KERNEL32.dll
 0000:fff65000       .debug$S                   0000000180000000     kernel32:KERNEL32.dll
 0000:fff65000       .debug$S                   0000000180000000     kernel32:KERNEL32.dll
 0000:fff65000       .debug$S                   0000000180000000     kernel32:KERNEL32.dll
 0000:fff65000       .debug$S                   0000000180000000     kernel32:KERNEL32.dll
 0000:fff65000       .debug$S                   0000000180000000     kernel32:KERNEL32.dll
 0000:fff65000       .debug$S                   0000000180000000     kernel32:KERNEL32.dll
 0000:fff65000       .debug$S                   0000000180000000     kernel32:KERNEL32.dll
 0000:fff65000       .debug$S                   0000000180000000     kernel32:KERNEL32.dll
 0000:fff65000       .debug$S                   0000000180000000     kernel32:KERNEL32.dll
 0000:fff65000       .debug$S                   0000000180000000     kernel32:KERNEL32.dll
 0000:fff65000       .debug$S                   0000000180000000     kernel32:KERNEL32.dll
 0000:fff65000       .debug$S                   0000000180000000     kernel32:KERNEL32.dll
 0000:fff65000       .debug$S                   0000000180000000     kernel32:KERNEL32.dll
 0000:fff65000       .debug$S                   0000000180000000     kernel32:KERNEL32.dll
 0000:fff65000       .debug$S                   0000000180000000     kernel32:KERNEL32.dll
 0000:fff65000       .debug$S                   0000000180000000     kernel32:KERNEL32.dll
 0000:fff65000       .debug$S                   0000000180000000     kernel32:KERNEL32.dll
 0000:fff65000       .debug$S                   0000000180000000     kernel32:KERNEL32.dll
 0000:fff65000       .debug$S                   0000000180000000     kernel32:KERNEL32.dll
 0000:fff65000       .debug$S                   0000000180000000     kernel32:KERNEL32.dll
 0000:fff65000       .debug$S                   0000000180000000     kernel32:KERNEL32.dll
 0000:fff65000       .debug$S                   0000000180000000     kernel32:KERNEL32.dll
 0000:fff65000       .debug$S                   0000000180000000     kernel32:KERNEL32.dll
 0000:fff65000       .debug$S                   0000000180000000     kernel32:KERNEL32.dll
 0000:fff65000       .debug$S                   0000000180000000     kernel32:KERNEL32.dll
 0000:fff65000       .debug$S                   0000000180000000     kernel32:KERNEL32.dll
 0000:fff65000       .debug$S                   0000000180000000     kernel32:KERNEL32.dll
 0000:fff65000       .debug$S                   0000000180000000     kernel32:KERNEL32.dll
 0000:fff65000       .debug$S                   0000000180000000     kernel32:KERNEL32.dll
 0000:fff65000       .debug$S                   0000000180000000     kernel32:KERNEL32.dll
 0000:fff65000       .debug$S                   0000000180000000     kernel32:KERNEL32.dll
 0000:fff65000       .debug$S                   0000000180000000     kernel32:KERNEL32.dll
 0000:fff65000       .debug$S                   0000000180000000     kernel32:KERNEL32.dll
 0000:fff65000       .debug$S                   0000000180000000     kernel32:KERNEL32.dll
 0000:fff65000       .debug$S                   0000000180000000     kernel32:KERNEL32.dll
 0000:fff65000       .debug$S                   0000000180000000     kernel32:KERNEL32.dll
 0000:fff65000       .debug$S                   0000000180000000     kernel32:KERNEL32.dll
 0000:fff65000       .debug$S                   0000000180000000     kernel32:KERNEL32.dll
 0000:fff65000       .debug$S                   0000000180000000     kernel32:KERNEL32.dll
 0000:fff65000       .debug$S                   0000000180000000     kernel32:KERNEL32.dll
 0000:fff65000       .debug$S                   0000000180000000     node:node.exe
 0000:fff65000       .debug$S                   0000000180000000     node:node.exe
 0000:fff65000       .debug$S                   0000000180000000     node:node.exe
 0000:fff65000       .debug$S                   0000000180000000     node:node.exe
 0000:fff65000       .debug$S                   0000000180000000     node:node.exe
 0000:fff65000       .debug$S                   0000000180000000     node:node.exe
 0000:fff65000       .debug$S                   0000000180000000     node:node.exe
 0000:fff65000       .debug$S                   0000000180000000     node:node.exe
 0000:fff65000       .debug$S                   0000000180000000     node:node.exe
 0000:fff65000       .debug$S                   0000000180000000     node:node.exe
 0000:fff65000       .debug$S                   0000000180000000     node:node.exe
 0000:fff65000       .debug$S                   0000000180000000     node:node.exe
 0000:fff65000       .debug$S                   0000000180000000     node:node.exe
 0000:fff65000       .debug$S                   0000000180000000     node:node.exe
 0000:fff65000       .debug$S                   0000000180000000     node:node.exe
 0000:fff65000       .debug$S                   0000000180000000     node:node.exe
 0000:fff65000       .debug$S                   0000000180000000     node:node.exe
 0000:fff65000       .debug$S                   0000000180000000     node:node.exe
 0000:fff65000       .debug$S                   0000000180000000     node:node.exe
 0000:fff65000       .debug$S                   0000000180000000     node:node.exe
 0000:fff65000       .debug$S                   0000000180000000     node:node.exe
 0000:fff65000       .debug$S                   0000000180000000     node:node.exe
 0000:fff65000       .debug$S                   0000000180000000     node:node.exe
 0000:fff65000       .debug$S                   0000000180000000     node:node.exe
 0000:fff65000       .debug$S                   0000000180000000     kernel32:KERNEL32.dll
 0000:fff65000       .debug$S                   0000000180000000     node:node.exe
 0000:fff65000       .debug$S                   0000000180000000     kernel32:KERNEL32.dll
 0000:fff65000       .debug$S                   0000000180000000     node:node.exe
 0000:fff65000       .debug$S                   0000000180000000     node:node.exe
 0000:fff65000       .debug$S                   0000000180000000     kernel32:KERNEL32.dll
 0000:fff65000       .debug$S                   0000000180000000     kernel32:KERNEL32.dll
 0000:fff65000       .debug$S                   0000000180000000     node:node.exe
 0000:fff65000       .debug$S                   0000000180000000     kernel32:KERNEL32.dll
 0000:fff65000       .debug$S                   0000000180000000     node:node.exe
 0000:fff65000       .debug$S                   0000000180000000     node:node.exe
 0000:fff65000       .debug$S                   0000000180000000     node:node.exe
 0000:fff65000       .debug$S                   0000000180000000     talib.exp
 0000:fff65000       .debug$S                   0000000180000000     node:node.exe
 0000:fff65000       .debug$S                   0000000180000000     node:node.exe
 0000:fff65000       .debug$S                   0000000180000000     node:node.exe
 0000:fff65000       .debug$S                   0000000180000000     node:node.exe
 0000:fff65000       .debug$S                   0000000180000000     node:node.exe
 0000:fff65000       .debug$S                   0000000180000000     node:node.exe
 0000:fff65000       .debug$S                   0000000180000000     node:node.exe
 0000:fff65000       .debug$S                   0000000180000000     node:node.exe
 0000:fff65000       .debug$S                   0000000180000000     node:node.exe
 0000:fff65000       .debug$S                   0000000180000000     node:node.exe
 0000:fff65000       .debug$S                   0000000180000000     node:node.exe
 0000:fff65000       .debug$S                   0000000180000000     node:node.exe
 0001:00000000       ?FunctionCallbackWrapper@imp@Nan@@YAXAEBV?$FunctionCallbackInfo@VValue@v8@@@v8@@@Z 0000000180001000 f   talib.obj
 0001:000000e0       ?GetterCallbackWrapper@imp@Nan@@YAXV?$Local@VName@v8@@@v8@@AEBV?$PropertyCallbackInfo@VValue@v8@@@4@@Z 00000001800010e0 f   talib.obj
 0001:00000db0       ?REPORT_TA_ERROR@@YAXPEAVCallback@Nan@@W4TA_RetCode@@@Z 0000000180001db0 f   talib.obj
 0001:00000f10       ?REPORT_INTERNAL_ERROR@@YAXPEAVCallback@Nan@@PEBD@Z 0000000180001f10 f   talib.obj
 0001:00001050       ?V8_TO_DOUBLE_ARRAY@@YAPEANV?$Local@VArray@v8@@@v8@@@Z 0000000180002050 f   talib.obj
 0001:00001180       ?generateResult@@YA?AV?$Local@VObject@v8@@@v8@@PEAUwork_object@@@Z 0000000180002180 f   talib.obj
 0001:000015e0       ?TA_EXPLAIN_FUNCTION@@YA?AV?$Local@VValue@v8@@@v8@@PEBD@Z 00000001800025e0 f   talib.obj
 0001:00007750       _register_talib            0000000180008750 f   talib.obj
 0001:00007f50       ?load_exe_hook@@YAP6A_JXZIPEAUDelayLoadInfo@@@Z 0000000180008f50 f   win_delay_load_hook.obj
 0001:00008e90       getFuncNameByIdx           0000000180009e90 f   ta_libc_csr:ta_abstract.obj
 0001:00008ec0       getGroupId                 0000000180009ec0 f   ta_libc_csr:ta_abstract.obj
 0001:00008f30       getGroupSize               0000000180009f30 f   ta_libc_csr:ta_abstract.obj
 0001:000460f0       $LN41                      00000001800470f0     ta_libc_csr:ta_MA.obj
 0001:00046238       $LN24                      0000000180047238     ta_libc_csr:ta_MA.obj
 0001:00053850       $$000000                   0000000180054850     LIBCMT:amdsecgs.obj
 0001:000538d0       ?dllmain_crt_dispatch@@YAHQEAUHINSTANCE__@@KQEAX@Z 00000001800548d0 f   LIBCMT:dll_dllmain.obj
 0001:00053920       ?dllmain_crt_process_attach@@YAHQEAUHINSTANCE__@@QEAX@Z 0000000180054920 f   LIBCMT:dll_dllmain.obj
 0001:00053a3c       ?dllmain_crt_process_detach@@YAH_N@Z 0000000180054a3c f   LIBCMT:dll_dllmain.obj
 0001:00053acc       ?dllmain_dispatch@@YAHQEAUHINSTANCE__@@KQEAX@Z 0000000180054acc f   LIBCMT:dll_dllmain.obj
 0001:0005405c       capture_current_context    000000018005505c f   LIBCMT:gs_report.obj
 0001:000540cc       capture_previous_context   00000001800550cc f   LIBCMT:gs_report.obj
 0001:00054870       $$000000                   0000000180055870     libvcruntime:memset.obj
 0001:0005496c       MsetTab                    000000018005596c     libvcruntime:memset.obj
 0001:00054a30       $$000000                   0000000180055a30     libvcruntime:memcpy.obj
 0001:00054ae7       MoveSmall                  0000000180055ae7     libvcruntime:memcpy.obj
 0001:000552f0       $$000000                   00000001800562f0     libvcruntime:notify.obj
 0001:00055618       ?try_get_function@@YAPEAXW4function_id@?A0xbfd18cd1@@QEBDQEBW4module_id@2@2@Z 0000000180056618 f   libvcruntime:winapi_downlevel.obj
 0001:000559f0       $$000000                   00000001800569f0     libvcruntime:handlers.obj
 0001:00055aac       ??$common_assert_to_message_box@_W@@YAXQEB_W0IQEAX@Z 0000000180056aac f   libucrt:assert.obj
 0001:00055b70       ??$common_assert_to_message_box_build_string@_W@@YAXQEA_W_KQEB_W2IQEAX@Z 0000000180056b70 f   libucrt:assert.obj
 0001:00056074       ??$common_assert_to_stderr@_W@@YAXQEB_W0I@Z 0000000180057074 f   libucrt:assert.obj
 0001:000561e4       ?get_assert_format@@YAPEB_W_W@Z 00000001800571e4 f   libucrt:assert.obj
 0001:00056784       ?internal_isupper_l@@YA_NHQEAU__crt_locale_pointers@@@Z 0000000180057784 f   libucrt:tolower_toupper.obj
 0001:00057230       $$000000                   0000000180058230     libucrt:cos.obj
 0001:00057b1c       splitexp                   0000000180058b1c f   libucrt:cosh.obj
 0001:00057c40       $$000000                   0000000180058c40     libucrt:exp.obj
 0001:000580f0       $$000000                   00000001800590f0     libucrt:sin.obj
 0001:00058660       $$000000                   0000000180059660     libucrt:log.obj
 0001:00058b90       $$000000                   0000000180059b90     libucrt:log10.obj
 0001:000594e8       splitexp                   000000018005a4e8 f   libucrt:sinh.obj
 0001:00059610       $$000000                   000000018005a610     libucrt:tan.obj
 0001:00059bd0       _tan_piby4                 000000018005abd0 f   libucrt:tan.obj
 0001:00059da8       splitexp                   000000018005ada8 f   libucrt:tanh.obj
 0001:0005a3d4       ??$?RV<lambda_d80eeec6fff315bfe5c115232f3240e3>@@AEAV<lambda_6e4b09c48022b2350581041d5f6b0c4c>@@V<lambda_2358e3775559c9db80273638284d5e45>@@@?$__crt_seh_guarded_call@X@@QEAAX$$QEAV<lambda_d80eeec6fff315bfe5c115232f3240e3>@@AEAV<lambda_6e4b09c48022b2350581041d5f6b0c4c>@@$$QEAV<lambda_2358e3775559c9db80273638284d5e45>@@@Z 000000018005b3d4 f   libucrt:exit.obj
 0001:0005a40c       ??R<lambda_6e4b09c48022b2350581041d5f6b0c4c>@@QEBA@XZ 000000018005b40c f   libucrt:exit.obj
 0001:0005a4d0       ?atexit_exception_filter@@YAHK@Z 000000018005b4d0 f   libucrt:exit.obj
 0001:0005a4dc       ?common_exit@@YAXHW4_crt_exit_cleanup_mode@@W4_crt_exit_return_mode@@@Z 000000018005b4dc f   libucrt:exit.obj
 0001:0005a598       ?exit_or_terminate_process@@YAXI@Z 000000018005b598 f   libucrt:exit.obj
 0001:0005a5e4       ?try_cor_exit_process@@YAXI@Z 000000018005b5e4 f   libucrt:exit.obj
 0001:0005a66c       ??$parse_command_line@D@@YAXPEADPEAPEAD0PEA_K2@Z 000000018005b66c f   libucrt:argv_parsing.obj
 0001:0005aa18       ??$common_initialize_environment_nolock@D@@YAHXZ 000000018005ba18 f   libucrt:environment_initialization.obj
 0001:0005aa84       ??$create_environment@D@@YAQEAPEADQEAD@Z 000000018005ba84 f   libucrt:environment_initialization.obj
 0001:0005ab8c       ??$free_environment@_W@@YAXQEAPEA_W@Z 000000018005bb8c f   libucrt:environment_initialization.obj
 0001:0005ab8c       ??$free_environment@D@@YAXQEAPEAD@Z 000000018005bb8c f   libucrt:environment_initialization.obj
 0001:0005abd0       ??$uninitialize_environment_internal@D@@YAXAEAPEAPEAD@Z 000000018005bbd0 f   libucrt:environment_initialization.obj
 0001:0005abec       ??$uninitialize_environment_internal@_W@@YAXAEAPEAPEA_W@Z 000000018005bbec f   libucrt:environment_initialization.obj
 0001:0005ac48       ??$?RV<lambda_7777bce6b2f8c936911f934f8298dc43>@@AEAV<lambda_f03950bc5685219e0bcd2087efbe011e>@@V<lambda_3883c3dff614d5e0c5f61bb1ac94921c>@@@?$__crt_seh_guarded_call@H@@QEAAH$$QEAV<lambda_7777bce6b2f8c936911f934f8298dc43>@@AEAV<lambda_f03950bc5685219e0bcd2087efbe011e>@@$$QEAV<lambda_3883c3dff614d5e0c5f61bb1ac94921c>@@@Z 000000018005bc48 f   libucrt:onexit.obj
 0001:0005ac84       ??R<lambda_f03950bc5685219e0bcd2087efbe011e>@@QEBAHXZ 000000018005bc84 f   libucrt:onexit.obj
 0001:0005ae00       initialize_global_variables 000000018005be00 f   libucrt:initialization.obj
 0001:0005ae14       initialize_c               000000018005be14 f   libucrt:initialization.obj
 0001:0005ae38       initialize_global_state_isolation 000000018005be38 f   libucrt:initialization.obj
 0001:0005ae38       uninitialize_global_state_isolation 000000018005be38 f   libucrt:initialization.obj
 0001:0005ae38       initialize_environment     000000018005be38 f   libucrt:initialization.obj
 0001:0005ae38       report_memory_leaks        000000018005be38 f   libucrt:initialization.obj
 0001:0005ae38       uninitialize_c             000000018005be38 f   libucrt:initialization.obj
 0001:0005ae3c       uninitialize_environment   000000018005be3c f   libucrt:initialization.obj
 0001:0005ae4c       initialize_pointers        000000018005be4c f   libucrt:initialization.obj
 0001:0005ae8c       uninitialize_vcruntime     000000018005be8c f   libucrt:initialization.obj
 0001:0005ae94       uninitialize_allocated_memory 000000018005be94 f   libucrt:initialization.obj
 0001:0005aed4       uninitialize_allocated_io_buffers 000000018005bed4 f   libucrt:initialization.obj
 0001:0005b088       ??$?RV<lambda_0d412022a4b28cc8a401ea49574e8ae6>@@AEAV<lambda_a775ed57af18ba8e4d5dc780aa9068fe>@@V<lambda_975a71a6baa488a08f4e15f6b0339b9e>@@@?$__crt_seh_guarded_call@H@@QEAAH$$QEAV<lambda_0d412022a4b28cc8a401ea49574e8ae6>@@AEAV<lambda_a775ed57af18ba8e4d5dc780aa9068fe>@@$$QEAV<lambda_975a71a6baa488a08f4e15f6b0339b9e>@@@Z 000000018005c088 f   libucrt:output.obj
 0001:0005b0c8       ??$common_vsprintf@Vstandard_base@__crt_stdio_output@@_W@@YAH_KQEA_W0QEB_WQEAU__crt_locale_pointers@@QEAD@Z 000000018005c0c8 f   libucrt:output.obj
 0001:0005b688       ??R<lambda_a775ed57af18ba8e4d5dc780aa9068fe>@@QEBAHXZ 000000018005c688 f   libucrt:output.obj
 0001:0005d860       $$000000                   000000018005e860     libucrt:strncmp.obj
 0001:0005da44       ??$common_xtox@K_W@@YAHKQEA_W_KI_N@Z 000000018005ea44 f   libucrt:xtoa.obj
 0001:0005db18       ??$common_xtox_s@K_W@@YAHKQEA_W_KI_N@Z 000000018005eb18 f   libucrt:xtoa.obj
 0001:0005e24c       ??$?RV<lambda_842d9ff0dc9ef11c61343bbaebe7f885>@@AEAV<lambda_c5860995281e5c4ce005b3de8f5874ee>@@V<lambda_d90129c13df834fdcbf8d2b88dafcf2d>@@@?$__crt_seh_guarded_call@X@@QEAAX$$QEAV<lambda_842d9ff0dc9ef11c61343bbaebe7f885>@@AEAV<lambda_c5860995281e5c4ce005b3de8f5874ee>@@$$QEAV<lambda_d90129c13df834fdcbf8d2b88dafcf2d>@@@Z 000000018005f24c f   libucrt:fflush.obj
 0001:0005e2e8       ??$?RV<lambda_886d6c58226a84441f68b9f2b8217b83>@@AEAV<lambda_ab61a845afdef5b7c387490eaf3616ee>@@V<lambda_f7f22ab5edc0698d5f6905b0d3f44752>@@@?$__crt_seh_guarded_call@X@@QEAAX$$QEAV<lambda_886d6c58226a84441f68b9f2b8217b83>@@AEAV<lambda_ab61a845afdef5b7c387490eaf3616ee>@@$$QEAV<lambda_f7f22ab5edc0698d5f6905b0d3f44752>@@@Z 000000018005f2e8 f   libucrt:fflush.obj
 0001:0005e3c8       ??$?RV<lambda_c376a267cfb53b6959b3b692ec76b120>@@AEAV<lambda_9a32fed5bf61b6b509b2d3f6003082a1>@@V<lambda_572fbb9fa0ab338edf41edfd4b5fcc8d>@@@?$__crt_seh_guarded_call@H@@QEAAH$$QEAV<lambda_c376a267cfb53b6959b3b692ec76b120>@@AEAV<lambda_9a32fed5bf61b6b509b2d3f6003082a1>@@$$QEAV<lambda_572fbb9fa0ab338edf41edfd4b5fcc8d>@@@Z 000000018005f3c8 f   libucrt:fflush.obj
 0001:0005e408       ?common_flush_all@@YAH_N@Z 000000018005f408 f   libucrt:fflush.obj
 0001:0005e5a0       ??$?RV<lambda_84ec643ea9557e2f7dc01bb0e9624395>@@AEAV<lambda_ca71763b3c0644891230e4f79ea54fa6>@@V<lambda_439a761618c59b0600e24586724d733b>@@@?$__crt_seh_guarded_call@H@@QEAAH$$QEAV<lambda_84ec643ea9557e2f7dc01bb0e9624395>@@AEAV<lambda_ca71763b3c0644891230e4f79ea54fa6>@@$$QEAV<lambda_439a761618c59b0600e24586724d733b>@@@Z 000000018005f5a0 f   libucrt:setvbuf.obj
 0001:0005e5e0       ??R<lambda_ca71763b3c0644891230e4f79ea54fa6>@@QEBAHXZ 000000018005f5e0 f   libucrt:setvbuf.obj
 0001:0005e75c       ??$?RV<lambda_450d765d439847d4c735a33c368b5fc0>@@AEAV<lambda_44731a7d0e6d81c3e6aa82d741081786>@@V<lambda_601a2a7da3b7a96e9554ac7215c4b07c>@@@?$__crt_seh_guarded_call@P6AXH@Z@@QEAAP6AXH@Z$$QEAV<lambda_450d765d439847d4c735a33c368b5fc0>@@AEAV<lambda_44731a7d0e6d81c3e6aa82d741081786>@@$$QEAV<lambda_601a2a7da3b7a96e9554ac7215c4b07c>@@@Z 000000018005f75c f   libucrt:signal.obj
 0001:0005ea60       ??$?RV<lambda_0ae27a3a962d80f24befdcbee591983d>@@AEAV<lambda_8d0ee55de4b1038c4002e0adecdf1839>@@V<lambda_dc504788e8f1664fe9b84e20bfb512f2>@@@?$__crt_seh_guarded_call@X@@QEAAX$$QEAV<lambda_0ae27a3a962d80f24befdcbee591983d>@@AEAV<lambda_8d0ee55de4b1038c4002e0adecdf1839>@@$$QEAV<lambda_dc504788e8f1664fe9b84e20bfb512f2>@@@Z 000000018005fa60 f   libucrt:per_thread_data.obj
 0001:0005eaa0       ??$?RV<lambda_2d41944a1d46af3157314b8a01080d33>@@AEAV<lambda_8f455de75cd7d7f24b4096f044d8b9e6>@@V<lambda_aa500f224e6afead328df44964fe2772>@@@?$__crt_seh_guarded_call@X@@QEAAX$$QEAV<lambda_2d41944a1d46af3157314b8a01080d33>@@AEAV<lambda_8f455de75cd7d7f24b4096f044d8b9e6>@@$$QEAV<lambda_aa500f224e6afead328df44964fe2772>@@@Z 000000018005faa0 f   libucrt:per_thread_data.obj
 0001:0005eae0       ??$?RV<lambda_aa87e3671a710a21b5dc78c0bdf72e11>@@AEAV<lambda_92619d2358a28f41a33ba319515a20b9>@@V<lambda_6992ecaafeb10aed2b74cb1fae11a551>@@@?$__crt_seh_guarded_call@X@@QEAAX$$QEAV<lambda_aa87e3671a710a21b5dc78c0bdf72e11>@@AEAV<lambda_92619d2358a28f41a33ba319515a20b9>@@$$QEAV<lambda_6992ecaafeb10aed2b74cb1fae11a551>@@@Z 000000018005fae0 f   libucrt:per_thread_data.obj
 0001:0005eb28       ??$?RV<lambda_f2e299630e499de9f9a165e60fcd3db5>@@AEAV<lambda_2ae9d31cdba2644fcbeaf08da7c24588>@@V<lambda_40d01ff24d0e7b3814fdbdcee8eab3c7>@@@?$__crt_seh_guarded_call@X@@QEAAX$$QEAV<lambda_f2e299630e499de9f9a165e60fcd3db5>@@AEAV<lambda_2ae9d31cdba2644fcbeaf08da7c24588>@@$$QEAV<lambda_40d01ff24d0e7b3814fdbdcee8eab3c7>@@@Z 000000018005fb28 f   libucrt:per_thread_data.obj
 0001:0005eb88       ?construct_ptd_array@@YAXQEAU__acrt_ptd@@@Z 000000018005fb88 f   libucrt:per_thread_data.obj
 0001:0005ec58       ?destroy_fls@@YAXPEAX@Z    000000018005fc58 f   libucrt:per_thread_data.obj
 0001:0005ec78       ?destroy_ptd_array@@YAXQEAU__acrt_ptd@@@Z 000000018005fc78 f   libucrt:per_thread_data.obj
 0001:0005ed70       ?replace_current_thread_locale_nolock@@YAXQEAU__acrt_ptd@@QEAU__crt_locale_data@@@Z 000000018005fd70 f   libucrt:per_thread_data.obj
 0001:0005f18c       ??$?RV<lambda_410d79af7f07d98d83a3f525b3859a53>@@AEAV<lambda_3e16ef9562a7dcce91392c22ab16ea36>@@V<lambda_38119f0e861e05405d8a144b9b982f0a>@@@?$__crt_seh_guarded_call@X@@QEAAX$$QEAV<lambda_410d79af7f07d98d83a3f525b3859a53>@@AEAV<lambda_3e16ef9562a7dcce91392c22ab16ea36>@@$$QEAV<lambda_38119f0e861e05405d8a144b9b982f0a>@@@Z 000000018006018c f   libucrt:wsetlocale.obj
 0001:0005f3c4       ?__acrt_LCMapStringA_stat@@YAHPEAU__crt_locale_pointers@@PEB_WKPEBDHPEADHHH@Z 00000001800603c4 f   libucrt:lcmapstringa.obj
 0001:0005f844       _call_matherr              0000000180060844 f   libucrt:libm_error.obj
 0001:0005f8ac       _exception_enabled         00000001800608ac f   libucrt:libm_error.obj
 0001:0005fb20       $$000000                   0000000180060b20     libucrt:remainder_piby2_forasm.obj
 0001:0005fe70       $$000000                   0000000180060e70     libucrt:remainder_piby2_forfma3.obj
 0001:00060100       _sincos_special            0000000180061100 f   libucrt:sincos_special.obj
 0001:000602a0       _log_special_common        00000001800612a0 f   libucrt:log_special.obj
 0001:0006056c       ?<lambda_invoker_cdecl>@<lambda_c2303d2482d7c3675ea2e24c4cfb6115>@@CAHPEBX0@Z 000000018006156c f   libucrt:argv_wildcards.obj
 0001:00060884       ??$common_expand_argv_wildcards@D@@YAHQEAPEADQEAPEAPEAD@Z 0000000180061884 f   libucrt:argv_wildcards.obj
 0001:00060a90       ??$copy_and_add_argument_to_buffer@D@@YAHQEBD0_KAEAV?$argument_list@D@?A0x5f5c8891@@@Z 0000000180061a90 f   libucrt:argv_wildcards.obj
 0001:00060c18       ??$expand_argument_wildcards@D@@YAHQEAD0AEAV?$argument_list@D@?A0x5f5c8891@@@Z 0000000180061c18 f   libucrt:argv_wildcards.obj
 0001:00060f30       ??$?RV<lambda_efdfa57d1f175319df784efa44bb7b81>@@AEAV<lambda_5f0a4c1567f8adc6734073e5d1e1b35c>@@V<lambda_2e8a7d3640ea6ccb4c2413664c2db6fd>@@@?$__crt_seh_guarded_call@X@@QEAAX$$QEAV<lambda_efdfa57d1f175319df784efa44bb7b81>@@AEAV<lambda_5f0a4c1567f8adc6734073e5d1e1b35c>@@$$QEAV<lambda_2e8a7d3640ea6ccb4c2413664c2db6fd>@@@Z 0000000180061f30 f   libucrt:mbctype.obj
 0001:000610ec       ?getSystemCP@@YAHH@Z       00000001800620ec f   libucrt:mbctype.obj
 0001:0006116c       ?setSBCS@@YAXPEAU__crt_multibyte_data@@@Z 000000018006216c f   libucrt:mbctype.obj
 0001:000611fc       ?setSBUpLow@@YAXPEAU__crt_multibyte_data@@@Z 00000001800621fc f   libucrt:mbctype.obj
 0001:000613e0       ?setmbcp_internal@@YAHH_NQEAU__acrt_ptd@@QEAPEAU__crt_multibyte_data@@@Z 00000001800623e0 f   libucrt:mbctype.obj
 0001:000615a4       ?update_thread_multibyte_data_internal@@YAPEAU__crt_multibyte_data@@QEAU__acrt_ptd@@QEAPEAU1@@Z 00000001800625a4 f   libucrt:mbctype.obj
 0001:00061994       ?x_ismbbtype_l@@YAHPEAU__crt_locale_pointers@@IHH@Z 0000000180062994 f   libucrt:ismbbyte.obj
 0001:00061cd8       ?try_get_function@@YAPEAXW4function_id@?A0x391cf84c@@QEBDQEBW4module_id@2@2@Z 0000000180062cd8 f   libucrt:winapi_thunks.obj
 0001:0006255c       ?initialize_inherited_file_handles_nolock@@YAXXZ 000000018006355c f   libucrt:ioinit.obj
 0001:0006264c       ?initialize_stdio_handles_nolock@@YAXXZ 000000018006364c f   libucrt:ioinit.obj
 0001:00062fc4       ?fp_format_a@@YAHQEBNPEAD_KQEAD2H_NIQEAU__crt_locale_pointers@@@Z 0000000180063fc4 f   libucrt:cvt.obj
 0001:00063334       ?fp_format_e@@YAHQEBNQEAD_K12H_NIQEAU__crt_locale_pointers@@@Z 0000000180064334 f   libucrt:cvt.obj
 0001:00063410       ?fp_format_e_internal@@YAHQEAD_KH_NIQEAU_strflt@@2QEAU__crt_locale_pointers@@@Z 0000000180064410 f   libucrt:cvt.obj
 0001:000635e4       ?fp_format_f_internal@@YAHQEAD_KHQEAU_strflt@@_NQEAU__crt_locale_pointers@@@Z 00000001800645e4 f   libucrt:cvt.obj
 0001:00063728       ?fp_format_g@@YAHQEBNQEAD_K12H_NIQEAU__crt_locale_pointers@@@Z 0000000180064728 f   libucrt:cvt.obj
 0001:0006385c       ?fp_format_nan_or_infinity@@YAHW4__acrt_fp_class@@_NPEAD_K1@Z 000000018006485c f   libucrt:cvt.obj
 0001:00063f58       ??$?RV<lambda_a37b2b86f63e897a80ea819b0eb08c01>@@AEAV<lambda_38ce7e780aa69e748d6df282ebc68efe>@@V<lambda_99fb1378e971ab6e7edea83e3a7a83a2>@@@?$__crt_seh_guarded_call@H@@QEAAH$$QEAV<lambda_a37b2b86f63e897a80ea819b0eb08c01>@@AEAV<lambda_38ce7e780aa69e748d6df282ebc68efe>@@$$QEAV<lambda_99fb1378e971ab6e7edea83e3a7a83a2>@@@Z 0000000180064f58 f   libucrt:commit.obj
 0001:00064078       ?write_double_translated_ansi_nolock@@YA?AUwrite_result@?A0x17268360@@HQEBDI@Z 0000000180065078 f   libucrt:write.obj
 0001:00064554       ?write_text_ansi_nolock@@YA?AUwrite_result@?A0x17268360@@HQEBDI@Z 0000000180065554 f   libucrt:write.obj
 0001:00064658       ?write_text_utf16le_nolock@@YA?AUwrite_result@?A0x17268360@@HQEBDI@Z 0000000180065658 f   libucrt:write.obj
 0001:00064774       ?write_text_utf8_nolock@@YA?AUwrite_result@?A0x17268360@@HQEBDI@Z 0000000180065774 f   libucrt:write.obj
 0001:00065238       ?free_crt_array_internal@@YAXQEAPEBX_K@Z 0000000180066238 f   libucrt:inittime.obj
 0001:00065540       $$000000                   0000000180066540     libucrt:fpsr.obj
 0001:00065da4       fallbackMethod             0000000180066da4 f   libucrt:strpbrk.obj
 0001:00066174       $LN78                      0000000180067174     libucrt:strpbrk.obj
 0001:000661b0       $LN77                      00000001800671b0     libucrt:strpbrk.obj
 0001:000661f0       $LN76                      00000001800671f0     libucrt:strpbrk.obj
 0001:000662cc       ?initialize_multibyte@@YAHXZ 00000001800672cc f   libucrt:multibyte_initializer.obj
 0001:0006639c       ?GetTableIndexFromLocaleName@@YAHPEB_W@Z 000000018006739c f   libucrt:lcidtoname_downlevel.obj
 0001:000681f0       memcpy_s                   00000001800691f0 f   libucrt:cfout.obj
 0001:00068278       ??$write_buffer_nolock@D@@YA_NDV__crt_stdio_stream@@@Z 0000000180069278 f   libucrt:_flsbuf.obj
 0001:0006835c       ??$write_buffer_nolock@_W@@YA_N_WV__crt_stdio_stream@@@Z 000000018006935c f   libucrt:_flsbuf.obj
 0001:00068444       ?stream_is_at_end_of_file_nolock@@YA_NV__crt_stdio_stream@@@Z 0000000180069444 f   libucrt:_flsbuf.obj
 0001:00068784       ??$common_lseek@_J@@YA_JH_JH@Z 0000000180069784 f   libucrt:lseek.obj
 0001:00068874       ??$common_lseek_nolock@_J@@YA_JH_JH@Z 0000000180069874 f   libucrt:lseek.obj
 0001:00068c60       ??$?RV<lambda_751a882b2c74d4b022dec766aa51a29a>@@AEAV<lambda_628dfdc04ba53c8bfc02c9951375f3f5>@@V<lambda_f6c7be5f7998530c34de24c7437d6b54>@@@?$__crt_seh_guarded_call@H@@QEAAH$$QEAV<lambda_751a882b2c74d4b022dec766aa51a29a>@@AEAV<lambda_628dfdc04ba53c8bfc02c9951375f3f5>@@$$QEAV<lambda_f6c7be5f7998530c34de24c7437d6b54>@@@Z 0000000180069c60 f   libucrt:close.obj
 0001:00069a40       $$000000                   000000018006aa40     LIBCMT:chkstk.obj
 0001:00069ab0       $$000000                   000000018006aab0     libvcruntime:memcmp.obj
 0001:00069ce0       $$000000                   000000018006ace0     LIBCMT:guard_dispatch.obj
 0001:00069d00       ?fin$0@?0??dllmain_crt_process_attach@@YAHQEAUHINSTANCE__@@QEAX@Z@4HA 000000018006ad00 f   LIBCMT:dll_dllmain.obj
 0001:00069d17       ?fin$0@?0??dllmain_crt_process_detach@@YAH_N@Z@4HA 000000018006ad17 f   LIBCMT:dll_dllmain.obj
 0001:00069d33       ?filt$0@?0??dllmain_dispatch@@YAHQEAUHINSTANCE__@@KQEAX@Z@4HA 000000018006ad33 f   LIBCMT:dll_dllmain.obj
 0001:00069d69       __scrt_is_nonwritable_in_current_image$filt$0 000000018006ad69 f   LIBCMT:utility.obj
 0001:00069d81       __DestructExceptionObject$filt$0 000000018006ad81 f   libvcruntime:ehhelpers.obj
 0001:00069d99       _query_new_handler$fin$0   000000018006ad99 f   libucrt:new_handler.obj
 0001:00069daf       ?fin$0@?0???$?RV<lambda_450d765d439847d4c735a33c368b5fc0>@@AEAV<lambda_44731a7d0e6d81c3e6aa82d741081786>@@V<lambda_601a2a7da3b7a96e9554ac7215c4b07c>@@@?$__crt_seh_guarded_call@P6AXH@Z@@QEAAP6AXH@Z$$QEAV<lambda_450d765d439847d4c735a33c368b5fc0>@@AEAV<lambda_44731a7d0e6d81c3e6aa82d741081786>@@$$QEAV<lambda_601a2a7da3b7a96e9554ac7215c4b07c>@@@Z@4HA 000000018006adaf f   libucrt:signal.obj
 0001:00069daf       ?fin$0@?0???$?RV<lambda_aa87e3671a710a21b5dc78c0bdf72e11>@@AEAV<lambda_92619d2358a28f41a33ba319515a20b9>@@V<lambda_6992ecaafeb10aed2b74cb1fae11a551>@@@?$__crt_seh_guarded_call@X@@QEAAX$$QEAV<lambda_aa87e3671a710a21b5dc78c0bdf72e11>@@AEAV<lambda_92619d2358a28f41a33ba319515a20b9>@@$$QEAV<lambda_6992ecaafeb10aed2b74cb1fae11a551>@@@Z@4HA 000000018006adaf f   libucrt:per_thread_data.obj
 0001:00069daf       ?fin$0@?0???$?RV<lambda_0ae27a3a962d80f24befdcbee591983d>@@AEAV<lambda_8d0ee55de4b1038c4002e0adecdf1839>@@V<lambda_dc504788e8f1664fe9b84e20bfb512f2>@@@?$__crt_seh_guarded_call@X@@QEAAX$$QEAV<lambda_0ae27a3a962d80f24befdcbee591983d>@@AEAV<lambda_8d0ee55de4b1038c4002e0adecdf1839>@@$$QEAV<lambda_dc504788e8f1664fe9b84e20bfb512f2>@@@Z@4HA 000000018006adaf f   libucrt:per_thread_data.obj
 0001:00069daf       ?fin$0@?0???$?RV<lambda_2d41944a1d46af3157314b8a01080d33>@@AEAV<lambda_8f455de75cd7d7f24b4096f044d8b9e6>@@V<lambda_aa500f224e6afead328df44964fe2772>@@@?$__crt_seh_guarded_call@X@@QEAAX$$QEAV<lambda_2d41944a1d46af3157314b8a01080d33>@@AEAV<lambda_8f455de75cd7d7f24b4096f044d8b9e6>@@$$QEAV<lambda_aa500f224e6afead328df44964fe2772>@@@Z@4HA 000000018006adaf f   libucrt:per_thread_data.obj
 0001:00069daf       ?fin$0@?0???$?RV<lambda_d80eeec6fff315bfe5c115232f3240e3>@@AEAV<lambda_6e4b09c48022b2350581041d5f6b0c4c>@@V<lambda_2358e3775559c9db80273638284d5e45>@@@?$__crt_seh_guarded_call@X@@QEAAX$$QEAV<lambda_d80eeec6fff315bfe5c115232f3240e3>@@AEAV<lambda_6e4b09c48022b2350581041d5f6b0c4c>@@$$QEAV<lambda_2358e3775559c9db80273638284d5e45>@@@Z@4HA 000000018006adaf f   libucrt:exit.obj
 0001:00069daf       ?fin$0@?0???$?RV<lambda_f2e299630e499de9f9a165e60fcd3db5>@@AEAV<lambda_2ae9d31cdba2644fcbeaf08da7c24588>@@V<lambda_40d01ff24d0e7b3814fdbdcee8eab3c7>@@@?$__crt_seh_guarded_call@X@@QEAAX$$QEAV<lambda_f2e299630e499de9f9a165e60fcd3db5>@@AEAV<lambda_2ae9d31cdba2644fcbeaf08da7c24588>@@$$QEAV<lambda_40d01ff24d0e7b3814fdbdcee8eab3c7>@@@Z@4HA 000000018006adaf f   libucrt:per_thread_data.obj
 0001:00069daf       ?fin$0@?0???$?RV<lambda_efdfa57d1f175319df784efa44bb7b81>@@AEAV<lambda_5f0a4c1567f8adc6734073e5d1e1b35c>@@V<lambda_2e8a7d3640ea6ccb4c2413664c2db6fd>@@@?$__crt_seh_guarded_call@X@@QEAAX$$QEAV<lambda_efdfa57d1f175319df784efa44bb7b81>@@AEAV<lambda_5f0a4c1567f8adc6734073e5d1e1b35c>@@$$QEAV<lambda_2e8a7d3640ea6ccb4c2413664c2db6fd>@@@Z@4HA 000000018006adaf f   libucrt:mbctype.obj
 0001:00069daf       ?fin$0@?0???$?RV<lambda_7777bce6b2f8c936911f934f8298dc43>@@AEAV<lambda_f03950bc5685219e0bcd2087efbe011e>@@V<lambda_3883c3dff614d5e0c5f61bb1ac94921c>@@@?$__crt_seh_guarded_call@H@@QEAAH$$QEAV<lambda_7777bce6b2f8c936911f934f8298dc43>@@AEAV<lambda_f03950bc5685219e0bcd2087efbe011e>@@$$QEAV<lambda_3883c3dff614d5e0c5f61bb1ac94921c>@@@Z@4HA 000000018006adaf f   libucrt:onexit.obj
 0001:00069dc9       ?filt$0@?0???R<lambda_6e4b09c48022b2350581041d5f6b0c4c>@@QEBA@XZ@4HA 000000018006adc9 f   libucrt:exit.obj
 0001:00069de4       ?fin$0@?0???$?RV<lambda_c376a267cfb53b6959b3b692ec76b120>@@AEAV<lambda_9a32fed5bf61b6b509b2d3f6003082a1>@@V<lambda_572fbb9fa0ab338edf41edfd4b5fcc8d>@@@?$__crt_seh_guarded_call@H@@QEAAH$$QEAV<lambda_c376a267cfb53b6959b3b692ec76b120>@@AEAV<lambda_9a32fed5bf61b6b509b2d3f6003082a1>@@$$QEAV<lambda_572fbb9fa0ab338edf41edfd4b5fcc8d>@@@Z@4HA 000000018006ade4 f   libucrt:fflush.obj
 0001:00069de4       ?fin$0@?0???$?RV<lambda_842d9ff0dc9ef11c61343bbaebe7f885>@@AEAV<lambda_c5860995281e5c4ce005b3de8f5874ee>@@V<lambda_d90129c13df834fdcbf8d2b88dafcf2d>@@@?$__crt_seh_guarded_call@X@@QEAAX$$QEAV<lambda_842d9ff0dc9ef11c61343bbaebe7f885>@@AEAV<lambda_c5860995281e5c4ce005b3de8f5874ee>@@$$QEAV<lambda_d90129c13df834fdcbf8d2b88dafcf2d>@@@Z@4HA 000000018006ade4 f   libucrt:fflush.obj
 0001:00069de4       ?fin$0@?0???$?RV<lambda_0d412022a4b28cc8a401ea49574e8ae6>@@AEAV<lambda_a775ed57af18ba8e4d5dc780aa9068fe>@@V<lambda_975a71a6baa488a08f4e15f6b0339b9e>@@@?$__crt_seh_guarded_call@H@@QEAAH$$QEAV<lambda_0d412022a4b28cc8a401ea49574e8ae6>@@AEAV<lambda_a775ed57af18ba8e4d5dc780aa9068fe>@@$$QEAV<lambda_975a71a6baa488a08f4e15f6b0339b9e>@@@Z@4HA 000000018006ade4 f   libucrt:output.obj
 0001:00069de4       ?fin$0@?0???$?RV<lambda_84ec643ea9557e2f7dc01bb0e9624395>@@AEAV<lambda_ca71763b3c0644891230e4f79ea54fa6>@@V<lambda_439a761618c59b0600e24586724d733b>@@@?$__crt_seh_guarded_call@H@@QEAAH$$QEAV<lambda_84ec643ea9557e2f7dc01bb0e9624395>@@AEAV<lambda_ca71763b3c0644891230e4f79ea54fa6>@@$$QEAV<lambda_439a761618c59b0600e24586724d733b>@@@Z@4HA 000000018006ade4 f   libucrt:setvbuf.obj
 0001:00069dff       ?fin$0@?0???$?RV<lambda_886d6c58226a84441f68b9f2b8217b83>@@AEAV<lambda_ab61a845afdef5b7c387490eaf3616ee>@@V<lambda_f7f22ab5edc0698d5f6905b0d3f44752>@@@?$__crt_seh_guarded_call@X@@QEAAX$$QEAV<lambda_886d6c58226a84441f68b9f2b8217b83>@@AEAV<lambda_ab61a845afdef5b7c387490eaf3616ee>@@$$QEAV<lambda_f7f22ab5edc0698d5f6905b0d3f44752>@@@Z@4HA 000000018006adff f   libucrt:fflush.obj
 0001:00069e1c       raise$fin$0                000000018006ae1c f   libucrt:signal.obj
 0001:00069e3d       ?fin$0@?0???$?RV<lambda_410d79af7f07d98d83a3f525b3859a53>@@AEAV<lambda_3e16ef9562a7dcce91392c22ab16ea36>@@V<lambda_38119f0e861e05405d8a144b9b982f0a>@@@?$__crt_seh_guarded_call@X@@QEAAX$$QEAV<lambda_410d79af7f07d98d83a3f525b3859a53>@@AEAV<lambda_3e16ef9562a7dcce91392c22ab16ea36>@@$$QEAV<lambda_38119f0e861e05405d8a144b9b982f0a>@@@Z@4HA 000000018006ae3d f   libucrt:wsetlocale.obj
 0001:00069e57       _ctrlfp$filt$0             000000018006ae57 f   libucrt:fpctrl.obj
 0001:00069e83       ?fin$0@?0??update_thread_multibyte_data_internal@@YAPEAU__crt_multibyte_data@@QEAU__acrt_ptd@@QEAPEAU1@@Z@4HA 000000018006ae83 f   libucrt:mbctype.obj
 0001:00069e9c       __acrt_initialize_lowio$fin$0 000000018006ae9c f   libucrt:ioinit.obj
 0001:00069e9c       __acrt_lowio_ensure_fh_exists$fin$0 000000018006ae9c f   libucrt:osfinfo.obj
 0001:00069eb5       _fcloseall$fin$0           000000018006aeb5 f   libucrt:closeall.obj
 0001:00069ece       ?fin$0@?0???$?RV<lambda_751a882b2c74d4b022dec766aa51a29a>@@AEAV<lambda_628dfdc04ba53c8bfc02c9951375f3f5>@@V<lambda_f6c7be5f7998530c34de24c7437d6b54>@@@?$__crt_seh_guarded_call@H@@QEAAH$$QEAV<lambda_751a882b2c74d4b022dec766aa51a29a>@@AEAV<lambda_628dfdc04ba53c8bfc02c9951375f3f5>@@$$QEAV<lambda_f6c7be5f7998530c34de24c7437d6b54>@@@Z@4HA 000000018006aece f   libucrt:close.obj
 0001:00069ece       ?fin$0@?0???$?RV<lambda_a37b2b86f63e897a80ea819b0eb08c01>@@AEAV<lambda_38ce7e780aa69e748d6df282ebc68efe>@@V<lambda_99fb1378e971ab6e7edea83e3a7a83a2>@@@?$__crt_seh_guarded_call@H@@QEAAH$$QEAV<lambda_a37b2b86f63e897a80ea819b0eb08c01>@@AEAV<lambda_38ce7e780aa69e748d6df282ebc68efe>@@$$QEAV<lambda_99fb1378e971ab6e7edea83e3a7a83a2>@@@Z@4HA 000000018006aece f   libucrt:commit.obj
 0001:00069ee8       _write$fin$0               000000018006aee8 f   libucrt:write.obj
 0001:00069ee8       ?fin$0@?0???$common_lseek@_J@@YA_JH_JH@Z@4HA 000000018006aee8 f   libucrt:lseek.obj
 0001:00069eff       __acrt_update_thread_locale_data$fin$0 000000018006aeff f   libucrt:locale_refcounting.obj
 0001:00069f18       fclose$fin$0               000000018006af18 f   libucrt:fclose.obj
 0001:00069f30       _IsNonwritableInCurrentImage$filt$0 000000018006af30 f   LIBCMT:pesect.obj
 0002:00000e70       TA_MA_TypeDataPair         000000018006be70     ta_libc_csr:ta_def_ui.obj
 0002:000013e0       TA_DEF_UI_FastADOSC_Period 000000018006c3e0     ta_libc_csr:table_a.obj
 0002:00001420       TA_DEF_UI_SlowADOSC_Period 000000018006c420     ta_libc_csr:table_a.obj
 0002:00005610       TA_DEF_UI_D_OffsetOnReverse 0000000180070610     ta_libc_csr:table_s.obj
 0002:00005650       TA_DEF_UI_D_AccelerationInitLong 0000000180070650     ta_libc_csr:table_s.obj
 0002:00005690       TA_DEF_UI_D_AccelerationLong 0000000180070690     ta_libc_csr:table_s.obj
 0002:000056d0       TA_DEF_UI_D_AccelerationMaxLong 00000001800706d0     ta_libc_csr:table_s.obj
 0002:00005710       TA_DEF_UI_D_AccelerationInitShort 0000000180070710     ta_libc_csr:table_s.obj
 0002:00005750       TA_DEF_UI_D_AccelerationShort 0000000180070750     ta_libc_csr:table_s.obj
 0002:00005790       TA_DEF_UI_D_AccelerationMaxShort 0000000180070790     ta_libc_csr:table_s.obj
 0002:00005990       TA_DEF_UI_FastK_Period     0000000180070990     ta_libc_csr:table_s.obj
 0002:000059d0       TA_DEF_UI_SlowK_Period     00000001800709d0     ta_libc_csr:table_s.obj
 0002:00005a10       TA_DEF_UI_SlowD_Period     0000000180070a10     ta_libc_csr:table_s.obj
 0002:00005b50       TA_DEF_UI_FastD_Period     0000000180070b50     ta_libc_csr:table_s.obj
 0002:00005c60       TA_DEF_AccelerationFactor  0000000180070c60     ta_libc_csr:table_s.obj
 0002:00005c90       TA_DEF_AccelerationMax     0000000180070c90     ta_libc_csr:table_s.obj
 0002:00005cc0       TA_DEF_UI_D_AccelerationFactor 0000000180070cc0     ta_libc_csr:table_s.obj
 0002:00005d00       TA_DEF_UI_D_AccelerationMaximum 0000000180070d00     ta_libc_csr:table_s.obj
 0002:00005d78       TA_DEF_AccelerationInit    0000000180070d78     ta_libc_csr:table_s.obj
 0002:00005da8       TA_DEF_SARStartValue       0000000180070da8     ta_libc_csr:table_s.obj
 0002:00005dd8       TA_DEF_SAROffsetOnReverse  0000000180070dd8     ta_libc_csr:table_s.obj
 0002:00005e10       TA_DEF_UI_D_StartValue     0000000180070e10     ta_libc_csr:table_s.obj
 0002:000067f0       TA_DEF_UI_VFactor          00000001800717f0     ta_libc_csr:table_t.obj
 0002:00007020       GS_ExceptionPointers       0000000180072020     LIBCMT:gs_report.obj
 0002:00007060       ?ExceptionTemplate@?1??_CxxThrowException@@9@4UEHExceptionRecord@@B 0000000180072060     libvcruntime:throw.obj
 0002:000070b0       ?tokenTable@@3QBQEBDB      00000001800720b0     libvcruntime:undname.obj
 0002:00007130       ?nameTable@@3QBQEBDB       0000000180072130     libvcruntime:undname.obj
 0002:000073c0       ?rttiTable@@3QBQEBDB       00000001800723c0     libvcruntime:undname.obj
 0002:00007a78       ?module_names@?A0xbfd18cd1@@3QBQEB_WB 0000000180072a78     libvcruntime:winapi_downlevel.obj
 0002:00007b48       ?candidate_modules@?1??try_get_FlsAlloc@@YAP6AKP6AXPEAX@Z@ZXZ@4QBW4module_id@?A0xbfd18cd1@@B 0000000180072b48     libvcruntime:winapi_downlevel.obj
 0002:00007b60       ?candidate_modules@?1??try_get_FlsFree@@YAP6AHK@ZXZ@4QBW4module_id@?A0xbfd18cd1@@B 0000000180072b60     libvcruntime:winapi_downlevel.obj
 0002:00007b70       ?candidate_modules@?1??try_get_FlsGetValue@@YAP6APEAXK@ZXZ@4QBW4module_id@?A0xbfd18cd1@@B 0000000180072b70     libvcruntime:winapi_downlevel.obj
 0002:00007b88       ?candidate_modules@?1??try_get_FlsSetValue@@YAP6AHKPEAX@ZXZ@4QBW4module_id@?A0xbfd18cd1@@B 0000000180072b88     libvcruntime:winapi_downlevel.obj
 0002:00007ba0       ?candidate_modules@?1??try_get_InitializeCriticalSectionEx@@YAP6AHPEAU_RTL_CRITICAL_SECTION@@KK@ZXZ@4QBW4module_id@?A0xbfd18cd1@@B 0000000180072ba0     libvcruntime:winapi_downlevel.obj
 0002:00007fd0       L_real_piby2_1             0000000180072fd0     libucrt:cos.obj
 0002:00007fe0       L_real_piby2_1tail         0000000180072fe0     libucrt:cos.obj
 0002:00007ff0       L_real_piby2_2             0000000180072ff0     libucrt:cos.obj
 0002:00008000       L_real_piby2_2tail         0000000180073000     libucrt:cos.obj
 0002:00008010       L_one                      0000000180073010     libucrt:cos.obj
 0002:00008020       L_signbit                  0000000180073020     libucrt:cos.obj
 0002:00008030       L_int_one                  0000000180073030     libucrt:cos.obj
 0002:00008040       L_int_two                  0000000180073040     libucrt:cos.obj
 0002:00008050       L_2_by_pi                  0000000180073050     libucrt:cos.obj
 0002:00008058       L_one_half                 0000000180073058     libucrt:cos.obj
 0002:00008060       L_neg_one_half             0000000180073060     libucrt:cos.obj
 0002:00008068       L_two_to_neg_27            0000000180073068     libucrt:cos.obj
 0002:00008070       L_two_to_neg_13            0000000180073070     libucrt:cos.obj
 0002:00008078       L_piby4                    0000000180073078     libucrt:cos.obj
 0002:00008080       L_small_arg_cw             0000000180073080     libucrt:cos.obj
 0002:00008088       L_small_arg_bdl            0000000180073088     libucrt:cos.obj
 0002:00008090       L_sign_mask                0000000180073090     libucrt:cos.obj
 0002:00008098       L__inf_mask_64             0000000180073098     libucrt:cos.obj
 0002:000080a0       L_2_to_32                  00000001800730a0     libucrt:cos.obj
 0002:000080b0       ?two_to_jby32_lead_table@?1??splitexp@@9@9 00000001800730b0     libucrt:cosh.obj
 0002:000081b0       ?two_to_jby32_trail_table@?1??splitexp@@9@9 00000001800731b0     libucrt:cosh.obj
 0002:000082b0       ?sinh_lead@?1??cosh@@9@9   00000001800732b0     libucrt:cosh.obj
 0002:000083e0       ?sinh_tail@?1??cosh@@9@9   00000001800733e0     libucrt:cosh.obj
 0002:00008510       ?cosh_lead@?1??cosh@@9@9   0000000180073510     libucrt:cosh.obj
 0002:00008640       ?cosh_tail@?1??cosh@@9@9   0000000180073640     libucrt:cosh.obj
 0002:00008820       __flag_x_nan               0000000180073820     libucrt:exp.obj
 0002:00008824       __flag_y_zero              0000000180073824     libucrt:exp.obj
 0002:00008828       __flag_y_inf               0000000180073828     libucrt:exp.obj
 0002:00008830       L__real_1_by_720           0000000180073830     libucrt:exp.obj
 0002:00008840       L__real_1_by_120           0000000180073840     libucrt:exp.obj
 0002:00008850       L__real_1_by_6             0000000180073850     libucrt:exp.obj
 0002:00008860       L__real_1_by_2             0000000180073860     libucrt:exp.obj
 0002:00008870       L__real_1_by_24            0000000180073870     libucrt:exp.obj
 0002:00008880       L__log2_by_64_mtail_mhead  0000000180073880     libucrt:exp.obj
 0002:00008890       L__ln_of_smallest_normal   0000000180073890     libucrt:exp.obj
 0002:00008898       L__zero                    0000000180073898     libucrt:exp.obj
 0002:000088a0       L__max_exp_arg             00000001800738a0     libucrt:exp.obj
 0002:000088a8       L__denormal_tiny_threshold 00000001800738a8     libucrt:exp.obj
 0002:000088b0       L__min_exp_arg             00000001800738b0     libucrt:exp.obj
 0002:000088b8       L__real_64_by_log2         00000001800738b8     libucrt:exp.obj
 0002:000088c0       L__positive_infinity       00000001800738c0     libucrt:exp.obj
 0002:000088c8       L__negative_infinity       00000001800738c8     libucrt:exp.obj
 0002:000088d0       L__real_qnanbit            00000001800738d0     libucrt:exp.obj
 0002:000088d8       L__real_x_near0_threshold  00000001800738d8     libucrt:exp.obj
 0002:000088e0       L__log2_by_64_mhead        00000001800738e0     libucrt:exp.obj
 0002:000088e8       L__log2_by_64_mtail        00000001800738e8     libucrt:exp.obj
 0002:000088f0       L__real_smallest_denormal  00000001800738f0     libucrt:exp.obj
 0002:000088f8       L__real_one                00000001800738f8     libucrt:exp.obj
 0002:00008900       L__2_to_neg_26             0000000180073900     libucrt:exp.obj
 0002:00008908       L__2_to_32                 0000000180073908     libucrt:exp.obj
 0002:00008910       L__min_normal              0000000180073910     libucrt:exp.obj
 0002:00008918       L__2_to_neg_63             0000000180073918     libucrt:exp.obj
 0002:00008920       L_real_piby2_1             0000000180073920     libucrt:sin.obj
 0002:00008930       L_real_piby2_1tail         0000000180073930     libucrt:sin.obj
 0002:00008940       L_real_piby2_2             0000000180073940     libucrt:sin.obj
 0002:00008950       L_real_piby2_2tail         0000000180073950     libucrt:sin.obj
 0002:00008960       L_one                      0000000180073960     libucrt:sin.obj
 0002:00008970       L_signbit                  0000000180073970     libucrt:sin.obj
 0002:00008980       L_int_one                  0000000180073980     libucrt:sin.obj
 0002:00008990       L_int_two                  0000000180073990     libucrt:sin.obj
 0002:000089a0       L_int_three                00000001800739a0     libucrt:sin.obj
 0002:000089b0       L_2_by_pi                  00000001800739b0     libucrt:sin.obj
 0002:000089b8       L_one_half                 00000001800739b8     libucrt:sin.obj
 0002:000089c0       L_one_sixth                00000001800739c0     libucrt:sin.obj
 0002:000089c8       L_two_to_neg_27            00000001800739c8     libucrt:sin.obj
 0002:000089d0       L_two_to_neg_13            00000001800739d0     libucrt:sin.obj
 0002:000089d8       L_piby4                    00000001800739d8     libucrt:sin.obj
 0002:000089e0       L_small_arg_cw             00000001800739e0     libucrt:sin.obj
 0002:000089e8       L_small_arg_bdl            00000001800739e8     libucrt:sin.obj
 0002:000089f0       L__inf_mask_64             00000001800739f0     libucrt:sin.obj
 0002:000089f8       L_near_one                 00000001800739f8     libucrt:sin.obj
 0002:00008a00       __real_ninf                0000000180073a00     libucrt:log.obj
 0002:00008a10       __real_inf                 0000000180073a10     libucrt:log.obj
 0002:00008a20       __real_neg_qnan            0000000180073a20     libucrt:log.obj
 0002:00008a30       __real_qnanbit             0000000180073a30     libucrt:log.obj
 0002:00008a40       __real_min_norm            0000000180073a40     libucrt:log.obj
 0002:00008a50       __real_mant                0000000180073a50     libucrt:log.obj
 0002:00008a60       __mask_1023                0000000180073a60     libucrt:log.obj
 0002:00008a70       __mask_001                 0000000180073a70     libucrt:log.obj
 0002:00008a80       __mask_mant_all8           0000000180073a80     libucrt:log.obj
 0002:00008a90       __mask_mant9               0000000180073a90     libucrt:log.obj
 0002:00008aa0       __real_two                 0000000180073aa0     libucrt:log.obj
 0002:00008ab0       __real_one                 0000000180073ab0     libucrt:log.obj
 0002:00008ac0       __real_near_one_lt         0000000180073ac0     libucrt:log.obj
 0002:00008ad0       __real_near_one_gt         0000000180073ad0     libucrt:log.obj
 0002:00008ae0       __real_half                0000000180073ae0     libucrt:log.obj
 0002:00008af0       __mask_100                 0000000180073af0     libucrt:log.obj
 0002:00008b00       __real_1_over_512          0000000180073b00     libucrt:log.obj
 0002:00008b10       __real_1_over_2            0000000180073b10     libucrt:log.obj
 0002:00008b20       __real_1_over_3            0000000180073b20     libucrt:log.obj
 0002:00008b30       __real_1_over_4            0000000180073b30     libucrt:log.obj
 0002:00008b40       __real_1_over_5            0000000180073b40     libucrt:log.obj
 0002:00008b50       __real_1_over_6            0000000180073b50     libucrt:log.obj
 0002:00008b60       __mask_1023_f              0000000180073b60     libucrt:log.obj
 0002:00008b70       __mask_2045                0000000180073b70     libucrt:log.obj
 0002:00008b80       __real_threshold           0000000180073b80     libucrt:log.obj
 0002:00008b90       __real_notsign             0000000180073b90     libucrt:log.obj
 0002:00008ba0       __real_ca1                 0000000180073ba0     libucrt:log.obj
 0002:00008bb0       __real_ca2                 0000000180073bb0     libucrt:log.obj
 0002:00008bc0       __real_ca3                 0000000180073bc0     libucrt:log.obj
 0002:00008bd0       __real_ca4                 0000000180073bd0     libucrt:log.obj
 0002:00008be0       __real_log2_lead           0000000180073be0     libucrt:log.obj
 0002:00008bf0       __real_log2_tail           0000000180073bf0     libucrt:log.obj
 0002:00008c00       __flag_x_zero              0000000180073c00     libucrt:log.obj
 0002:00008c04       __flag_x_neg               0000000180073c04     libucrt:log.obj
 0002:00008c08       __flag_x_nan               0000000180073c08     libucrt:log.obj
 0002:00008c10       __real_ninf                0000000180073c10     libucrt:log10.obj
 0002:00008c20       __real_inf                 0000000180073c20     libucrt:log10.obj
 0002:00008c30       __real_neg_qnan            0000000180073c30     libucrt:log10.obj
 0002:00008c40       __real_qnanbit             0000000180073c40     libucrt:log10.obj
 0002:00008c50       __int_1023                 0000000180073c50     libucrt:log10.obj
 0002:00008c60       __mask_001                 0000000180073c60     libucrt:log10.obj
 0002:00008c70       __mask_mant                0000000180073c70     libucrt:log10.obj
 0002:00008c80       __mask_mant_top8           0000000180073c80     libucrt:log10.obj
 0002:00008c90       __mask_mant9               0000000180073c90     libucrt:log10.obj
 0002:00008ca0       __real_log10_e             0000000180073ca0     libucrt:log10.obj
 0002:00008cb0       __real_log10_e_lead        0000000180073cb0     libucrt:log10.obj
 0002:00008cc0       __real_log10_e_tail        0000000180073cc0     libucrt:log10.obj
 0002:00008cd0       __real_log10_2_lead        0000000180073cd0     libucrt:log10.obj
 0002:00008ce0       __real_log10_2_tail        0000000180073ce0     libucrt:log10.obj
 0002:00008cf0       __real_two                 0000000180073cf0     libucrt:log10.obj
 0002:00008d00       __real_one                 0000000180073d00     libucrt:log10.obj
 0002:00008d10       __real_half                0000000180073d10     libucrt:log10.obj
 0002:00008d20       __mask_100                 0000000180073d20     libucrt:log10.obj
 0002:00008d30       __real_1_over_512          0000000180073d30     libucrt:log10.obj
 0002:00008d40       __real_1_over_2            0000000180073d40     libucrt:log10.obj
 0002:00008d50       __real_1_over_3            0000000180073d50     libucrt:log10.obj
 0002:00008d60       __real_1_over_4            0000000180073d60     libucrt:log10.obj
 0002:00008d70       __real_1_over_5            0000000180073d70     libucrt:log10.obj
 0002:00008d80       __real_1_over_6            0000000180073d80     libucrt:log10.obj
 0002:00008d90       __real_neg_1023            0000000180073d90     libucrt:log10.obj
 0002:00008da0       __mask_2045                0000000180073da0     libucrt:log10.obj
 0002:00008db0       __real_threshold           0000000180073db0     libucrt:log10.obj
 0002:00008dc0       __real_near_one_lt         0000000180073dc0     libucrt:log10.obj
 0002:00008dd0       __real_near_one_gt         0000000180073dd0     libucrt:log10.obj
 0002:00008de0       __real_min_norm            0000000180073de0     libucrt:log10.obj
 0002:00008df0       __real_notsign             0000000180073df0     libucrt:log10.obj
 0002:00008e00       __real_ca1                 0000000180073e00     libucrt:log10.obj
 0002:00008e10       __real_ca2                 0000000180073e10     libucrt:log10.obj
 0002:00008e20       __real_ca3                 0000000180073e20     libucrt:log10.obj
 0002:00008e30       __real_ca4                 0000000180073e30     libucrt:log10.obj
 0002:00008e40       __mask_lower               0000000180073e40     libucrt:log10.obj
 0002:00008e50       __flag_x_zero              0000000180073e50     libucrt:log10.obj
 0002:00008e54       __flag_x_neg               0000000180073e54     libucrt:log10.obj
 0002:00008e58       __flag_x_nan               0000000180073e58     libucrt:log10.obj
 0002:00008e60       ?two_to_jby32_lead_table@?1??splitexp@@9@9 0000000180073e60     libucrt:sinh.obj
 0002:00008f60       ?two_to_jby32_trail_table@?1??splitexp@@9@9 0000000180073f60     libucrt:sinh.obj
 0002:00009060       ?sinh_lead@?1??sinh@@9@9   0000000180074060     libucrt:sinh.obj
 0002:00009190       ?sinh_tail@?1??sinh@@9@9   0000000180074190     libucrt:sinh.obj
 0002:000092c0       ?cosh_lead@?1??sinh@@9@9   00000001800742c0     libucrt:sinh.obj
 0002:000093f0       ?cosh_tail@?1??sinh@@9@9   00000001800743f0     libucrt:sinh.obj
 0002:00009530       L_signbit                  0000000180074530     libucrt:tan.obj
 0002:00009540       L_sign_mask                0000000180074540     libucrt:tan.obj
 0002:00009550       L_int_one                  0000000180074550     libucrt:tan.obj
 0002:00009560       L_twobypi                  0000000180074560     libucrt:tan.obj
 0002:00009570       L_point_333                0000000180074570     libucrt:tan.obj
 0002:00009580       L_tan_p0                   0000000180074580     libucrt:tan.obj
 0002:00009590       L_tan_p2                   0000000180074590     libucrt:tan.obj
 0002:000095a0       L_tan_p4                   00000001800745a0     libucrt:tan.obj
 0002:000095b0       L_tan_q0                   00000001800745b0     libucrt:tan.obj
 0002:000095c0       L_tan_q2                   00000001800745c0     libucrt:tan.obj
 0002:000095d0       L_tan_q4                   00000001800745d0     libucrt:tan.obj
 0002:000095e0       L_tan_q6                   00000001800745e0     libucrt:tan.obj
 0002:000095f0       L_half_mask                00000001800745f0     libucrt:tan.obj
 0002:00009600       L_piby4_lead               0000000180074600     libucrt:tan.obj
 0002:00009610       L_piby4_tail               0000000180074610     libucrt:tan.obj
 0002:00009620       L_piby2_1                  0000000180074620     libucrt:tan.obj
 0002:00009628       L_piby2_1tail              0000000180074628     libucrt:tan.obj
 0002:00009630       L_piby2_2                  0000000180074630     libucrt:tan.obj
 0002:00009638       L_piby2_2tail              0000000180074638     libucrt:tan.obj
 0002:00009640       L_piby2_3                  0000000180074640     libucrt:tan.obj
 0002:00009648       L_piby2_3tail              0000000180074648     libucrt:tan.obj
 0002:00009650       L_two_to_neg_27            0000000180074650     libucrt:tan.obj
 0002:00009658       L_two_to_neg_13            0000000180074658     libucrt:tan.obj
 0002:00009660       L_inf_mask_64              0000000180074660     libucrt:tan.obj
 0002:00009668       L_point_five               0000000180074668     libucrt:tan.obj
 0002:00009670       L_point_68                 0000000180074670     libucrt:tan.obj
 0002:00009678       L_n_point_68               0000000180074678     libucrt:tan.obj
 0002:00009680       L_zero                     0000000180074680     libucrt:tan.obj
 0002:00009688       L_one                      0000000180074688     libucrt:tan.obj
 0002:00009690       L_n_one                    0000000180074690     libucrt:tan.obj
 0002:00009698       L_two                      0000000180074698     libucrt:tan.obj
 0002:000096a0       L_near_one                 00000001800746a0     libucrt:tan.obj
 0002:000096a8       L_moderate_arg_cw          00000001800746a8     libucrt:tan.obj
 0002:000096b0       L_moderate_arg_bdl         00000001800746b0     libucrt:tan.obj
 0002:000096c0       ?two_to_jby32_lead_table@?1??splitexp@@9@9 00000001800746c0     libucrt:tanh.obj
 0002:000097c0       ?two_to_jby32_trail_table@?1??splitexp@@9@9 00000001800747c0     libucrt:tanh.obj
 0002:00009a50       __acrt_initializers        0000000180074a50     libucrt:initialization.obj
 0002:00009bd0       ?errtable@@3QBUerrentry@?A0x31fdb9ec@@B 0000000180074bd0     libucrt:errno.obj
 0002:0000ac90       L__piby2_part3_piby2_lead  0000000180075c90     libucrt:remainder_piby2_forasm.obj
 0002:0000aca0       L__piby2_part1             0000000180075ca0     libucrt:remainder_piby2_forasm.obj
 0002:0000acb0       L__piby2_part2             0000000180075cb0     libucrt:remainder_piby2_forasm.obj
 0002:0000acc0       L_piby2_1                  0000000180075cc0     libucrt:remainder_piby2_forasm.obj
 0002:0000acd0       L_piby2_2                  0000000180075cd0     libucrt:remainder_piby2_forasm.obj
 0002:0000ace0       L_piby2_3                  0000000180075ce0     libucrt:remainder_piby2_forasm.obj
 0002:0000acf0       L_piby2_1tail              0000000180075cf0     libucrt:remainder_piby2_forasm.obj
 0002:0000ad00       L_piby2_2tail              0000000180075d00     libucrt:remainder_piby2_forasm.obj
 0002:0000ad10       L_piby2_3tail              0000000180075d10     libucrt:remainder_piby2_forasm.obj
 0002:0000ad20       L_twobypi                  0000000180075d20     libucrt:remainder_piby2_forasm.obj
 0002:0000ad30       L_point_five               0000000180075d30     libucrt:remainder_piby2_forasm.obj
 0002:0000ad40       L_int_three                0000000180075d40     libucrt:remainder_piby2_forasm.obj
 0002:0000ad50       L_inf_mask_64              0000000180075d50     libucrt:remainder_piby2_forasm.obj
 0002:0000ad60       L_signbit                  0000000180075d60     libucrt:remainder_piby2_forasm.obj
 0002:0000ad70       L_int_1                    0000000180075d70     libucrt:remainder_piby2_forasm.obj
 0002:0000ad80       L_int_15                   0000000180075d80     libucrt:remainder_piby2_forasm.obj
 0002:0000ad88       L_int_48                   0000000180075d88     libucrt:remainder_piby2_forasm.obj
 0002:0000ad90       L_3pio4                    0000000180075d90     libucrt:remainder_piby2_forasm.obj
 0002:0000ad98       L_5pio4                    0000000180075d98     libucrt:remainder_piby2_forasm.obj
 0002:0000ada0       L_7pio4                    0000000180075da0     libucrt:remainder_piby2_forasm.obj
 0002:0000ada8       L_9pio4                    0000000180075da8     libucrt:remainder_piby2_forasm.obj
 0002:0000adb0       L__2_by_pi_bits            0000000180075db0     libucrt:remainder_piby2_forasm.obj
 0002:0000ae50       L_piby2_lead               0000000180075e50     libucrt:remainder_piby2_forfma3.obj
 0002:0000ae60       L_fff800                   0000000180075e60     libucrt:remainder_piby2_forfma3.obj
 0002:0000ae70       L_piby2_part1              0000000180075e70     libucrt:remainder_piby2_forfma3.obj
 0002:0000ae80       L_piby2_part2              0000000180075e80     libucrt:remainder_piby2_forfma3.obj
 0002:0000ae90       L_piby2_part3              0000000180075e90     libucrt:remainder_piby2_forfma3.obj
 0002:0000aea0       L_piby2_1                  0000000180075ea0     libucrt:remainder_piby2_forfma3.obj
 0002:0000aeb0       L_piby2_2                  0000000180075eb0     libucrt:remainder_piby2_forfma3.obj
 0002:0000aec0       L_piby2_3                  0000000180075ec0     libucrt:remainder_piby2_forfma3.obj
 0002:0000aed0       L_piby2_1tail              0000000180075ed0     libucrt:remainder_piby2_forfma3.obj
 0002:0000aee0       L_piby2_2tail              0000000180075ee0     libucrt:remainder_piby2_forfma3.obj
 0002:0000aef0       L_piby2_3tail              0000000180075ef0     libucrt:remainder_piby2_forfma3.obj
 0002:0000af00       L_sign_mask                0000000180075f00     libucrt:remainder_piby2_forfma3.obj
 0002:0000af10       L_twobypi                  0000000180075f10     libucrt:remainder_piby2_forfma3.obj
 0002:0000af20       L_point_five               0000000180075f20     libucrt:remainder_piby2_forfma3.obj
 0002:0000af30       L_int_three                0000000180075f30     libucrt:remainder_piby2_forfma3.obj
 0002:0000af40       L_inf_mask_64              0000000180075f40     libucrt:remainder_piby2_forfma3.obj
 0002:0000af50       L_signbit                  0000000180075f50     libucrt:remainder_piby2_forfma3.obj
 0002:0000af60       L_r                        0000000180075f60     libucrt:remainder_piby2_forfma3.obj
 0002:0000af70       L_xc1                      0000000180075f70     libucrt:remainder_piby2_forfma3.obj
 0002:0000af80       L_xc2                      0000000180075f80     libucrt:remainder_piby2_forfma3.obj
 0002:0000af90       L_xc3                      0000000180075f90     libucrt:remainder_piby2_forfma3.obj
 0002:0000afa0       L_sigma                    0000000180075fa0     libucrt:remainder_piby2_forfma3.obj
 0002:0000de28       ?_mb_locale_names@@3QBQEB_WB 0000000180078e28     libucrt:mbctype.obj
 0002:0000de90       ?module_names@?A0x391cf84c@@3QBQEB_WB 0000000180078e90     libucrt:winapi_thunks.obj
 0002:0000e438       ?candidate_modules@?1??try_get_AreFileApisANSI@@YAP6AHXZXZ@4QBW4module_id@?A0x391cf84c@@B 0000000180079438     libucrt:winapi_thunks.obj
 0002:0000e450       ?candidate_modules@?1??try_get_FlsAlloc@@YAP6AKP6AXPEAX@Z@ZXZ@4QBW4module_id@?A0x391cf84c@@B 0000000180079450     libucrt:winapi_thunks.obj
 0002:0000e468       ?candidate_modules@?1??try_get_FlsFree@@YAP6AHK@ZXZ@4QBW4module_id@?A0x391cf84c@@B 0000000180079468     libucrt:winapi_thunks.obj
 0002:0000e478       ?candidate_modules@?1??try_get_FlsGetValue@@YAP6APEAXK@ZXZ@4QBW4module_id@?A0x391cf84c@@B 0000000180079478     libucrt:winapi_thunks.obj
 0002:0000e490       ?candidate_modules@?1??try_get_FlsSetValue@@YAP6AHKPEAX@ZXZ@4QBW4module_id@?A0x391cf84c@@B 0000000180079490     libucrt:winapi_thunks.obj
 0002:0000e4a8       ?candidate_modules@?1??try_get_GetActiveWindow@@YAP6APEAUHWND__@@XZXZ@4QBW4module_id@?A0x391cf84c@@B 00000001800794a8     libucrt:winapi_thunks.obj
 0002:0000e4c0       ?candidate_modules@?1??try_get_GetLastActivePopup@@YAP6APEAUHWND__@@PEAU2@@ZXZ@4QBW4module_id@?A0x391cf84c@@B 00000001800794c0     libucrt:winapi_thunks.obj
 0002:0000e4e0       ?candidate_modules@?1??try_get_GetProcessWindowStation@@YAP6APEAUHWINSTA__@@XZXZ@4QBW4module_id@?A0x391cf84c@@B 00000001800794e0     libucrt:winapi_thunks.obj
 0002:0000e500       ?candidate_modules@?1??try_get_GetUserObjectInformationW@@YAP6AHPEAXH0KPEAK@ZXZ@4QBW4module_id@?A0x391cf84c@@B 0000000180079500     libucrt:winapi_thunks.obj
 0002:0000e528       ?candidate_modules@?1??try_get_InitializeCriticalSectionEx@@YAP6AHPEAU_RTL_CRITICAL_SECTION@@KK@ZXZ@4QBW4module_id@?A0x391cf84c@@B 0000000180079528     libucrt:winapi_thunks.obj
 0002:0000e550       ?candidate_modules@?1??try_get_LCMapStringEx@@YAP6AHPEB_WK0HPEA_WHPEAU_nlsversioninfo@@PEAX_J@ZXZ@4QBW4module_id@?A0x391cf84c@@B 0000000180079550     libucrt:winapi_thunks.obj
 0002:0000e568       ?candidate_modules@?1??try_get_LocaleNameToLCID@@YAP6AKPEB_WK@ZXZ@4QBW4module_id@?A0x391cf84c@@B 0000000180079568     libucrt:winapi_thunks.obj
 0002:0000e588       ?candidate_modules@?1??try_get_MessageBoxA@@YAP6AHPEAUHWND__@@PEBD1I@ZXZ@4QBW4module_id@?A0x391cf84c@@B 0000000180079588     libucrt:winapi_thunks.obj
 0002:0000e5a0       ?candidate_modules@?1??try_get_MessageBoxW@@YAP6AHPEAUHWND__@@PEB_W1I@ZXZ@4QBW4module_id@?A0x391cf84c@@B 00000001800795a0     libucrt:winapi_thunks.obj
 0002:0000e5b4       ?candidate_modules@?1??try_get_AppPolicyGetProcessTerminationMethod@@YAP6AJPEAXPEAW4AppPolicyProcessTerminationMethod@@@ZXZ@4QBW4module_id@?A0x391cf84c@@B 00000001800795b4     libucrt:winapi_thunks.obj
 0002:0000e5e0       ?candidate_modules@?1??try_get_AppPolicyGetShowDeveloperDiagnostic@@YAP6AJPEAXPEAW4AppPolicyShowDeveloperDiagnostic@@@ZXZ@4QBW4module_id@?A0x391cf84c@@B 00000001800795e0     libucrt:winapi_thunks.obj
 0002:0000e60c       ?candidate_modules@?1??try_get_AppPolicyGetWindowingModel@@YAP6AJPEAXPEAW4AppPolicyWindowingModel@@@ZXZ@4QBW4module_id@?A0x391cf84c@@B 000000018007960c     libucrt:winapi_thunks.obj
 0002:0000e690       __real@433fffffffffffff    0000000180079690     libucrt:fpsr.obj
 0002:0000e698       __real@c33fffffffffffff    0000000180079698     libucrt:fpsr.obj
 0002:0000e740       ?LcidToLocaleNameTable@?A0x881e4c05@@3QBULcidToLocaleName@1@B 0000000180079740     libucrt:lcidtoname_downlevel.obj
 0002:000101a0       ?LocaleNameToIndexTable@?A0x881e4c05@@3QBULocaleNameIndex@1@B 000000018007b1a0     libucrt:lcidtoname_downlevel.obj
 0002:00013810       $unwind$?FunctionCallbackWrapper@imp@Nan@@YAXAEBV?$FunctionCallbackInfo@VValue@v8@@@v8@@@Z 000000018007e810     talib.obj
 0002:00013824       $unwind$?write_stored_string_tchar@?$output_processor@_WV?$stream_output_adapter@_W@__crt_stdio_output@@V?$standard_base@_WV?$stream_output_adapter@_W@__crt_stdio_output@@@2@@__crt_stdio_output@@AEAA_N_W@Z 000000018007e824     libucrt:output.obj
 0002:00013824       $unwind$?GetterCallbackWrapper@imp@Nan@@YAXV?$Local@VName@v8@@@v8@@AEBV?$PropertyCallbackInfo@VValue@v8@@@4@@Z 000000018007e824     talib.obj
 0002:00013838       $unwind$?Get@Nan@@YA?AV?$MaybeLocal@VValue@v8@@@v8@@V?$Local@VObject@v8@@@3@V?$Local@VValue@v8@@@3@@Z 000000018007e838     talib.obj
 0002:00013838       $unwind$?HasOwnProperty@Nan@@YA?AV?$Maybe@_N@1@V?$Local@VObject@v8@@@v8@@V?$Local@VString@v8@@@4@@Z 000000018007e838     talib.obj
 0002:00013848       $unwind$??0AsyncResource@Nan@@QEAA@PEBDV?$Local@VObject@v8@@@v8@@@Z 000000018007e848     talib.obj
 0002:0001385c       $unwind$TA_CDLMATHOLD_FramePP 000000018007e85c     ta_libc_csr:ta_frame.obj
 0002:0001385c       $unwind$TA_CDLEVENINGDOJISTAR_FramePP 000000018007e85c     ta_libc_csr:ta_frame.obj
 0002:0001385c       $unwind$TA_WILLR_FramePP   000000018007e85c     ta_libc_csr:ta_frame.obj
 0002:0001385c       $unwind$TA_CCI_FramePP     000000018007e85c     ta_libc_csr:ta_frame.obj
 0002:0001385c       $unwind$TA_ATR_FramePP     000000018007e85c     ta_libc_csr:ta_frame.obj
 0002:0001385c       $unwind$TA_MFI_FramePP     000000018007e85c     ta_libc_csr:ta_frame.obj
 0002:0001385c       $unwind$TA_CDLABANDONEDBABY_FramePP 000000018007e85c     ta_libc_csr:ta_frame.obj
 0002:0001385c       $unwind$TA_SAR_FramePP     000000018007e85c     ta_libc_csr:ta_frame.obj
 0002:0001385c       $unwind$TA_CDLMORNINGDOJISTAR_FramePP 000000018007e85c     ta_libc_csr:ta_frame.obj
 0002:0001385c       $unwind$TA_DX_FramePP      000000018007e85c     ta_libc_csr:ta_frame.obj
 0002:0001385c       $unwind$?HandleOKCallback@ExecuteWorker@@UEAAXXZ 000000018007e85c     talib.obj
 0002:0001385c       $unwind$TA_CDLEVENINGSTAR_FramePP 000000018007e85c     ta_libc_csr:ta_frame.obj
 0002:0001385c       $unwind$TA_PLUS_DI_FramePP 000000018007e85c     ta_libc_csr:ta_frame.obj
 0002:0001385c       $unwind$TA_CDLMORNINGSTAR_FramePP 000000018007e85c     ta_libc_csr:ta_frame.obj
 0002:0001385c       $unwind$TA_MAVP_FramePP    000000018007e85c     ta_libc_csr:ta_frame.obj
 0002:0001385c       $unwind$TA_ADX_FramePP     000000018007e85c     ta_libc_csr:ta_frame.obj
 0002:0001385c       $unwind$TA_APO_FramePP     000000018007e85c     ta_libc_csr:ta_frame.obj
 0002:0001385c       $unwind$TA_PPO_FramePP     000000018007e85c     ta_libc_csr:ta_frame.obj
 0002:0001385c       $unwind$TA_NATR_FramePP    000000018007e85c     ta_libc_csr:ta_frame.obj
 0002:0001385c       $unwind$TA_MINUS_DI_FramePP 000000018007e85c     ta_libc_csr:ta_frame.obj
 0002:0001385c       $unwind$?ThrowTypeError@Nan@@YAXPEBD@Z 000000018007e85c     talib.obj
 0002:0001385c       $unwind$TA_CDLDARKCLOUDCOVER_FramePP 000000018007e85c     ta_libc_csr:ta_frame.obj
 0002:0001385c       $unwind$TA_ADXR_FramePP    000000018007e85c     ta_libc_csr:ta_frame.obj
 0002:00013864       $unwind$??0Utf8String@Nan@@QEAA@V?$Local@VValue@v8@@@v8@@@Z 000000018007e864     talib.obj
 0002:00013870       $chain$1$??0Utf8String@Nan@@QEAA@V?$Local@VValue@v8@@@v8@@@Z 000000018007e870     talib.obj
 0002:00013888       $chain$2$??0Utf8String@Nan@@QEAA@V?$Local@VValue@v8@@@v8@@@Z 000000018007e888     talib.obj
 0002:00013898       $unwind$?Call@Callback@Nan@@QEBA?AV?$Local@VValue@v8@@@v8@@HQEAV34@@Z 000000018007e898     talib.obj
 0002:000138b8       $unwind$?Call_@Callback@Nan@@AEBA?AV?$MaybeLocal@VValue@v8@@@v8@@PEAVIsolate@4@V?$Local@VObject@v8@@@4@HQEAV?$Local@VValue@v8@@@4@PEAVAsyncResource@2@@Z 000000018007e8b8     talib.obj
 0002:000138c8       $unwind$TA_MACDFIX_FramePP 000000018007e8c8     ta_libc_csr:ta_frame.obj
 0002:000138c8       $unwind$??1AsyncWorker@Nan@@UEAA@XZ 000000018007e8c8     talib.obj
 0002:000138c8       $unwind$TA_MAMA_FramePP    000000018007e8c8     ta_libc_csr:ta_frame.obj
 0002:000138c8       $unwind$TA_AROON_FramePP   000000018007e8c8     ta_libc_csr:ta_frame.obj
 0002:000138d4       $unwind$isdigit            000000018007e8d4     libucrt:_ctype.obj
 0002:000138d4       $unwind$TA_MINMAX_FramePP  000000018007e8d4     ta_libc_csr:ta_frame.obj
 0002:000138d4       $unwind$TA_MINMAXINDEX_FramePP 000000018007e8d4     ta_libc_csr:ta_frame.obj
 0002:000138d4       $unwind$?WorkComplete@AsyncWorker@Nan@@UEAAXXZ 000000018007e8d4     talib.obj
 0002:000138d4       $unwind$_mbsdec_l          000000018007e8d4     libucrt:mbsdec.obj
 0002:000138e0       $unwind$?HandleOKCallback@AsyncWorker@Nan@@MEAAXXZ 000000018007e8e0     talib.obj
 0002:000138e0       $unwind$?HandleErrorCallback@AsyncWorker@Nan@@MEAAXXZ 000000018007e8e0     talib.obj
 0002:000138ec       $unwind$_updatetlocinfoEx_nolock 000000018007e8ec     libucrt:locale_refcounting.obj
 0002:000138ec       $unwind$_fclose_nolock     000000018007e8ec     libucrt:fclose.obj
 0002:000138ec       $unwind$strncpy_s          000000018007e8ec     libucrt:strncpy_s.obj
 0002:000138ec       $unwind$??_Gbad_array_new_length@std@@UEAAPEAXI@Z 000000018007e8ec     LIBCMT:throw_bad_alloc.obj
 0002:000138ec       $unwind$?force_decimal_point@__crt_stdio_output@@YAXPEADQEAU__crt_locale_pointers@@@Z 000000018007e8ec     libucrt:output.obj
 0002:000138ec       $unwind$__acrt_FlsSetValue 000000018007e8ec     libucrt:winapi_thunks.obj
 0002:000138ec       $unwind$__acrt_uninitialize_lowio 000000018007e8ec     libucrt:ioinit.obj
 0002:000138ec       $unwind$__acrt_LocaleNameToLCID 000000018007e8ec     libucrt:winapi_thunks.obj
 0002:000138ec       $unwind$__acrt_fp_strflt_to_string 000000018007e8ec     libucrt:_fptostr.obj
 0002:000138ec       $unwind$??_GAsyncWorker@Nan@@UEAAPEAXI@Z 000000018007e8ec     talib.obj
 0002:000138ec       $unwind$??_Glength_error@std@@UEAAPEAXI@Z 000000018007e8ec     libcpmt:xthrow.obj
 0002:000138ec       $unwind$wcsncat_s          000000018007e8ec     libucrt:wcsncat_s.obj
 0002:000138ec       $unwind$__acrt_errno_map_os_error 000000018007e8ec     libucrt:errno.obj
 0002:000138ec       $unwind$_realloc_base      000000018007e8ec     libucrt:realloc_base.obj
 0002:000138ec       $unwind$??_Gexception@std@@UEAAPEAXI@Z 000000018007e8ec     libcpmt:xthrow.obj
 0002:000138ec       $unwind$_RTC_Terminate     000000018007e8ec     LIBCMT:initsect.obj
 0002:000138ec       $unwind$_initterm_e        000000018007e8ec     libucrt:initterm.obj
 0002:000138ec       $unwind$?replace_current_thread_locale_nolock@@YAXQEAU__acrt_ptd@@QEAU__crt_locale_data@@@Z 000000018007e8ec     libucrt:per_thread_data.obj
 0002:000138ec       $unwind$??_Gbad_alloc@std@@UEAAPEAXI@Z 000000018007e8ec     libcpmt:xthrow.obj
 0002:000138ec       $unwind$__vcrt_FlsSetValue 000000018007e8ec     libvcruntime:winapi_downlevel.obj
 0002:000138ec       $unwind$__acrt_stdio_allocate_buffer_nolock 000000018007e8ec     libucrt:_getbuf.obj
 0002:000138ec       $unwind$__acrt_stdio_begin_temporary_buffering_nolock 000000018007e8ec     libucrt:_sftbuf.obj
 0002:000138ec       $unwind$?DloadGetSRWLockFunctionPointers@@YAEXZ 000000018007e8ec     DelayImp:delayhlp.obj
 0002:000138ec       $unwind$??$common_initialize_environment_nolock@D@@YAHXZ 000000018007e8ec     libucrt:environment_initialization.obj
 0002:000138ec       $unwind$??_Glogic_error@std@@UEAAPEAXI@Z 000000018007e8ec     libcpmt:xthrow.obj
 0002:000138ec       $unwind$_RTC_Initialize    000000018007e8ec     LIBCMT:initsect.obj
 0002:000138ec       $unwind$__acrt_execute_uninitializers 000000018007e8ec     libucrt:shared_initialization.obj
 0002:000138ec       $unwind$_close_nolock      000000018007e8ec     libucrt:close.obj
 0002:000138ec       $unwind$__acrt_can_show_message_box 000000018007e8ec     libucrt:winapi_thunks.obj
 0002:000138f8       $unwind$__acrt_initialize_locks 000000018007e8f8     libucrt:locks.obj
 0002:000138f8       $unwind$__acrt_uninitialize_locks 000000018007e8f8     libucrt:locks.obj
 0002:000138f8       $unwind$??0length_error@std@@QEAA@AEBV01@@Z 000000018007e8f8     libcpmt:xthrow.obj
 0002:000138f8       $unwind$__acrt_get_process_end_policy 000000018007e8f8     libucrt:win_policies.obj
 0002:000138f8       $unwind$__acrt_get_developer_information_policy 000000018007e8f8     libucrt:win_policies.obj
 0002:000138f8       $unwind$__acrt_get_windowing_model_policy 000000018007e8f8     libucrt:win_policies.obj
 0002:000138f8       $unwind$__vcrt_FlsFree     000000018007e8f8     libvcruntime:winapi_downlevel.obj
 0002:000138f8       $unwind$_calloc_base       000000018007e8f8     libucrt:calloc_base.obj
 0002:000138f8       $unwind$_clearfp           000000018007e8f8     libucrt:ieee.obj
 0002:000138f8       $unwind$__vcrt_FlsAlloc    000000018007e8f8     libvcruntime:winapi_downlevel.obj
 0002:000138f8       $unwind$??2@YAPEAX_K@Z     000000018007e8f8     LIBCMT:new_scalar.obj
 0002:000138f8       $unwind$??0logic_error@std@@QEAA@AEBV01@@Z 000000018007e8f8     libcpmt:xthrow.obj
 0002:000138f8       $unwind$?DloadAcquireSectionWriteAccess@@YAXXZ 000000018007e8f8     DelayImp:delayhlp.obj
 0002:000138f8       $unwind$TA_ADXR_Lookback   000000018007e8f8     ta_libc_csr:ta_ADXR.obj
 0002:000138f8       $unwind$??0bad_alloc@std@@QEAA@AEBV01@@Z 000000018007e8f8     libcpmt:xthrow.obj
 0002:000138f8       $unwind$_callnewh          000000018007e8f8     libucrt:new_handler.obj
 0002:000138f8       $unwind$__acrt_update_multibyte_info 000000018007e8f8     libucrt:locale_update.obj
 0002:000138f8       $unwind$__acrt_update_locale_info 000000018007e8f8     libucrt:locale_update.obj
 0002:000138f8       $unwind$_malloc_base       000000018007e8f8     libucrt:malloc_base.obj
 0002:000138f8       $unwind$__std_type_info_destroy_list 000000018007e8f8     libvcruntime:std_type_info.obj
 0002:000138f8       $unwind$??0exception@std@@QEAA@AEBV01@@Z 000000018007e8f8     libcpmt:xthrow.obj
 0002:000138f8       $unwind$TA_GroupTableAlloc 000000018007e8f8     ta_libc_csr:ta_abstract.obj
 0002:000138f8       $unwind$fegetenv           000000018007e8f8     libucrt:fegetenv.obj
 0002:000138f8       $unwind$wcscat_s           000000018007e8f8     libucrt:wcscat_s.obj
 0002:000138f8       $unwind$strcpy_s           000000018007e8f8     libucrt:strcpy_s.obj
 0002:000138f8       $unwind$uninitialize_allocated_memory 000000018007e8f8     libucrt:initialization.obj
 0002:000138f8       $unwind$initialize_pointers 000000018007e8f8     libucrt:initialization.obj
 0002:000138f8       $unwind$?internal_isupper_l@@YA_NHQEAU__crt_locale_pointers@@@Z 000000018007e8f8     libucrt:tolower_toupper.obj
 0002:000138f8       $unwind$??_Gtype_info@@UEAAPEAXI@Z 000000018007e8f8     LIBCMT:std_type_info_static.obj
 0002:000138f8       $unwind$__vcrt_uninitialize_locks 000000018007e8f8     libvcruntime:locks.obj
 0002:000138f8       $unwind$__raise_securityfailure 000000018007e8f8     LIBCMT:gs_report.obj
 0002:000138f8       $unwind$?try_cor_exit_process@@YAXI@Z 000000018007e8f8     libucrt:exit.obj
 0002:000138f8       $unwind$?exit_or_terminate_process@@YAXI@Z 000000018007e8f8     libucrt:exit.obj
 0002:000138f8       $unwind$??0bad_array_new_length@std@@QEAA@AEBV01@@Z 000000018007e8f8     LIBCMT:throw_bad_alloc.obj
 0002:000138f8       $unwind$__vcrt_initialize_locks 000000018007e8f8     libvcruntime:locks.obj
 0002:000138f8       $unwind$__acrt_allocate_buffer_for_argv 000000018007e8f8     libucrt:argv_parsing.obj
 0002:000138f8       $unwind$__acrt_uninitialize_winapi_thunks 000000018007e8f8     libucrt:winapi_thunks.obj
 0002:000138f8       $unwind$__std_exception_destroy 000000018007e8f8     libvcruntime:std_exception.obj
 0002:000138f8       $unwind$__scrt_release_startup_lock 000000018007e8f8     LIBCMT:utility.obj
 0002:000138f8       $unwind$__acrt_FlsAlloc    000000018007e8f8     libucrt:winapi_thunks.obj
 0002:000138f8       $unwind$__acrt_FlsFree     000000018007e8f8     libucrt:winapi_thunks.obj
 0002:000138f8       $unwind$__scrt_initialize_crt 000000018007e8f8     LIBCMT:utility.obj
 0002:000138f8       $unwind$__acrt_FlsGetValue 000000018007e8f8     libucrt:winapi_thunks.obj
 0002:000138f8       $unwind$__scrt_uninitialize_crt 000000018007e8f8     LIBCMT:utility.obj
 0002:000138f8       $unwind$??_GExecuteWorker@@UEAAPEAXI@Z 000000018007e8f8     talib.obj
 0002:000138f8       $unwind$wcscpy_s           000000018007e8f8     libucrt:wcscpy_s.obj
 0002:000138f8       $unwind$fesetenv           000000018007e8f8     libucrt:fesetenv.obj
 0002:000138f8       $unwind$__vcrt_freeptd     000000018007e8f8     libvcruntime:per_thread_data.obj
 0002:000138f8       $unwind$__acrt_AppPolicyGetProcessTerminationMethodInternal 000000018007e8f8     libucrt:winapi_thunks.obj
 0002:000138f8       $unwind$__acrt_uninitialize_stdio 000000018007e8f8     libucrt:_file.obj
 0002:000138f8       $unwind$__acrt_stdio_free_buffer_nolock 000000018007e8f8     libucrt:_freebuf.obj
 0002:000138f8       $unwind$__acrt_AppPolicyGetShowDeveloperDiagnosticInternal 000000018007e8f8     libucrt:winapi_thunks.obj
 0002:000138f8       $unwind$TA_FuncTableFree   000000018007e8f8     ta_libc_csr:ta_abstract.obj
 0002:000138f8       $unwind$__acrt_AppPolicyGetWindowingModelInternal 000000018007e8f8     libucrt:winapi_thunks.obj
 0002:000138f8       $unwind$__acrt_getptd_head 000000018007e8f8     libucrt:per_thread_data.obj
 0002:000138f8       $unwind$?AsyncExecuteComplete@Nan@@YAXPEAUuv_work_s@@@Z 000000018007e8f8     talib.obj
 0002:000138f8       $unwind$_set_statfp        000000018007e8f8     libucrt:fpctrl.obj
 0002:000138f8       $unwind$__acrt_get_parent_window 000000018007e8f8     libucrt:winapi_thunks.obj
 0002:000138f8       $unwind$feholdexcept       000000018007e8f8     libucrt:feholdexcept.obj
 0002:000138f8       $unwind$__acrt_freeptd     000000018007e8f8     libucrt:per_thread_data.obj
 0002:000138f8       $unwind$?load_exe_hook@@YAP6A_JXZIPEAUDelayLoadInfo@@@Z 000000018007e8f8     win_delay_load_hook.obj
 0002:000138f8       $unwind$_fflush_nolock     000000018007e8f8     libucrt:fflush.obj
 0002:000138f8       $unwind$__vcrt_FlsGetValue 000000018007e8f8     libvcruntime:winapi_downlevel.obj
 0002:000138f8       $unwind$TA_STOCHF_Lookback 000000018007e8f8     ta_libc_csr:ta_STOCHF.obj
 0002:000138f8       $unwind$_clrfp             000000018007e8f8     libucrt:fpctrl.obj
 0002:000138f8       $unwind$?SetUnstablePeriod@@YAXAEBV?$FunctionCallbackInfo@VValue@v8@@@Nan@@@Z 000000018007e8f8     talib.obj
 0002:000138f8       $unwind$?stream_is_at_end_of_file_nolock@@YA_NV__crt_stdio_stream@@@Z 000000018007e8f8     libucrt:_flsbuf.obj
 0002:00013900       $unwind$?SetAccessor@Nan@@YA_NV?$Local@VObject@v8@@@v8@@V?$Local@VString@v8@@@3@P6AX1AEBV?$PropertyCallbackInfo@VValue@v8@@@1@@ZP6AX1V?$Local@VValue@v8@@@3@AEBV?$PropertyCallbackInfo@X@1@@Z4W4AccessControl@3@W4PropertyAttribute@3@@Z 000000018007e900     talib.obj
 0002:00013918       $unwind$?REPORT_TA_ERROR@@YAXPEAVCallback@Nan@@W4TA_RetCode@@@Z 000000018007e918     talib.obj
 0002:0001392c       $unwind$?REPORT_INTERNAL_ERROR@@YAXPEAVCallback@Nan@@PEBD@Z 000000018007e92c     talib.obj
 0002:00013940       $unwind$?V8_TO_DOUBLE_ARRAY@@YAPEANV?$Local@VArray@v8@@@v8@@@Z 000000018007e940     talib.obj
 0002:00013950       $chain$1$?V8_TO_DOUBLE_ARRAY@@YAPEANV?$Local@VArray@v8@@@v8@@@Z 000000018007e950     talib.obj
 0002:00013968       $chain$2$?V8_TO_DOUBLE_ARRAY@@YAPEANV?$Local@VArray@v8@@@v8@@@Z 000000018007e968     talib.obj
 0002:00013978       $unwind$?generateResult@@YA?AV?$Local@VObject@v8@@@v8@@PEAUwork_object@@@Z 000000018007e978     talib.obj
 0002:00013994       $unwind$?TA_EXPLAIN_FUNCTION@@YA?AV?$Local@VValue@v8@@@v8@@PEBD@Z 000000018007e994     talib.obj
 0002:000139a8       $chain$2$?TA_EXPLAIN_FUNCTION@@YA?AV?$Local@VValue@v8@@@v8@@PEBD@Z 000000018007e9a8     talib.obj
 0002:000139c4       $chain$3$?TA_EXPLAIN_FUNCTION@@YA?AV?$Local@VValue@v8@@@v8@@PEBD@Z 000000018007e9c4     talib.obj
 0002:000139d8       $chain$4$?TA_EXPLAIN_FUNCTION@@YA?AV?$Local@VValue@v8@@@v8@@PEBD@Z 000000018007e9d8     talib.obj
 0002:000139e8       $chain$5$?TA_EXPLAIN_FUNCTION@@YA?AV?$Local@VValue@v8@@@v8@@PEBD@Z 000000018007e9e8     talib.obj
 0002:00013a00       $chain$6$?TA_EXPLAIN_FUNCTION@@YA?AV?$Local@VValue@v8@@@v8@@PEBD@Z 000000018007ea00     talib.obj
 0002:00013a14       $chain$7$?TA_EXPLAIN_FUNCTION@@YA?AV?$Local@VValue@v8@@@v8@@PEBD@Z 000000018007ea14     talib.obj
 0002:00013a24       $unwind$?Functions@@YAXV?$Local@VString@v8@@@v8@@AEBV?$PropertyCallbackInfo@VValue@v8@@@Nan@@@Z 000000018007ea24     talib.obj
 0002:00013a2c       $chain$1$?Functions@@YAXV?$Local@VString@v8@@@v8@@AEBV?$PropertyCallbackInfo@VValue@v8@@@Nan@@@Z 000000018007ea2c     talib.obj
 0002:00013a44       $chain$2$?Functions@@YAXV?$Local@VString@v8@@@v8@@AEBV?$PropertyCallbackInfo@VValue@v8@@@Nan@@@Z 000000018007ea44     talib.obj
 0002:00013a58       $chain$6$?Functions@@YAXV?$Local@VString@v8@@@v8@@AEBV?$PropertyCallbackInfo@VValue@v8@@@Nan@@@Z 000000018007ea58     talib.obj
 0002:00013a78       $chain$7$?Functions@@YAXV?$Local@VString@v8@@@v8@@AEBV?$PropertyCallbackInfo@VValue@v8@@@Nan@@@Z 000000018007ea78     talib.obj
 0002:00013a88       $chain$8$?Functions@@YAXV?$Local@VString@v8@@@v8@@AEBV?$PropertyCallbackInfo@VValue@v8@@@Nan@@@Z 000000018007ea88     talib.obj
 0002:00013a98       $chain$9$?Functions@@YAXV?$Local@VString@v8@@@v8@@AEBV?$PropertyCallbackInfo@VValue@v8@@@Nan@@@Z 000000018007ea98     talib.obj
 0002:00013aa8       $unwind$?Explain@@YAXAEBV?$FunctionCallbackInfo@VValue@v8@@@Nan@@@Z 000000018007eaa8     talib.obj
 0002:00013abc       $unwind$?FunctionUnstIds@@YAXV?$Local@VString@v8@@@v8@@AEBV?$PropertyCallbackInfo@VValue@v8@@@Nan@@@Z 000000018007eabc     talib.obj
 0002:00013ad4       $chain$1$?SetUnstablePeriod@@YAXAEBV?$FunctionCallbackInfo@VValue@v8@@@Nan@@@Z 000000018007ead4     talib.obj
 0002:00013aec       $chain$2$?SetUnstablePeriod@@YAXAEBV?$FunctionCallbackInfo@VValue@v8@@@Nan@@@Z 000000018007eaec     talib.obj
 0002:00013afc       $unwind$??0length_error@std@@QEAA@PEBD@Z 000000018007eafc     libcpmt:xthrow.obj
 0002:00013afc       $unwind$??$common_xtox_s@K_W@@YAHKQEA_W_KI_N@Z 000000018007eafc     libucrt:xtoa.obj
 0002:00013afc       $unwind$TA_TYPPRICE        000000018007eafc     ta_libc_csr:ta_TYPPRICE.obj
 0002:00013afc       $unwind$?Execute@ExecuteWorker@@UEAAXXZ 000000018007eafc     talib.obj
 0002:00013afc       $unwind$?__mbrtowc_utf8@__crt_mbstring@@YA_KPEA_WPEBD_KPEAU_Mbstatet@@@Z 000000018007eafc     libucrt:mbrtowc.obj
 0002:00013afc       $unwind$TA_WCLPRICE        000000018007eafc     ta_libc_csr:ta_WCLPRICE.obj
 0002:00013b04       $chain$0$??_GExecuteWorker@@UEAAPEAXI@Z 000000018007eb04     talib.obj
 0002:00013b18       $chain$3$??_GExecuteWorker@@UEAAPEAXI@Z 000000018007eb18     talib.obj
 0002:00013b34       $chain$4$??_GExecuteWorker@@UEAAPEAXI@Z 000000018007eb34     talib.obj
 0002:00013b4c       $chain$5$??_GExecuteWorker@@UEAAPEAXI@Z 000000018007eb4c     talib.obj
 0002:00013b5c       $unwind$?Execute@@YAXAEBV?$FunctionCallbackInfo@VValue@v8@@@Nan@@@Z 000000018007eb5c     talib.obj
 0002:00013b78       $chain$1$?Execute@@YAXAEBV?$FunctionCallbackInfo@VValue@v8@@@Nan@@@Z 000000018007eb78     talib.obj
 0002:00013b90       $chain$2$?Execute@@YAXAEBV?$FunctionCallbackInfo@VValue@v8@@@Nan@@@Z 000000018007eb90     talib.obj
 0002:00013ba4       $chain$3$?Execute@@YAXAEBV?$FunctionCallbackInfo@VValue@v8@@@Nan@@@Z 000000018007eba4     talib.obj
 0002:00013bb4       $chain$4$?Execute@@YAXAEBV?$FunctionCallbackInfo@VValue@v8@@@Nan@@@Z 000000018007ebb4     talib.obj
 0002:00013bc4       $chain$5$?Execute@@YAXAEBV?$FunctionCallbackInfo@VValue@v8@@@Nan@@@Z 000000018007ebc4     talib.obj
 0002:00013be0       $unwind$?Init@@YAXV?$Local@VObject@v8@@@v8@@V?$Local@VContext@v8@@@2@@Z 000000018007ebe0     talib.obj
 0002:00013bf4       $unwind$??0?$basic_string@DU?$char_traits@D@std@@V?$allocator@D@2@@std@@QEAA@QEBD@Z 000000018007ebf4     talib.obj
 0002:00013c0c       $unwind$??$New@VFunctionTemplate@v8@@@Nan@@YA?AV?$Local@VFunctionTemplate@v8@@@v8@@P6AXAEBV?$FunctionCallbackInfo@VValue@v8@@@0@@ZV?$Local@VValue@v8@@@2@@Z 000000018007ec0c     talib.obj
 0002:00013c20       $chain$0$??$New@VFunctionTemplate@v8@@@Nan@@YA?AV?$Local@VFunctionTemplate@v8@@@v8@@P6AXAEBV?$FunctionCallbackInfo@VValue@v8@@@0@@ZV?$Local@VValue@v8@@@2@@Z 000000018007ec20     talib.obj
 0002:00013c34       $chain$1$??$New@VFunctionTemplate@v8@@@Nan@@YA?AV?$Local@VFunctionTemplate@v8@@@v8@@P6AXAEBV?$FunctionCallbackInfo@VValue@v8@@@0@@ZV?$Local@VValue@v8@@@2@@Z 000000018007ec34     talib.obj
 0002:00013c48       $chain$2$??$New@VFunctionTemplate@v8@@@Nan@@YA?AV?$Local@VFunctionTemplate@v8@@@v8@@P6AXAEBV?$FunctionCallbackInfo@VValue@v8@@@0@@ZV?$Local@VValue@v8@@@2@@Z 000000018007ec48     talib.obj
 0002:00013c58       $chain$3$??$New@VFunctionTemplate@v8@@@Nan@@YA?AV?$Local@VFunctionTemplate@v8@@@v8@@P6AXAEBV?$FunctionCallbackInfo@VValue@v8@@@0@@ZV?$Local@VValue@v8@@@2@@Z 000000018007ec58     talib.obj
 0002:00013c68       $unwind$??$?HDU?$char_traits@D@std@@V?$allocator@D@1@@std@@YA?AV?$basic_string@DU?$char_traits@D@std@@V?$allocator@D@2@@0@$$QEAV10@0@Z 000000018007ec68     talib.obj
 0002:00013c7c       $chain$1$??$?HDU?$char_traits@D@std@@V?$allocator@D@1@@std@@YA?AV?$basic_string@DU?$char_traits@D@std@@V?$allocator@D@2@@0@$$QEAV10@0@Z 000000018007ec7c     talib.obj
 0002:00013c94       $chain$2$??$?HDU?$char_traits@D@std@@V?$allocator@D@1@@std@@YA?AV?$basic_string@DU?$char_traits@D@std@@V?$allocator@D@2@@0@$$QEAV10@0@Z 000000018007ec94     talib.obj
 0002:00013ca4       $unwind$??$_Reallocate_grow_by@V<lambda_65e615be2a453ca0576c979606f46740>@@PEBD_K@?$basic_string@DU?$char_traits@D@std@@V?$allocator@D@2@@std@@QEAAAEAV01@_KV<lambda_65e615be2a453ca0576c979606f46740>@@PEBD_K@Z 000000018007eca4     talib.obj
 0002:00013cb4       $chain$3$??$_Reallocate_grow_by@V<lambda_65e615be2a453ca0576c979606f46740>@@PEBD_K@?$basic_string@DU?$char_traits@D@std@@V?$allocator@D@2@@std@@QEAAAEAV01@_KV<lambda_65e615be2a453ca0576c979606f46740>@@PEBD_K@Z 000000018007ecb4     talib.obj
 0002:00013cd4       $chain$4$??$_Reallocate_grow_by@V<lambda_65e615be2a453ca0576c979606f46740>@@PEBD_K@?$basic_string@DU?$char_traits@D@std@@V?$allocator@D@2@@std@@QEAAAEAV01@_KV<lambda_65e615be2a453ca0576c979606f46740>@@PEBD_K@Z 000000018007ecd4     talib.obj
 0002:00013ce4       $chain$5$??$_Reallocate_grow_by@V<lambda_65e615be2a453ca0576c979606f46740>@@PEBD_K@?$basic_string@DU?$char_traits@D@std@@V?$allocator@D@2@@std@@QEAAAEAV01@_KV<lambda_65e615be2a453ca0576c979606f46740>@@PEBD_K@Z 000000018007ece4     talib.obj
 0002:00013d04       $unwind$__scrt_dllmain_before_initialize_c 000000018007ed04     LIBCMT:utility.obj
 0002:00013d04       $unwind$__vcrt_thread_attach 000000018007ed04     libvcruntime:initialization.obj
 0002:00013d04       $unwind$__vcrt_uninitialize_critical 000000018007ed04     libvcruntime:initialization.obj
 0002:00013d04       $unwind$__acrt_uninitialize_ptd 000000018007ed04     libucrt:per_thread_data.obj
 0002:00013d04       $unwind$TA_MACDFIX_Lookback 000000018007ed04     ta_libc_csr:ta_MACDFIX.obj
 0002:00013d04       $unwind$__acrt_initialize_ptd 000000018007ed04     libucrt:per_thread_data.obj
 0002:00013d04       $unwind$TA_TRIX_Lookback   000000018007ed04     ta_libc_csr:ta_TRIX.obj
 0002:00013d04       $unwind$??$uninitialize_environment_internal@_W@@YAXAEAPEAPEA_W@Z 000000018007ed04     libucrt:environment_initialization.obj
 0002:00013d04       $unwind$??$uninitialize_environment_internal@D@@YAXAEAPEAPEAD@Z 000000018007ed04     libucrt:environment_initialization.obj
 0002:00013d04       $unwind$__vcrt_freefls     000000018007ed04     libvcruntime:per_thread_data.obj
 0002:00013d04       $unwind$TA_ULTOSC_Lookback 000000018007ed04     ta_libc_csr:ta_ULTOSC.obj
 0002:00013d04       $unwind$__scrt_acquire_startup_lock 000000018007ed04     LIBCMT:utility.obj
 0002:00013d04       $unwind$?__c32rtomb_utf8@__crt_mbstring@@YA_KPEAD_UPEAU_Mbstatet@@@Z 000000018007ed04     libucrt:c32rtomb.obj
 0002:00013d04       $unwind$__scrt_initialize_default_local_stdio_options 000000018007ed04     LIBCMT:default_local_stdio_options.obj
 0002:00013d04       $unwind$__acrt_release_locale_ref 000000018007ed04     libucrt:locale_refcounting.obj
 0002:00013d04       $unwind$__vcrt_uninitialize_ptd 000000018007ed04     libvcruntime:per_thread_data.obj
 0002:00013d04       $unwind$__dcrt_uninitialize_environments_nolock 000000018007ed04     libucrt:environment_initialization.obj
 0002:00013d04       $unwind$_isatty            000000018007ed04     libucrt:isatty.obj
 0002:00013d04       $unwind$__vcrt_uninitialize 000000018007ed04     libvcruntime:initialization.obj
 0002:00013d04       $unwind$__report_rangecheckfailure 000000018007ed04     LIBCMT:gs_report.obj
 0002:00013d04       $unwind$tolower            000000018007ed04     libucrt:tolower_toupper.obj
 0002:00013d04       $unwind$TA_GroupTableFree  000000018007ed04     ta_libc_csr:ta_abstract.obj
 0002:00013d04       $unwind$__acrt_uninitialize 000000018007ed04     libucrt:initialization.obj
 0002:00013d04       $unwind$__acrt_uninitialize_critical 000000018007ed04     libucrt:initialization.obj
 0002:00013d04       $unwind$__acrt_thread_attach 000000018007ed04     libucrt:initialization.obj
 0002:00013d04       $unwind$__acrt_thread_detach 000000018007ed04     libucrt:initialization.obj
 0002:00013d04       $unwind$initialize_c       000000018007ed04     libucrt:initialization.obj
 0002:00013d04       $unwind$uninitialize_environment 000000018007ed04     libucrt:initialization.obj
 0002:00013d04       $unwind$_stricmp           000000018007ed04     libucrt:stricmp.obj
 0002:00013d04       $unwind$TA_TEMA_Lookback   000000018007ed04     ta_libc_csr:ta_TEMA.obj
 0002:00013d04       $unwind$uninitialize_allocated_io_buffers 000000018007ed04     libucrt:initialization.obj
 0002:00013d04       $unwind$abort              000000018007ed04     libucrt:abort.obj
 0002:00013d04       $unwind$__acrt_initialize_heap 000000018007ed04     libucrt:heap_handle.obj
 0002:00013d04       $unwind$__acrt_AreFileApisANSI 000000018007ed04     libucrt:winapi_thunks.obj
 0002:00013d04       $unwind$__scrt_dllmain_after_initialize_c 000000018007ed04     LIBCMT:utility.obj
 0002:00013d04       $unwind$__acrt_initialize_command_line 000000018007ed04     libucrt:argv_data.obj
 0002:00013d04       $unwind$TA_Initialize      000000018007ed04     ta_libc_csr:ta_global.obj
 0002:00013d04       $unwind$_set_errno_from_matherr 000000018007ed04     libucrt:fpexcept.obj
 0002:00013d04       $unwind$__vcrt_initialize_ptd 000000018007ed04     libvcruntime:per_thread_data.obj
 0002:00013d04       $unwind$__acrt_initialize_multibyte 000000018007ed04     libucrt:mbctype.obj
 0002:00013d04       $unwind$__GSHandlerCheck   000000018007ed04     LIBCMT:gshandler.obj
 0002:00013d04       $unwind$?state_case_size@?$output_processor@_WV?$stream_output_adapter@_W@__crt_stdio_output@@V?$standard_base@_WV?$stream_output_adapter@_W@__crt_stdio_output@@@2@@__crt_stdio_output@@AEAA_NXZ 000000018007ed04     libucrt:output.obj
 0002:00013d04       $unwind$__acrt_update_thread_multibyte_data 000000018007ed04     libucrt:mbctype.obj
 0002:00013d04       $unwind$?state_case_size@?$output_processor@_WV?$string_output_adapter@_W@__crt_stdio_output@@V?$standard_base@_WV?$string_output_adapter@_W@__crt_stdio_output@@@2@@__crt_stdio_output@@AEAA_NXZ 000000018007ed04     libucrt:output.obj
 0002:00013d04       $unwind$TA_DEMA_Lookback   000000018007ed04     ta_libc_csr:ta_DEMA.obj
 0002:00013d04       $unwind$__scrt_dllmain_uninitialize_c 000000018007ed04     LIBCMT:utility.obj
 0002:00013d04       $unwind$__scrt_dllmain_uninitialize_critical 000000018007ed04     LIBCMT:utility.obj
 0002:00013d04       $unwind$__vcrt_thread_detach 000000018007ed04     libvcruntime:initialization.obj
 0002:00013d04       $unwind$_purecall          000000018007ed04     libvcruntime:purevirt.obj
 0002:00013d04       $unwind$_errno             000000018007ed04     libucrt:errno.obj
 0002:00013d04       $unwind$__doserrno         000000018007ed04     libucrt:errno.obj
 0002:00013d04       $unwind$?dllmain_crt_dispatch@@YAHQEAUHINSTANCE__@@KQEAX@Z 000000018007ed04     LIBCMT:dll_dllmain.obj
 0002:00013d04       $unwind$__scrt_dllmain_crt_thread_attach 000000018007ed04     LIBCMT:utility.obj
 0002:00013d04       $unwind$__dcrt_terminate_console_output 000000018007ed04     libucrt:initcon.obj
 0002:00013d04       $unwind$?DloadReleaseSectionWriteAccess@@YAXXZ 000000018007ed04     DelayImp:delayhlp.obj
 0002:00013d04       $unwind$_set_error_mode    000000018007ed04     libucrt:set_error_mode.obj
 0002:00013d04       $unwind$__pctype_func      000000018007ed04     libucrt:ctype.obj
 0002:00013d04       $unwind$?initialize_multibyte@@YAHXZ 000000018007ed04     libucrt:multibyte_initializer.obj
 0002:00013d04       $unwind$__scrt_dllmain_crt_thread_detach 000000018007ed04     LIBCMT:utility.obj
 0002:00013d04       $unwind$_msize_base        000000018007ed04     libucrt:msize.obj
 0002:00013d04       $unwind$_fileno            000000018007ed04     libucrt:fileno.obj
 0002:00013d04       $unwind$_invoke_watson     000000018007ed04     libucrt:invalid_parameter.obj
 0002:00013d04       $unwind$TA_MA_Lookback     000000018007ed04     ta_libc_csr:ta_MA.obj
 0002:00013d04       $unwind$__acrt_DownlevelLocaleNameToLCID 000000018007ed04     libucrt:lcidtoname_downlevel.obj
 0002:00013d04       $unwind$_statfp            000000018007ed04     libucrt:fpctrl.obj
 0002:00013d04       $unwind$?_Xlen@?$basic_string@DU?$char_traits@D@std@@V?$allocator@D@2@@std@@SAXXZ 000000018007ed04     talib.obj
 0002:00013d04       $unwind$__vcrt_initialize  000000018007ed04     libvcruntime:initialization.obj
 0002:00013d04       $unwind$_get_osfhandle     000000018007ed04     libucrt:osfinfo.obj
 0002:00013d0c       $unwind$??$_Reallocate_grow_by@V<lambda_f3a66ab6a0570788f31503db83886f49>@@_KPEBD_K@?$basic_string@DU?$char_traits@D@std@@V?$allocator@D@2@@std@@QEAAAEAV01@_KV<lambda_f3a66ab6a0570788f31503db83886f49>@@_KPEBD2@Z 000000018007ed0c     talib.obj
 0002:00013d18       $chain$2$??$_Reallocate_grow_by@V<lambda_f3a66ab6a0570788f31503db83886f49>@@_KPEBD_K@?$basic_string@DU?$char_traits@D@std@@V?$allocator@D@2@@std@@QEAAAEAV01@_KV<lambda_f3a66ab6a0570788f31503db83886f49>@@_KPEBD2@Z 000000018007ed18     talib.obj
 0002:00013d34       $chain$3$??$_Reallocate_grow_by@V<lambda_f3a66ab6a0570788f31503db83886f49>@@_KPEBD_K@?$basic_string@DU?$char_traits@D@std@@V?$allocator@D@2@@std@@QEAAAEAV01@_KV<lambda_f3a66ab6a0570788f31503db83886f49>@@_KPEBD2@Z 000000018007ed34     talib.obj
 0002:00013d44       $chain$4$??$_Reallocate_grow_by@V<lambda_f3a66ab6a0570788f31503db83886f49>@@_KPEBD_K@?$basic_string@DU?$char_traits@D@std@@V?$allocator@D@2@@std@@QEAAAEAV01@_KV<lambda_f3a66ab6a0570788f31503db83886f49>@@_KPEBD2@Z 000000018007ed44     talib.obj
 0002:00013d60       xdata                      000000018007ed60     node:node.exe
 0002:00013d68       $unwind$TA_FuncTableAlloc  000000018007ed68     ta_libc_csr:ta_abstract.obj
 0002:00013d68       $unwind$TA_TRANGE          000000018007ed68     ta_libc_csr:ta_TRANGE.obj
 0002:00013d70       $chain$0$TA_FuncTableAlloc 000000018007ed70     ta_libc_csr:ta_abstract.obj
 0002:00013d84       $chain$1$TA_FuncTableAlloc 000000018007ed84     ta_libc_csr:ta_abstract.obj
 0002:00013d98       $chain$2$TA_FuncTableAlloc 000000018007ed98     ta_libc_csr:ta_abstract.obj
 0002:00013dac       $chain$3$TA_FuncTableAlloc 000000018007edac     ta_libc_csr:ta_abstract.obj
 0002:00013dbc       $chain$4$TA_FuncTableAlloc 000000018007edbc     ta_libc_csr:ta_abstract.obj
 0002:00013dcc       $chain$6$TA_FuncTableAlloc 000000018007edcc     ta_libc_csr:ta_abstract.obj
 0002:00013de8       $chain$7$TA_FuncTableAlloc 000000018007ede8     ta_libc_csr:ta_abstract.obj
 0002:00013df8       $unwind$TA_GetFuncHandle   000000018007edf8     ta_libc_csr:ta_abstract.obj
 0002:00013e04       $chain$0$TA_GetFuncHandle  000000018007ee04     ta_libc_csr:ta_abstract.obj
 0002:00013e18       $chain$4$TA_GetFuncHandle  000000018007ee18     ta_libc_csr:ta_abstract.obj
 0002:00013e18       $chain$6$TA_GetFuncHandle  000000018007ee18     ta_libc_csr:ta_abstract.obj
 0002:00013e18       $chain$2$TA_GetFuncHandle  000000018007ee18     ta_libc_csr:ta_abstract.obj
 0002:00013e2c       $chain$7$TA_GetFuncHandle  000000018007ee2c     ta_libc_csr:ta_abstract.obj
 0002:00013e3c       $unwind$TA_ParamHolderAlloc 000000018007ee3c     ta_libc_csr:ta_abstract.obj
 0002:00013e48       $chain$0$TA_ParamHolderAlloc 000000018007ee48     ta_libc_csr:ta_abstract.obj
 0002:00013e5c       $chain$3$TA_ParamHolderAlloc 000000018007ee5c     ta_libc_csr:ta_abstract.obj
 0002:00013e74       $chain$6$TA_ParamHolderAlloc 000000018007ee74     ta_libc_csr:ta_abstract.obj
 0002:00013e90       $chain$7$TA_ParamHolderAlloc 000000018007ee90     ta_libc_csr:ta_abstract.obj
 0002:00013ea4       $chain$8$TA_ParamHolderAlloc 000000018007eea4     ta_libc_csr:ta_abstract.obj
 0002:00013eb8       $chain$9$TA_ParamHolderAlloc 000000018007eeb8     ta_libc_csr:ta_abstract.obj
 0002:00013ecc       $chain$10$TA_ParamHolderAlloc 000000018007eecc     ta_libc_csr:ta_abstract.obj
 0002:00013edc       $chain$11$TA_ParamHolderAlloc 000000018007eedc     ta_libc_csr:ta_abstract.obj
 0002:00013eec       $chain$12$TA_ParamHolderAlloc 000000018007eeec     ta_libc_csr:ta_abstract.obj
 0002:00013efc       $chain$14$TA_ParamHolderAlloc 000000018007eefc     ta_libc_csr:ta_abstract.obj
 0002:00013f24       $chain$15$TA_ParamHolderAlloc 000000018007ef24     ta_libc_csr:ta_abstract.obj
 0002:00013f34       $unwind$TA_MACD_Lookback   000000018007ef34     ta_libc_csr:ta_MACD.obj
 0002:00013f34       $unwind$TA_STOCHRSI_Lookback 000000018007ef34     ta_libc_csr:ta_STOCHRSI.obj
 0002:00013f34       $unwind$TA_ParamHolderFree 000000018007ef34     ta_libc_csr:ta_abstract.obj
 0002:00013f3c       $chain$0$TA_ParamHolderFree 000000018007ef3c     ta_libc_csr:ta_abstract.obj
 0002:00013f50       $chain$2$TA_ParamHolderFree 000000018007ef50     ta_libc_csr:ta_abstract.obj
 0002:00013f64       $unwind$??$type_case_integer_parse_into_buffer@I@?$output_processor@_WV?$stream_output_adapter@_W@__crt_stdio_output@@V?$standard_base@_WV?$stream_output_adapter@_W@__crt_stdio_output@@@2@@__crt_stdio_output@@AEAAXII_N@Z 000000018007ef64     libucrt:output.obj
 0002:00013f64       $unwind$??$type_case_integer_parse_into_buffer@I@?$output_processor@_WV?$string_output_adapter@_W@__crt_stdio_output@@V?$standard_base@_WV?$string_output_adapter@_W@__crt_stdio_output@@@2@@__crt_stdio_output@@AEAAXII_N@Z 000000018007ef64     libucrt:output.obj
 0002:00013f64       $unwind$??$type_case_integer_parse_into_buffer@_K@?$output_processor@_WV?$string_output_adapter@_W@__crt_stdio_output@@V?$standard_base@_WV?$string_output_adapter@_W@__crt_stdio_output@@@2@@__crt_stdio_output@@AEAAX_KI_N@Z 000000018007ef64     libucrt:output.obj
 0002:00013f64       $unwind$getGroupId         000000018007ef64     ta_libc_csr:ta_abstract.obj
 0002:00013f64       $unwind$??$type_case_integer_parse_into_buffer@_K@?$output_processor@_WV?$stream_output_adapter@_W@__crt_stdio_output@@V?$standard_base@_WV?$stream_output_adapter@_W@__crt_stdio_output@@@2@@__crt_stdio_output@@AEAAX_KI_N@Z 000000018007ef64     libucrt:output.obj
 0002:00013f64       $unwind$TA_SetInputParamPricePtr 000000018007ef64     ta_libc_csr:ta_abstract.obj
 0002:00013f6c       $unwind$TA_RestoreCandleDefaultSettings 000000018007ef6c     ta_libc_csr:ta_global.obj
 0002:00013f80       $unwind$TA_BBANDS_FramePP  000000018007ef80     ta_libc_csr:ta_frame.obj
 0002:00013f80       $unwind$TA_STOCHRSI_FramePP 000000018007ef80     ta_libc_csr:ta_frame.obj
 0002:00013f80       $unwind$TA_STOCHF_FramePP  000000018007ef80     ta_libc_csr:ta_frame.obj
 0002:00013f80       $unwind$TA_ACCBANDS_FramePP 000000018007ef80     ta_libc_csr:ta_frame.obj
 0002:00013f80       $unwind$TA_MACD_FramePP    000000018007ef80     ta_libc_csr:ta_frame.obj
 0002:00013f8c       $unwind$wctomb_s           000000018007ef8c     libucrt:wctomb.obj
 0002:00013f8c       $unwind$fflush             000000018007ef8c     libucrt:fflush.obj
 0002:00013f8c       $unwind$wcstol             000000018007ef8c     libucrt:strtox.obj
 0002:00013f8c       $unwind$TA_LN_FramePP      000000018007ef8c     ta_libc_csr:ta_frame.obj
 0002:00013f8c       $unwind$TA_HT_TRENDMODE_FramePP 000000018007ef8c     ta_libc_csr:ta_frame.obj
 0002:00013f8c       $unwind$TA_HT_TRENDLINE_FramePP 000000018007ef8c     ta_libc_csr:ta_frame.obj
 0002:00013f8c       $unwind$TA_HT_DCPHASE_FramePP 000000018007ef8c     ta_libc_csr:ta_frame.obj
 0002:00013f8c       $unwind$TA_HT_DCPERIOD_FramePP 000000018007ef8c     ta_libc_csr:ta_frame.obj
 0002:00013f8c       $unwind$TA_FLOOR_FramePP   000000018007ef8c     ta_libc_csr:ta_frame.obj
 0002:00013f8c       $unwind$TA_EXP_FramePP     000000018007ef8c     ta_libc_csr:ta_frame.obj
 0002:00013f8c       $unwind$TA_COSH_FramePP    000000018007ef8c     ta_libc_csr:ta_frame.obj
 0002:00013f8c       $unwind$TA_COS_FramePP     000000018007ef8c     ta_libc_csr:ta_frame.obj
 0002:00013f8c       $unwind$TA_CEIL_FramePP    000000018007ef8c     ta_libc_csr:ta_frame.obj
 0002:00013f8c       $unwind$_invalid_parameter_noinfo_noreturn 000000018007ef8c     libucrt:invalid_parameter.obj
 0002:00013f8c       $unwind$_invalid_parameter_noinfo 000000018007ef8c     libucrt:invalid_parameter.obj
 0002:00013f8c       $unwind$TA_ASIN_FramePP    000000018007ef8c     ta_libc_csr:ta_frame.obj
 0002:00013f8c       $unwind$TA_ATAN_FramePP    000000018007ef8c     ta_libc_csr:ta_frame.obj
 0002:00013f8c       $unwind$_itow_s            000000018007ef8c     libucrt:xtoa.obj
 0002:00013f8c       $unwind$TA_TANH_FramePP    000000018007ef8c     ta_libc_csr:ta_frame.obj
 0002:00013f8c       $unwind$TA_TAN_FramePP     000000018007ef8c     ta_libc_csr:ta_frame.obj
 0002:00013f8c       $unwind$TA_SIN_FramePP     000000018007ef8c     ta_libc_csr:ta_frame.obj
 0002:00013f8c       $unwind$TA_SINH_FramePP    000000018007ef8c     ta_libc_csr:ta_frame.obj
 0002:00013f8c       $unwind$TA_STOCH_FramePPLB 000000018007ef8c     ta_libc_csr:ta_frame.obj
 0002:00013f8c       $unwind$TA_LOG10_FramePP   000000018007ef8c     ta_libc_csr:ta_frame.obj
 0002:00013f8c       $unwind$TA_SQRT_FramePP    000000018007ef8c     ta_libc_csr:ta_frame.obj
 0002:00013f8c       $unwind$_log10_special     000000018007ef8c     libucrt:log_special.obj
 0002:00013f8c       $unwind$_log_special       000000018007ef8c     libucrt:log_special.obj
 0002:00013f8c       $unwind$TA_MACDEXT_FramePPLB 000000018007ef8c     ta_libc_csr:ta_frame.obj
 0002:00013f8c       $unwind$TA_ACOS_FramePP    000000018007ef8c     ta_libc_csr:ta_frame.obj
 0002:00013f94       $unwind$TA_CDLDOJISTAR_FramePP 000000018007ef94     ta_libc_csr:ta_frame.obj
 0002:00013f94       $unwind$TA_CDL3INSIDE_FramePP 000000018007ef94     ta_libc_csr:ta_frame.obj
 0002:00013f94       $unwind$TA_CDLDRAGONFLYDOJI_FramePP 000000018007ef94     ta_libc_csr:ta_frame.obj
 0002:00013f94       $unwind$TA_CDL3BLACKCROWS_FramePP 000000018007ef94     ta_libc_csr:ta_frame.obj
 0002:00013f94       $unwind$TA_AD_FramePP      000000018007ef94     ta_libc_csr:ta_frame.obj
 0002:00013f94       $unwind$TA_CDLLONGLEGGEDDOJI_FramePP 000000018007ef94     ta_libc_csr:ta_frame.obj
 0002:00013f94       $unwind$TA_CDLLONGLINE_FramePP 000000018007ef94     ta_libc_csr:ta_frame.obj
 0002:00013f94       $unwind$TA_CDLDOJI_FramePP 000000018007ef94     ta_libc_csr:ta_frame.obj
 0002:00013f94       $unwind$TA_CDL3LINESTRIKE_FramePP 000000018007ef94     ta_libc_csr:ta_frame.obj
 0002:00013f94       $unwind$TA_CDLENGULFING_FramePP 000000018007ef94     ta_libc_csr:ta_frame.obj
 0002:00013f94       $unwind$TA_CDLCOUNTERATTACK_FramePP 000000018007ef94     ta_libc_csr:ta_frame.obj
 0002:00013f94       $unwind$TA_CDLCONCEALBABYSWALL_FramePP 000000018007ef94     ta_libc_csr:ta_frame.obj
 0002:00013f94       $unwind$TA_CDLGAPSIDESIDEWHITE_FramePP 000000018007ef94     ta_libc_csr:ta_frame.obj
 0002:00013f94       $unwind$TA_CDLCLOSINGMARUBOZU_FramePP 000000018007ef94     ta_libc_csr:ta_frame.obj
 0002:00013f94       $unwind$TA_CDLGRAVESTONEDOJI_FramePP 000000018007ef94     ta_libc_csr:ta_frame.obj
 0002:00013f94       $unwind$TA_CDLMARUBOZU_FramePP 000000018007ef94     ta_libc_csr:ta_frame.obj
 0002:00013f94       $unwind$TA_CDLHAMMER_FramePP 000000018007ef94     ta_libc_csr:ta_frame.obj
 0002:00013f94       $unwind$TA_CDLHANGINGMAN_FramePP 000000018007ef94     ta_libc_csr:ta_frame.obj
 0002:00013f94       $unwind$TA_CDL2CROWS_FramePP 000000018007ef94     ta_libc_csr:ta_frame.obj
 0002:00013f94       $unwind$TA_CDLHARAMI_FramePP 000000018007ef94     ta_libc_csr:ta_frame.obj
 0002:00013f94       $unwind$TA_CDLMATCHINGLOW_FramePP 000000018007ef94     ta_libc_csr:ta_frame.obj
 0002:00013f94       $unwind$TA_CDL3OUTSIDE_FramePP 000000018007ef94     ta_libc_csr:ta_frame.obj
 0002:00013f94       $unwind$TA_BOP_FramePP     000000018007ef94     ta_libc_csr:ta_frame.obj
 0002:00013f94       $unwind$TA_CDLBREAKAWAY_FramePP 000000018007ef94     ta_libc_csr:ta_frame.obj
 0002:00013f94       $unwind$TA_CDL3STARSINSOUTH_FramePP 000000018007ef94     ta_libc_csr:ta_frame.obj
 0002:00013f94       $unwind$TA_CDL3WHITESOLDIERS_FramePP 000000018007ef94     ta_libc_csr:ta_frame.obj
 0002:00013f94       $unwind$TA_CDLBELTHOLD_FramePP 000000018007ef94     ta_libc_csr:ta_frame.obj
 0002:00013f94       $unwind$TA_CDLHARAMICROSS_FramePP 000000018007ef94     ta_libc_csr:ta_frame.obj
 0002:00013f94       $unwind$TA_CDLHIGHWAVE_FramePP 000000018007ef94     ta_libc_csr:ta_frame.obj
 0002:00013f94       $unwind$TA_CDLHIKKAKE_FramePP 000000018007ef94     ta_libc_csr:ta_frame.obj
 0002:00013f94       $unwind$TA_CDLHIKKAKEMOD_FramePP 000000018007ef94     ta_libc_csr:ta_frame.obj
 0002:00013f94       $unwind$TA_CDLXSIDEGAP3METHODS_FramePP 000000018007ef94     ta_libc_csr:ta_frame.obj
 0002:00013f94       $unwind$TA_CDLUPSIDEGAP2CROWS_FramePP 000000018007ef94     ta_libc_csr:ta_frame.obj
 0002:00013f94       $unwind$TA_CDLUNIQUE3RIVER_FramePP 000000018007ef94     ta_libc_csr:ta_frame.obj
 0002:00013f94       $unwind$TA_CDLHOMINGPIGEON_FramePP 000000018007ef94     ta_libc_csr:ta_frame.obj
 0002:00013f94       $unwind$TA_CDLTRISTAR_FramePP 000000018007ef94     ta_libc_csr:ta_frame.obj
 0002:00013f94       $unwind$TA_CDLTHRUSTING_FramePP 000000018007ef94     ta_libc_csr:ta_frame.obj
 0002:00013f94       $unwind$TA_CDLTASUKIGAP_FramePP 000000018007ef94     ta_libc_csr:ta_frame.obj
 0002:00013f94       $unwind$TA_CDLTAKURI_FramePP 000000018007ef94     ta_libc_csr:ta_frame.obj
 0002:00013f94       $unwind$TA_CDLSTICKSANDWICH_FramePP 000000018007ef94     ta_libc_csr:ta_frame.obj
 0002:00013f94       $unwind$TA_CDLSTALLEDPATTERN_FramePP 000000018007ef94     ta_libc_csr:ta_frame.obj
 0002:00013f94       $unwind$TA_CDLSPINNINGTOP_FramePP 000000018007ef94     ta_libc_csr:ta_frame.obj
 0002:00013f94       $unwind$TA_CDLSHORTLINE_FramePP 000000018007ef94     ta_libc_csr:ta_frame.obj
 0002:00013f94       $unwind$TA_CDLSHOOTINGSTAR_FramePP 000000018007ef94     ta_libc_csr:ta_frame.obj
 0002:00013f94       $unwind$TA_CDLSEPARATINGLINES_FramePP 000000018007ef94     ta_libc_csr:ta_frame.obj
 0002:00013f94       $unwind$TA_CDLRISEFALL3METHODS_FramePP 000000018007ef94     ta_libc_csr:ta_frame.obj
 0002:00013f94       $unwind$TA_CDLRICKSHAWMAN_FramePP 000000018007ef94     ta_libc_csr:ta_frame.obj
 0002:00013f94       $unwind$TA_CDLPIERCING_FramePP 000000018007ef94     ta_libc_csr:ta_frame.obj
 0002:00013f94       $unwind$TA_CDLONNECK_FramePP 000000018007ef94     ta_libc_csr:ta_frame.obj
 0002:00013f94       $unwind$TA_CDLIDENTICAL3CROWS_FramePP 000000018007ef94     ta_libc_csr:ta_frame.obj
 0002:00013f94       $unwind$TA_CDLINNECK_FramePP 000000018007ef94     ta_libc_csr:ta_frame.obj
 0002:00013f94       $unwind$TA_CDLADVANCEBLOCK_FramePP 000000018007ef94     ta_libc_csr:ta_frame.obj
 0002:00013f94       $unwind$TA_AVGPRICE_FramePP 000000018007ef94     ta_libc_csr:ta_frame.obj
 0002:00013f94       $unwind$_sincos_special    000000018007ef94     libucrt:sincos_special.obj
 0002:00013f94       $unwind$TA_CDLINVERTEDHAMMER_FramePP 000000018007ef94     ta_libc_csr:ta_frame.obj
 0002:00013f94       $unwind$TA_CDLKICKING_FramePP 000000018007ef94     ta_libc_csr:ta_frame.obj
 0002:00013f94       $unwind$TA_CDLKICKINGBYLENGTH_FramePP 000000018007ef94     ta_libc_csr:ta_frame.obj
 0002:00013f94       $unwind$TA_CDLLADDERBOTTOM_FramePP 000000018007ef94     ta_libc_csr:ta_frame.obj
 0002:00013f9c       $unwind$TA_SUB_FramePP     000000018007ef9c     ta_libc_csr:ta_frame.obj
 0002:00013f9c       $unwind$?_Xlength_error@std@@YAXPEBD@Z 000000018007ef9c     libcpmt:xthrow.obj
 0002:00013f9c       $unwind$TA_DIV_FramePP     000000018007ef9c     ta_libc_csr:ta_frame.obj
 0002:00013f9c       $unwind$TA_TRANGE_FramePP  000000018007ef9c     ta_libc_csr:ta_frame.obj
 0002:00013f9c       $unwind$TA_VAR             000000018007ef9c     ta_libc_csr:ta_VAR.obj
 0002:00013f9c       $unwind$TA_EMA             000000018007ef9c     ta_libc_csr:ta_EMA.obj
 0002:00013f9c       $unwind$TA_MEDPRICE_FramePP 000000018007ef9c     ta_libc_csr:ta_frame.obj
 0002:00013f9c       $unwind$TA_WCLPRICE_FramePP 000000018007ef9c     ta_libc_csr:ta_frame.obj
 0002:00013f9c       $unwind$TA_ADD_FramePP     000000018007ef9c     ta_libc_csr:ta_frame.obj
 0002:00013f9c       $unwind$TA_SAREXT_FramePPLB 000000018007ef9c     ta_libc_csr:ta_frame.obj
 0002:00013f9c       $unwind$TA_MULT_FramePP    000000018007ef9c     ta_libc_csr:ta_frame.obj
 0002:00013f9c       $unwind$TA_OBV_FramePP     000000018007ef9c     ta_libc_csr:ta_frame.obj
 0002:00013f9c       $unwind$TA_TYPPRICE_FramePP 000000018007ef9c     ta_libc_csr:ta_frame.obj
 0002:00013f9c       $unwind$?__scrt_throw_std_bad_array_new_length@@YAXXZ 000000018007ef9c     LIBCMT:throw_bad_alloc.obj
 0002:00013f9c       $unwind$?__scrt_throw_std_bad_alloc@@YAXXZ 000000018007ef9c     LIBCMT:throw_bad_alloc.obj
 0002:00013f9c       $unwind$_raise_exc         000000018007ef9c     libucrt:fpexcept.obj
 0002:00013fa4       $unwind$TA_ULTOSC_FramePP  000000018007efa4     ta_libc_csr:ta_frame.obj
 0002:00013fa4       $unwind$TA_ADOSC_FramePP   000000018007efa4     ta_libc_csr:ta_frame.obj
 0002:00013fac       $unwind$TA_BETA_FramePP    000000018007efac     ta_libc_csr:ta_frame.obj
 0002:00013fac       $unwind$TA_AVGDEV_FramePP  000000018007efac     ta_libc_csr:ta_frame.obj
 0002:00013fac       $unwind$__scrt_initialize_onexit_tables 000000018007efac     LIBCMT:utility.obj
 0002:00013fac       $unwind$TA_MININDEX_FramePP 000000018007efac     ta_libc_csr:ta_frame.obj
 0002:00013fac       $unwind$TA_STDDEV_FramePP  000000018007efac     ta_libc_csr:ta_frame.obj
 0002:00013fac       $unwind$TA_MIDPOINT_FramePP 000000018007efac     ta_libc_csr:ta_frame.obj
 0002:00013fac       $unwind$__dcrt_lowio_ensure_console_output_initialized 000000018007efac     libucrt:initcon.obj
 0002:00013fac       $unwind$_isleadbyte_l      000000018007efac     libucrt:_wctype.obj
 0002:00013fac       $unwind$TA_MIDPRICE_FramePP 000000018007efac     ta_libc_csr:ta_frame.obj
 0002:00013fac       $unwind$TA_T3_FramePP      000000018007efac     ta_libc_csr:ta_frame.obj
 0002:00013fac       $unwind$TA_AROONOSC_FramePP 000000018007efac     ta_libc_csr:ta_frame.obj
 0002:00013fac       $unwind$TA_CMO_FramePP     000000018007efac     ta_libc_csr:ta_frame.obj
 0002:00013fac       $unwind$TA_CORREL_FramePP  000000018007efac     ta_libc_csr:ta_frame.obj
 0002:00013fac       $unwind$TA_TEMA_FramePP    000000018007efac     ta_libc_csr:ta_frame.obj
 0002:00013fac       $unwind$TA_DEMA_FramePP    000000018007efac     ta_libc_csr:ta_frame.obj
 0002:00013fac       $unwind$TA_WMA_FramePP     000000018007efac     ta_libc_csr:ta_frame.obj
 0002:00013fac       $unwind$TA_EMA_FramePP     000000018007efac     ta_libc_csr:ta_frame.obj
 0002:00013fac       $unwind$TA_SMA_FramePP     000000018007efac     ta_libc_csr:ta_frame.obj
 0002:00013fac       $unwind$TA_SUM_FramePP     000000018007efac     ta_libc_csr:ta_frame.obj
 0002:00013fac       $unwind$TA_HT_PHASOR_FramePP 000000018007efac     ta_libc_csr:ta_frame.obj
 0002:00013fac       $unwind$TA_HT_SINE_FramePP 000000018007efac     ta_libc_csr:ta_frame.obj
 0002:00013fac       $unwind$TA_IMI_FramePP     000000018007efac     ta_libc_csr:ta_frame.obj
 0002:00013fac       $unwind$TA_KAMA_FramePP    000000018007efac     ta_libc_csr:ta_frame.obj
 0002:00013fac       $unwind$TA_LINEARREG_FramePP 000000018007efac     ta_libc_csr:ta_frame.obj
 0002:00013fac       $unwind$TA_LINEARREG_ANGLE_FramePP 000000018007efac     ta_libc_csr:ta_frame.obj
 0002:00013fac       $unwind$TA_LINEARREG_INTERCEPT_FramePP 000000018007efac     ta_libc_csr:ta_frame.obj
 0002:00013fac       $unwind$TA_LINEARREG_SLOPE_FramePP 000000018007efac     ta_libc_csr:ta_frame.obj
 0002:00013fac       $unwind$TA_MINUS_DM_FramePP 000000018007efac     ta_libc_csr:ta_frame.obj
 0002:00013fac       $unwind$TA_RSI_FramePP     000000018007efac     ta_libc_csr:ta_frame.obj
 0002:00013fac       $unwind$TA_ROCR100_FramePP 000000018007efac     ta_libc_csr:ta_frame.obj
 0002:00013fac       $unwind$TA_MOM_FramePP     000000018007efac     ta_libc_csr:ta_frame.obj
 0002:00013fac       $unwind$TA_ROCR_FramePP    000000018007efac     ta_libc_csr:ta_frame.obj
 0002:00013fac       $unwind$TA_TRIMA_FramePP   000000018007efac     ta_libc_csr:ta_frame.obj
 0002:00013fac       $unwind$TA_ROCP_FramePP    000000018007efac     ta_libc_csr:ta_frame.obj
 0002:00013fac       $unwind$TA_ROC_FramePP     000000018007efac     ta_libc_csr:ta_frame.obj
 0002:00013fac       $unwind$TA_TRIX_FramePP    000000018007efac     ta_libc_csr:ta_frame.obj
 0002:00013fac       $unwind$TA_MA_FramePP      000000018007efac     ta_libc_csr:ta_frame.obj
 0002:00013fac       $unwind$TA_TSF_FramePP     000000018007efac     ta_libc_csr:ta_frame.obj
 0002:00013fac       $unwind$TA_MAXINDEX_FramePP 000000018007efac     ta_libc_csr:ta_frame.obj
 0002:00013fac       $unwind$TA_MAX_FramePP     000000018007efac     ta_libc_csr:ta_frame.obj
 0002:00013fac       $unwind$TA_MIN_FramePP     000000018007efac     ta_libc_csr:ta_frame.obj
 0002:00013fac       $unwind$TA_VAR_FramePP     000000018007efac     ta_libc_csr:ta_frame.obj
 0002:00013fac       $unwind$?getSystemCP@@YAHH@Z 000000018007efac     libucrt:mbctype.obj
 0002:00013fac       $unwind$TA_PLUS_DM_FramePP 000000018007efac     ta_libc_csr:ta_frame.obj
 0002:00013fb4       $unwind$TA_MACDEXT_FramePP 000000018007efb4     ta_libc_csr:ta_frame.obj
 0002:00013fb4       $unwind$TA_STOCH_FramePP   000000018007efb4     ta_libc_csr:ta_frame.obj
 0002:00013fc0       $unwind$TA_SAREXT_FramePP  000000018007efc0     ta_libc_csr:ta_frame.obj
 0002:00013fc8       $unwind$TA_ACCBANDS        000000018007efc8     ta_libc_csr:ta_ACCBANDS.obj
 0002:00013fd4       $chain$2$TA_ACCBANDS       000000018007efd4     ta_libc_csr:ta_ACCBANDS.obj
 0002:00013ff0       $chain$4$TA_ACCBANDS       000000018007eff0     ta_libc_csr:ta_ACCBANDS.obj
 0002:00014008       $chain$5$TA_ACCBANDS       000000018007f008     ta_libc_csr:ta_ACCBANDS.obj
 0002:0001401c       $chain$6$TA_ACCBANDS       000000018007f01c     ta_libc_csr:ta_ACCBANDS.obj
 0002:0001402c       $chain$7$TA_ACCBANDS       000000018007f02c     ta_libc_csr:ta_ACCBANDS.obj
 0002:0001403c       $chain$9$TA_ACCBANDS       000000018007f03c     ta_libc_csr:ta_ACCBANDS.obj
 0002:00014064       $chain$11$TA_ACCBANDS      000000018007f064     ta_libc_csr:ta_ACCBANDS.obj
 0002:0001407c       $chain$12$TA_ACCBANDS      000000018007f07c     ta_libc_csr:ta_ACCBANDS.obj
 0002:0001408c       $chain$13$TA_ACCBANDS      000000018007f08c     ta_libc_csr:ta_ACCBANDS.obj
 0002:000140a0       $chain$14$TA_ACCBANDS      000000018007f0a0     ta_libc_csr:ta_ACCBANDS.obj
 0002:000140b0       $unwind$TA_EXP             000000018007f0b0     ta_libc_csr:ta_EXP.obj
 0002:000140b0       $unwind$TA_LOG10           000000018007f0b0     ta_libc_csr:ta_LOG10.obj
 0002:000140b0       $unwind$TA_CEIL            000000018007f0b0     ta_libc_csr:ta_CEIL.obj
 0002:000140b0       $unwind$TA_LN              000000018007f0b0     ta_libc_csr:ta_LN.obj
 0002:000140b0       $unwind$TA_COSH            000000018007f0b0     ta_libc_csr:ta_COSH.obj
 0002:000140b0       $unwind$TA_TAN             000000018007f0b0     ta_libc_csr:ta_TAN.obj
 0002:000140b0       $unwind$TA_SIN             000000018007f0b0     ta_libc_csr:ta_SIN.obj
 0002:000140b0       $unwind$TA_FLOOR           000000018007f0b0     ta_libc_csr:ta_FLOOR.obj
 0002:000140b0       $unwind$TA_COS             000000018007f0b0     ta_libc_csr:ta_COS.obj
 0002:000140b0       $unwind$TA_SINH            000000018007f0b0     ta_libc_csr:ta_SINH.obj
 0002:000140b0       $unwind$TA_ASIN            000000018007f0b0     ta_libc_csr:ta_ASIN.obj
 0002:000140b0       $unwind$TA_ATAN            000000018007f0b0     ta_libc_csr:ta_ATAN.obj
 0002:000140b0       $unwind$TA_ACOS            000000018007f0b0     ta_libc_csr:ta_ACOS.obj
 0002:000140b0       $unwind$TA_TANH            000000018007f0b0     ta_libc_csr:ta_TANH.obj
 0002:000140bc       $chain$0$TA_ACOS           000000018007f0bc     ta_libc_csr:ta_ACOS.obj
 0002:000140d0       $chain$3$TA_ACOS           000000018007f0d0     ta_libc_csr:ta_ACOS.obj
 0002:000140e8       $chain$5$TA_ACOS           000000018007f0e8     ta_libc_csr:ta_ACOS.obj
 0002:00014100       $chain$6$TA_ACOS           000000018007f100     ta_libc_csr:ta_ACOS.obj
 0002:00014110       $chain$7$TA_ACOS           000000018007f110     ta_libc_csr:ta_ACOS.obj
 0002:00014120       $unwind$TA_AD              000000018007f120     ta_libc_csr:ta_AD.obj
 0002:00014120       $unwind$TA_AVGDEV          000000018007f120     ta_libc_csr:ta_AVGDEV.obj
 0002:00014120       $unwind$__acrt_initialize_fma3 000000018007f120     libucrt:fma3_available.obj
 0002:00014128       $chain$0$TA_AD             000000018007f128     ta_libc_csr:ta_AD.obj
 0002:0001413c       $chain$1$TA_AD             000000018007f13c     ta_libc_csr:ta_AD.obj
 0002:0001414c       $unwind$TA_ADD             000000018007f14c     ta_libc_csr:ta_ADD.obj
 0002:0001414c       $unwind$TA_MULT            000000018007f14c     ta_libc_csr:ta_MULT.obj
 0002:0001414c       $unwind$TA_DIV             000000018007f14c     ta_libc_csr:ta_DIV.obj
 0002:0001414c       $unwind$TA_SUB             000000018007f14c     ta_libc_csr:ta_SUB.obj
 0002:00014154       $chain$0$TA_ADD            000000018007f154     ta_libc_csr:ta_ADD.obj
 0002:00014168       $chain$3$TA_ADD            000000018007f168     ta_libc_csr:ta_ADD.obj
 0002:00014180       $chain$5$TA_ADD            000000018007f180     ta_libc_csr:ta_ADD.obj
 0002:00014198       $chain$6$TA_ADD            000000018007f198     ta_libc_csr:ta_ADD.obj
 0002:000141a8       $chain$7$TA_ADD            000000018007f1a8     ta_libc_csr:ta_ADD.obj
 0002:000141b8       $unwind$TA_ADOSC           000000018007f1b8     ta_libc_csr:ta_ADOSC.obj
 0002:000141c8       $chain$1$TA_ADOSC          000000018007f1c8     ta_libc_csr:ta_ADOSC.obj
 0002:000141e0       $chain$2$TA_ADOSC          000000018007f1e0     ta_libc_csr:ta_ADOSC.obj
 0002:000141f4       $chain$3$TA_ADOSC          000000018007f1f4     ta_libc_csr:ta_ADOSC.obj
 0002:00014208       $chain$4$TA_ADOSC          000000018007f208     ta_libc_csr:ta_ADOSC.obj
 0002:00014218       $chain$5$TA_ADOSC          000000018007f218     ta_libc_csr:ta_ADOSC.obj
 0002:00014228       $chain$15$TA_ADOSC         000000018007f228     ta_libc_csr:ta_ADOSC.obj
 0002:00014258       $chain$7$TA_ADOSC          000000018007f258     ta_libc_csr:ta_ADOSC.obj
 0002:00014278       $chain$16$TA_ADOSC         000000018007f278     ta_libc_csr:ta_ADOSC.obj
 0002:00014294       $chain$17$TA_ADOSC         000000018007f294     ta_libc_csr:ta_ADOSC.obj
 0002:000142ac       $chain$18$TA_ADOSC         000000018007f2ac     ta_libc_csr:ta_ADOSC.obj
 0002:000142bc       $unwind$TA_ADX             000000018007f2bc     ta_libc_csr:ta_ADX.obj
 0002:000142cc       $chain$0$TA_ADX            000000018007f2cc     ta_libc_csr:ta_ADX.obj
 0002:000142e0       $chain$1$TA_ADX            000000018007f2e0     ta_libc_csr:ta_ADX.obj
 0002:000142f4       $chain$2$TA_ADX            000000018007f2f4     ta_libc_csr:ta_ADX.obj
 0002:00014304       $chain$4$TA_ADX            000000018007f304     ta_libc_csr:ta_ADX.obj
 0002:0001431c       $chain$15$TA_ADX           000000018007f31c     ta_libc_csr:ta_ADX.obj
 0002:00014358       $chain$17$TA_ADX           000000018007f358     ta_libc_csr:ta_ADX.obj
 0002:0001436c       $chain$18$TA_ADX           000000018007f36c     ta_libc_csr:ta_ADX.obj
 0002:0001437c       $unwind$TA_ADXR            000000018007f37c     ta_libc_csr:ta_ADXR.obj
 0002:00014388       $chain$1$TA_ADXR           000000018007f388     ta_libc_csr:ta_ADXR.obj
 0002:000143a0       $chain$2$TA_ADXR           000000018007f3a0     ta_libc_csr:ta_ADXR.obj
 0002:000143b4       $chain$4$TA_ADXR           000000018007f3b4     ta_libc_csr:ta_ADXR.obj
 0002:000143cc       $chain$5$TA_ADXR           000000018007f3cc     ta_libc_csr:ta_ADXR.obj
 0002:000143dc       $chain$6$TA_ADXR           000000018007f3dc     ta_libc_csr:ta_ADXR.obj
 0002:000143ec       $chain$8$TA_ADXR           000000018007f3ec     ta_libc_csr:ta_ADXR.obj
 0002:00014410       $chain$9$TA_ADXR           000000018007f410     ta_libc_csr:ta_ADXR.obj
 0002:00014428       $chain$10$TA_ADXR          000000018007f428     ta_libc_csr:ta_ADXR.obj
 0002:0001443c       $chain$11$TA_ADXR          000000018007f43c     ta_libc_csr:ta_ADXR.obj
 0002:0001444c       $unwind$TA_APO             000000018007f44c     ta_libc_csr:ta_APO.obj
 0002:0001445c       $chain$0$TA_APO            000000018007f45c     ta_libc_csr:ta_APO.obj
 0002:00014470       $chain$1$TA_APO            000000018007f470     ta_libc_csr:ta_APO.obj
 0002:00014484       $chain$2$TA_APO            000000018007f484     ta_libc_csr:ta_APO.obj
 0002:00014498       $chain$3$TA_APO            000000018007f498     ta_libc_csr:ta_APO.obj
 0002:000144ac       $chain$4$TA_APO            000000018007f4ac     ta_libc_csr:ta_APO.obj
 0002:000144bc       $chain$5$TA_APO            000000018007f4bc     ta_libc_csr:ta_APO.obj
 0002:000144cc       $chain$6$TA_APO            000000018007f4cc     ta_libc_csr:ta_APO.obj
 0002:000144dc       $chain$8$TA_APO            000000018007f4dc     ta_libc_csr:ta_APO.obj
 0002:000144fc       $chain$9$TA_APO            000000018007f4fc     ta_libc_csr:ta_APO.obj
 0002:00014514       $chain$10$TA_APO           000000018007f514     ta_libc_csr:ta_APO.obj
 0002:00014528       $chain$11$TA_APO           000000018007f528     ta_libc_csr:ta_APO.obj
 0002:00014538       $unwind$TA_INT_PO          000000018007f538     ta_libc_csr:ta_APO.obj
 0002:00014550       $unwind$TA_AROON           000000018007f550     ta_libc_csr:ta_AROON.obj
 0002:00014550       $unwind$TA_AROONOSC        000000018007f550     ta_libc_csr:ta_AROONOSC.obj
 0002:0001455c       $chain$0$TA_AROON          000000018007f55c     ta_libc_csr:ta_AROON.obj
 0002:00014570       $chain$2$TA_AROON          000000018007f570     ta_libc_csr:ta_AROON.obj
 0002:00014584       $chain$9$TA_AROON          000000018007f584     ta_libc_csr:ta_AROON.obj
 0002:000145ac       $chain$11$TA_AROON         000000018007f5ac     ta_libc_csr:ta_AROON.obj
 0002:000145d4       $chain$12$TA_AROON         000000018007f5d4     ta_libc_csr:ta_AROON.obj
 0002:000145e4       $chain$5$TA_AROONOSC       000000018007f5e4     ta_libc_csr:ta_AROONOSC.obj
 0002:0001460c       $chain$7$TA_AROONOSC       000000018007f60c     ta_libc_csr:ta_AROONOSC.obj
 0002:00014634       $chain$8$TA_AROONOSC       000000018007f634     ta_libc_csr:ta_AROONOSC.obj
 0002:00014644       $chain$0$TA_ASIN           000000018007f644     ta_libc_csr:ta_ASIN.obj
 0002:00014658       $chain$3$TA_ASIN           000000018007f658     ta_libc_csr:ta_ASIN.obj
 0002:00014670       $chain$5$TA_ASIN           000000018007f670     ta_libc_csr:ta_ASIN.obj
 0002:00014688       $chain$6$TA_ASIN           000000018007f688     ta_libc_csr:ta_ASIN.obj
 0002:00014698       $chain$7$TA_ASIN           000000018007f698     ta_libc_csr:ta_ASIN.obj
 0002:000146a8       $chain$0$TA_ATAN           000000018007f6a8     ta_libc_csr:ta_ATAN.obj
 0002:000146bc       $chain$3$TA_ATAN           000000018007f6bc     ta_libc_csr:ta_ATAN.obj
 0002:000146d4       $chain$5$TA_ATAN           000000018007f6d4     ta_libc_csr:ta_ATAN.obj
 0002:000146ec       $chain$6$TA_ATAN           000000018007f6ec     ta_libc_csr:ta_ATAN.obj
 0002:000146fc       $chain$7$TA_ATAN           000000018007f6fc     ta_libc_csr:ta_ATAN.obj
 0002:0001470c       $unwind$TA_ATR             000000018007f70c     ta_libc_csr:ta_ATR.obj
 0002:0001471c       $chain$1$TA_ATR            000000018007f71c     ta_libc_csr:ta_ATR.obj
 0002:00014734       $chain$2$TA_ATR            000000018007f734     ta_libc_csr:ta_ATR.obj
 0002:00014748       $chain$3$TA_ATR            000000018007f748     ta_libc_csr:ta_ATR.obj
 0002:0001475c       $chain$4$TA_ATR            000000018007f75c     ta_libc_csr:ta_ATR.obj
 0002:0001476c       $chain$5$TA_ATR            000000018007f76c     ta_libc_csr:ta_ATR.obj
 0002:0001477c       $chain$7$TA_ATR            000000018007f77c     ta_libc_csr:ta_ATR.obj
 0002:0001479c       $chain$8$TA_ATR            000000018007f79c     ta_libc_csr:ta_ATR.obj
 0002:000147b4       $chain$9$TA_ATR            000000018007f7b4     ta_libc_csr:ta_ATR.obj
 0002:000147c8       $chain$10$TA_ATR           000000018007f7c8     ta_libc_csr:ta_ATR.obj
 0002:000147d8       $unwind$TA_AVGPRICE        000000018007f7d8     ta_libc_csr:ta_AVGPRICE.obj
 0002:000147d8       $unwind$TA_MINMAXINDEX     000000018007f7d8     ta_libc_csr:ta_MINMAXINDEX.obj
 0002:000147e0       $chain$1$TA_AVGPRICE       000000018007f7e0     ta_libc_csr:ta_AVGPRICE.obj
 0002:000147f8       $chain$4$TA_AVGPRICE       000000018007f7f8     ta_libc_csr:ta_AVGPRICE.obj
 0002:00014814       $chain$8$TA_AVGPRICE       000000018007f814     ta_libc_csr:ta_AVGPRICE.obj
 0002:00014834       $chain$9$TA_AVGPRICE       000000018007f834     ta_libc_csr:ta_AVGPRICE.obj
 0002:00014844       $chain$11$TA_AVGPRICE      000000018007f844     ta_libc_csr:ta_AVGPRICE.obj
 0002:00014858       $chain$12$TA_AVGPRICE      000000018007f858     ta_libc_csr:ta_AVGPRICE.obj
 0002:00014868       $chain$0$TA_AVGDEV         000000018007f868     ta_libc_csr:ta_AVGDEV.obj
 0002:0001487c       $chain$2$TA_AVGDEV         000000018007f87c     ta_libc_csr:ta_AVGDEV.obj
 0002:00014894       $chain$3$TA_AVGDEV         000000018007f894     ta_libc_csr:ta_AVGDEV.obj
 0002:000148a4       $chain$4$TA_AVGDEV         000000018007f8a4     ta_libc_csr:ta_AVGDEV.obj
 0002:000148b4       $unwind$TA_BBANDS          000000018007f8b4     ta_libc_csr:ta_BBANDS.obj
 0002:000148c0       $chain$2$TA_BBANDS         000000018007f8c0     ta_libc_csr:ta_BBANDS.obj
 0002:000148dc       $chain$3$TA_BBANDS         000000018007f8dc     ta_libc_csr:ta_BBANDS.obj
 0002:000148f0       $chain$4$TA_BBANDS         000000018007f8f0     ta_libc_csr:ta_BBANDS.obj
 0002:00014904       $chain$5$TA_BBANDS         000000018007f904     ta_libc_csr:ta_BBANDS.obj
 0002:00014918       $chain$7$TA_BBANDS         000000018007f918     ta_libc_csr:ta_BBANDS.obj
 0002:00014930       $chain$8$TA_BBANDS         000000018007f930     ta_libc_csr:ta_BBANDS.obj
 0002:00014944       $chain$9$TA_BBANDS         000000018007f944     ta_libc_csr:ta_BBANDS.obj
 0002:00014958       $chain$10$TA_BBANDS        000000018007f958     ta_libc_csr:ta_BBANDS.obj
 0002:00014968       $chain$11$TA_BBANDS        000000018007f968     ta_libc_csr:ta_BBANDS.obj
 0002:00014978       $chain$12$TA_BBANDS        000000018007f978     ta_libc_csr:ta_BBANDS.obj
 0002:00014988       $chain$13$TA_BBANDS        000000018007f988     ta_libc_csr:ta_BBANDS.obj
 0002:00014998       $chain$14$TA_BBANDS        000000018007f998     ta_libc_csr:ta_BBANDS.obj
 0002:000149a8       $chain$15$TA_BBANDS        000000018007f9a8     ta_libc_csr:ta_BBANDS.obj
 0002:000149b8       $chain$17$TA_BBANDS        000000018007f9b8     ta_libc_csr:ta_BBANDS.obj
 0002:000149f0       $chain$18$TA_BBANDS        000000018007f9f0     ta_libc_csr:ta_BBANDS.obj
 0002:00014a24       $chain$19$TA_BBANDS        000000018007fa24     ta_libc_csr:ta_BBANDS.obj
 0002:00014a54       $chain$20$TA_BBANDS        000000018007fa54     ta_libc_csr:ta_BBANDS.obj
 0002:00014a70       $chain$21$TA_BBANDS        000000018007fa70     ta_libc_csr:ta_BBANDS.obj
 0002:00014a88       $chain$23$TA_BBANDS        000000018007fa88     ta_libc_csr:ta_BBANDS.obj
 0002:00014a9c       $chain$24$TA_BBANDS        000000018007fa9c     ta_libc_csr:ta_BBANDS.obj
 0002:00014aac       $unwind$TA_BETA            000000018007faac     ta_libc_csr:ta_BETA.obj
 0002:00014acc       $chain$0$TA_BETA           000000018007facc     ta_libc_csr:ta_BETA.obj
 0002:00014ae0       $chain$1$TA_BETA           000000018007fae0     ta_libc_csr:ta_BETA.obj
 0002:00014ae0       $chain$13$TA_BETA          000000018007fae0     ta_libc_csr:ta_BETA.obj
 0002:00014af0       $chain$2$TA_BETA           000000018007faf0     ta_libc_csr:ta_BETA.obj
 0002:00014b04       $chain$10$TA_BETA          000000018007fb04     ta_libc_csr:ta_BETA.obj
 0002:00014b34       $chain$11$TA_BETA          000000018007fb34     ta_libc_csr:ta_BETA.obj
 0002:00014b60       $unwind$TA_BOP             000000018007fb60     ta_libc_csr:ta_BOP.obj
 0002:00014b6c       $chain$3$TA_BOP            000000018007fb6c     ta_libc_csr:ta_BOP.obj
 0002:00014b8c       $chain$5$TA_BOP            000000018007fb8c     ta_libc_csr:ta_BOP.obj
 0002:00014ba4       $chain$6$TA_BOP            000000018007fba4     ta_libc_csr:ta_BOP.obj
 0002:00014bb4       $chain$8$TA_BOP            000000018007fbb4     ta_libc_csr:ta_BOP.obj
 0002:00014bcc       $chain$9$TA_BOP            000000018007fbcc     ta_libc_csr:ta_BOP.obj
 0002:00014bdc       $unwind$TA_CCI             000000018007fbdc     ta_libc_csr:ta_CCI.obj
 0002:00014bf8       $chain$0$TA_CCI            000000018007fbf8     ta_libc_csr:ta_CCI.obj
 0002:00014c0c       $chain$1$TA_CCI            000000018007fc0c     ta_libc_csr:ta_CCI.obj
 0002:00014c20       $chain$2$TA_CCI            000000018007fc20     ta_libc_csr:ta_CCI.obj
 0002:00014c30       $chain$12$TA_CCI           000000018007fc30     ta_libc_csr:ta_CCI.obj
 0002:00014c30       $chain$3$TA_CCI            000000018007fc30     ta_libc_csr:ta_CCI.obj
 0002:00014c40       $chain$4$TA_CCI            000000018007fc40     ta_libc_csr:ta_CCI.obj
 0002:00014c58       $chain$9$TA_CCI            000000018007fc58     ta_libc_csr:ta_CCI.obj
 0002:00014c7c       $chain$10$TA_CCI           000000018007fc7c     ta_libc_csr:ta_CCI.obj
 0002:00014c8c       $chain$11$TA_CCI           000000018007fc8c     ta_libc_csr:ta_CCI.obj
 0002:00014ca0       $unwind$TA_CDL2CROWS       000000018007fca0     ta_libc_csr:ta_CDL2CROWS.obj
 0002:00014cb0       $chain$1$TA_CDL2CROWS      000000018007fcb0     ta_libc_csr:ta_CDL2CROWS.obj
 0002:00014cc8       $chain$2$TA_CDL2CROWS      000000018007fcc8     ta_libc_csr:ta_CDL2CROWS.obj
 0002:00014cdc       $chain$3$TA_CDL2CROWS      000000018007fcdc     ta_libc_csr:ta_CDL2CROWS.obj
 0002:00014cec       $chain$11$TA_CDL2CROWS     000000018007fcec     ta_libc_csr:ta_CDL2CROWS.obj
 0002:00014d20       $chain$12$TA_CDL2CROWS     000000018007fd20     ta_libc_csr:ta_CDL2CROWS.obj
 0002:00014d38       $chain$13$TA_CDL2CROWS     000000018007fd38     ta_libc_csr:ta_CDL2CROWS.obj
 0002:00014d48       $unwind$TA_CDL3BLACKCROWS  000000018007fd48     ta_libc_csr:ta_CDL3BLACKCROWS.obj
 0002:00014d64       $chain$1$TA_CDL3BLACKCROWS 000000018007fd64     ta_libc_csr:ta_CDL3BLACKCROWS.obj
 0002:00014d7c       $chain$2$TA_CDL3BLACKCROWS 000000018007fd7c     ta_libc_csr:ta_CDL3BLACKCROWS.obj
 0002:00014d90       $chain$3$TA_CDL3BLACKCROWS 000000018007fd90     ta_libc_csr:ta_CDL3BLACKCROWS.obj
 0002:00014da0       $chain$18$TA_CDL3BLACKCROWS 000000018007fda0     ta_libc_csr:ta_CDL3BLACKCROWS.obj
 0002:00014da0       $chain$4$TA_CDL3BLACKCROWS 000000018007fda0     ta_libc_csr:ta_CDL3BLACKCROWS.obj
 0002:00014db0       $chain$5$TA_CDL3BLACKCROWS 000000018007fdb0     ta_libc_csr:ta_CDL3BLACKCROWS.obj
 0002:00014dcc       $chain$9$TA_CDL3BLACKCROWS 000000018007fdcc     ta_libc_csr:ta_CDL3BLACKCROWS.obj
 0002:00014dec       $chain$15$TA_CDL3BLACKCROWS 000000018007fdec     ta_libc_csr:ta_CDL3BLACKCROWS.obj
 0002:00014e14       $chain$17$TA_CDL3BLACKCROWS 000000018007fe14     ta_libc_csr:ta_CDL3BLACKCROWS.obj
 0002:00014e2c       $unwind$TA_CDLHARAMICROSS  000000018007fe2c     ta_libc_csr:ta_CDLHARAMICROSS.obj
 0002:00014e2c       $unwind$TA_CDLUNIQUE3RIVER 000000018007fe2c     ta_libc_csr:ta_CDLUNIQUE3RIVER.obj
 0002:00014e2c       $unwind$TA_CDLDRAGONFLYDOJI 000000018007fe2c     ta_libc_csr:ta_CDLDRAGONFLYDOJI.obj
 0002:00014e2c       $unwind$TA_CDLLONGLINE     000000018007fe2c     ta_libc_csr:ta_CDLLONGLINE.obj
 0002:00014e2c       $unwind$TA_CDLHOMINGPIGEON 000000018007fe2c     ta_libc_csr:ta_CDLHOMINGPIGEON.obj
 0002:00014e2c       $unwind$TA_CDLSHORTLINE    000000018007fe2c     ta_libc_csr:ta_CDLSHORTLINE.obj
 0002:00014e2c       $unwind$TA_CDL3INSIDE      000000018007fe2c     ta_libc_csr:ta_CDL3INSIDE.obj
 0002:00014e2c       $unwind$TA_CDLHIGHWAVE     000000018007fe2c     ta_libc_csr:ta_CDLHIGHWAVE.obj
 0002:00014e2c       $unwind$TA_CDLHARAMI       000000018007fe2c     ta_libc_csr:ta_CDLHARAMI.obj
 0002:00014e2c       $unwind$TA_CDLMARUBOZU     000000018007fe2c     ta_libc_csr:ta_CDLMARUBOZU.obj
 0002:00014e3c       $chain$1$TA_CDL3INSIDE     000000018007fe3c     ta_libc_csr:ta_CDL3INSIDE.obj
 0002:00014e54       $chain$3$TA_CDL3INSIDE     000000018007fe54     ta_libc_csr:ta_CDL3INSIDE.obj
 0002:00014e6c       $chain$12$TA_CDL3INSIDE    000000018007fe6c     ta_libc_csr:ta_CDL3INSIDE.obj
 0002:00014ea0       $chain$13$TA_CDL3INSIDE    000000018007fea0     ta_libc_csr:ta_CDL3INSIDE.obj
 0002:00014eb0       $chain$14$TA_CDL3INSIDE    000000018007feb0     ta_libc_csr:ta_CDL3INSIDE.obj
 0002:00014ec0       $unwind$TA_CDL3LINESTRIKE  000000018007fec0     ta_libc_csr:ta_CDL3LINESTRIKE.obj
 0002:00014ee0       $chain$1$TA_CDL3LINESTRIKE 000000018007fee0     ta_libc_csr:ta_CDL3LINESTRIKE.obj
 0002:00014ef8       $chain$2$TA_CDL3LINESTRIKE 000000018007fef8     ta_libc_csr:ta_CDL3LINESTRIKE.obj
 0002:00014ef8       $chain$15$TA_CDL3LINESTRIKE 000000018007fef8     ta_libc_csr:ta_CDL3LINESTRIKE.obj
 0002:00014f08       $chain$3$TA_CDL3LINESTRIKE 000000018007ff08     ta_libc_csr:ta_CDL3LINESTRIKE.obj
 0002:00014f20       $chain$9$TA_CDL3LINESTRIKE 000000018007ff20     ta_libc_csr:ta_CDL3LINESTRIKE.obj
 0002:00014f48       $chain$13$TA_CDL3LINESTRIKE 000000018007ff48     ta_libc_csr:ta_CDL3LINESTRIKE.obj
 0002:00014f68       $chain$14$TA_CDL3LINESTRIKE 000000018007ff68     ta_libc_csr:ta_CDL3LINESTRIKE.obj
 0002:00014f78       $unwind$TA_CDL3OUTSIDE     000000018007ff78     ta_libc_csr:ta_CDL3OUTSIDE.obj
 0002:00014f84       $chain$1$TA_CDL3OUTSIDE    000000018007ff84     ta_libc_csr:ta_CDL3OUTSIDE.obj
 0002:00014f9c       $chain$3$TA_CDL3OUTSIDE    000000018007ff9c     ta_libc_csr:ta_CDL3OUTSIDE.obj
 0002:00014fb4       $chain$5$TA_CDL3OUTSIDE    000000018007ffb4     ta_libc_csr:ta_CDL3OUTSIDE.obj
 0002:00014fcc       $chain$7$TA_CDL3OUTSIDE    000000018007ffcc     ta_libc_csr:ta_CDL3OUTSIDE.obj
 0002:00014fe0       $chain$8$TA_CDL3OUTSIDE    000000018007ffe0     ta_libc_csr:ta_CDL3OUTSIDE.obj
 0002:00014ff0       $unwind$TA_CDL3STARSINSOUTH 000000018007fff0     ta_libc_csr:ta_CDL3STARSINSOUTH.obj
 0002:00015000       $chain$0$TA_CDL3STARSINSOUTH 0000000180080000     ta_libc_csr:ta_CDL3STARSINSOUTH.obj
 0002:00015014       $chain$13$TA_CDL3STARSINSOUTH 0000000180080014     ta_libc_csr:ta_CDL3STARSINSOUTH.obj
 0002:00015050       $chain$15$TA_CDL3STARSINSOUTH 0000000180080050     ta_libc_csr:ta_CDL3STARSINSOUTH.obj
 0002:00015068       $chain$2$TA_CDL3STARSINSOUTH 0000000180080068     ta_libc_csr:ta_CDL3STARSINSOUTH.obj
 0002:0001507c       $chain$16$TA_CDL3STARSINSOUTH 000000018008007c     ta_libc_csr:ta_CDL3STARSINSOUTH.obj
 0002:0001508c       $unwind$TA_CDL3WHITESOLDIERS 000000018008008c     ta_libc_csr:ta_CDL3WHITESOLDIERS.obj
 0002:000150b0       $chain$0$TA_CDL3WHITESOLDIERS 00000001800800b0     ta_libc_csr:ta_CDL3WHITESOLDIERS.obj
 0002:000150c4       $chain$14$TA_CDL3WHITESOLDIERS 00000001800800c4     ta_libc_csr:ta_CDL3WHITESOLDIERS.obj
 0002:000150c4       $chain$1$TA_CDL3WHITESOLDIERS 00000001800800c4     ta_libc_csr:ta_CDL3WHITESOLDIERS.obj
 0002:000150d4       $chain$2$TA_CDL3WHITESOLDIERS 00000001800800d4     ta_libc_csr:ta_CDL3WHITESOLDIERS.obj
 0002:000150e8       $chain$12$TA_CDL3WHITESOLDIERS 00000001800800e8     ta_libc_csr:ta_CDL3WHITESOLDIERS.obj
 0002:00015120       $chain$13$TA_CDL3WHITESOLDIERS 0000000180080120     ta_libc_csr:ta_CDL3WHITESOLDIERS.obj
 0002:00015130       $unwind$TA_CDLABANDONEDBABY 0000000180080130     ta_libc_csr:ta_CDLABANDONEDBABY.obj
 0002:00015140       $chain$1$TA_CDLABANDONEDBABY 0000000180080140     ta_libc_csr:ta_CDLABANDONEDBABY.obj
 0002:00015158       $chain$3$TA_CDLABANDONEDBABY 0000000180080158     ta_libc_csr:ta_CDLABANDONEDBABY.obj
 0002:00015170       $chain$4$TA_CDLABANDONEDBABY 0000000180080170     ta_libc_csr:ta_CDLABANDONEDBABY.obj
 0002:00015184       $chain$5$TA_CDLABANDONEDBABY 0000000180080184     ta_libc_csr:ta_CDLABANDONEDBABY.obj
 0002:00015194       $chain$6$TA_CDLABANDONEDBABY 0000000180080194     ta_libc_csr:ta_CDLABANDONEDBABY.obj
 0002:000151a4       $chain$8$TA_CDLABANDONEDBABY 00000001800801a4     ta_libc_csr:ta_CDLABANDONEDBABY.obj
 0002:000151c8       $chain$18$TA_CDLABANDONEDBABY 00000001800801c8     ta_libc_csr:ta_CDLABANDONEDBABY.obj
 0002:00015200       $chain$20$TA_CDLABANDONEDBABY 0000000180080200     ta_libc_csr:ta_CDLABANDONEDBABY.obj
 0002:00015220       $chain$21$TA_CDLABANDONEDBABY 0000000180080220     ta_libc_csr:ta_CDLABANDONEDBABY.obj
 0002:00015238       $chain$22$TA_CDLABANDONEDBABY 0000000180080238     ta_libc_csr:ta_CDLABANDONEDBABY.obj
 0002:00015248       $unwind$TA_CDLADVANCEBLOCK 0000000180080248     ta_libc_csr:ta_CDLADVANCEBLOCK.obj
 0002:00015268       $chain$0$TA_CDLADVANCEBLOCK 0000000180080268     ta_libc_csr:ta_CDLADVANCEBLOCK.obj
 0002:0001527c       $chain$1$TA_CDLADVANCEBLOCK 000000018008027c     ta_libc_csr:ta_CDLADVANCEBLOCK.obj
 0002:0001527c       $chain$14$TA_CDLADVANCEBLOCK 000000018008027c     ta_libc_csr:ta_CDLADVANCEBLOCK.obj
 0002:0001528c       $chain$12$TA_CDLADVANCEBLOCK 000000018008028c     ta_libc_csr:ta_CDLADVANCEBLOCK.obj
 0002:000152c4       $chain$13$TA_CDLADVANCEBLOCK 00000001800802c4     ta_libc_csr:ta_CDLADVANCEBLOCK.obj
 0002:000152d8       $chain$2$TA_CDLADVANCEBLOCK 00000001800802d8     ta_libc_csr:ta_CDLADVANCEBLOCK.obj
 0002:000152ec       $unwind$TA_CDLBELTHOLD     00000001800802ec     ta_libc_csr:ta_CDLBELTHOLD.obj
 0002:000152fc       $chain$1$TA_CDLBELTHOLD    00000001800802fc     ta_libc_csr:ta_CDLBELTHOLD.obj
 0002:00015314       $chain$12$TA_CDLBELTHOLD   0000000180080314     ta_libc_csr:ta_CDLBELTHOLD.obj
 0002:00015348       $chain$3$TA_CDLBELTHOLD    0000000180080348     ta_libc_csr:ta_CDLBELTHOLD.obj
 0002:00015360       $chain$13$TA_CDLBELTHOLD   0000000180080360     ta_libc_csr:ta_CDLBELTHOLD.obj
 0002:00015370       $unwind$TA_CDLBREAKAWAY    0000000180080370     ta_libc_csr:ta_CDLBREAKAWAY.obj
 0002:00015380       $chain$1$TA_CDLBREAKAWAY   0000000180080380     ta_libc_csr:ta_CDLBREAKAWAY.obj
 0002:00015398       $chain$10$TA_CDLBREAKAWAY  0000000180080398     ta_libc_csr:ta_CDLBREAKAWAY.obj
 0002:000153c4       $chain$13$TA_CDLBREAKAWAY  00000001800803c4     ta_libc_csr:ta_CDLBREAKAWAY.obj
 0002:000153e0       $chain$3$TA_CDLBREAKAWAY   00000001800803e0     ta_libc_csr:ta_CDLBREAKAWAY.obj
 0002:000153f8       $chain$14$TA_CDLBREAKAWAY  00000001800803f8     ta_libc_csr:ta_CDLBREAKAWAY.obj
 0002:00015408       $unwind$TA_CDLDOJISTAR     0000000180080408     ta_libc_csr:ta_CDLDOJISTAR.obj
 0002:00015408       $unwind$TA_CDLCLOSINGMARUBOZU 0000000180080408     ta_libc_csr:ta_CDLCLOSINGMARUBOZU.obj
 0002:00015418       $chain$1$TA_CDLCLOSINGMARUBOZU 0000000180080418     ta_libc_csr:ta_CDLCLOSINGMARUBOZU.obj
 0002:00015430       $chain$12$TA_CDLCLOSINGMARUBOZU 0000000180080430     ta_libc_csr:ta_CDLCLOSINGMARUBOZU.obj
 0002:00015464       $chain$3$TA_CDLCLOSINGMARUBOZU 0000000180080464     ta_libc_csr:ta_CDLCLOSINGMARUBOZU.obj
 0002:0001547c       $chain$13$TA_CDLCLOSINGMARUBOZU 000000018008047c     ta_libc_csr:ta_CDLCLOSINGMARUBOZU.obj
 0002:0001548c       $unwind$TA_CDLCONCEALBABYSWALL 000000018008048c     ta_libc_csr:ta_CDLCONCEALBABYSWALL.obj
 0002:000154ac       $chain$1$TA_CDLCONCEALBABYSWALL 00000001800804ac     ta_libc_csr:ta_CDLCONCEALBABYSWALL.obj
 0002:000154c4       $chain$2$TA_CDLCONCEALBABYSWALL 00000001800804c4     ta_libc_csr:ta_CDLCONCEALBABYSWALL.obj
 0002:000154c4       $chain$15$TA_CDLCONCEALBABYSWALL 00000001800804c4     ta_libc_csr:ta_CDLCONCEALBABYSWALL.obj
 0002:000154d4       $chain$3$TA_CDLCONCEALBABYSWALL 00000001800804d4     ta_libc_csr:ta_CDLCONCEALBABYSWALL.obj
 0002:000154ec       $chain$8$TA_CDLCONCEALBABYSWALL 00000001800804ec     ta_libc_csr:ta_CDLCONCEALBABYSWALL.obj
 0002:00015510       $chain$13$TA_CDLCONCEALBABYSWALL 0000000180080510     ta_libc_csr:ta_CDLCONCEALBABYSWALL.obj
 0002:00015534       $chain$14$TA_CDLCONCEALBABYSWALL 0000000180080534     ta_libc_csr:ta_CDLCONCEALBABYSWALL.obj
 0002:00015544       $unwind$TA_CDLCOUNTERATTACK 0000000180080544     ta_libc_csr:ta_CDLCOUNTERATTACK.obj
 0002:00015554       $chain$1$TA_CDLCOUNTERATTACK 0000000180080554     ta_libc_csr:ta_CDLCOUNTERATTACK.obj
 0002:0001556c       $chain$15$TA_CDLCOUNTERATTACK 000000018008056c     ta_libc_csr:ta_CDLCOUNTERATTACK.obj
 0002:000155ac       $chain$16$TA_CDLCOUNTERATTACK 00000001800805ac     ta_libc_csr:ta_CDLCOUNTERATTACK.obj
 0002:000155c0       $chain$3$TA_CDLCOUNTERATTACK 00000001800805c0     ta_libc_csr:ta_CDLCOUNTERATTACK.obj
 0002:000155d8       $chain$17$TA_CDLCOUNTERATTACK 00000001800805d8     ta_libc_csr:ta_CDLCOUNTERATTACK.obj
 0002:000155e8       $unwind$TA_CDLDARKCLOUDCOVER 00000001800805e8     ta_libc_csr:ta_CDLDARKCLOUDCOVER.obj
 0002:000155f8       $chain$1$TA_CDLDARKCLOUDCOVER 00000001800805f8     ta_libc_csr:ta_CDLDARKCLOUDCOVER.obj
 0002:00015610       $chain$3$TA_CDLDARKCLOUDCOVER 0000000180080610     ta_libc_csr:ta_CDLDARKCLOUDCOVER.obj
 0002:00015628       $chain$4$TA_CDLDARKCLOUDCOVER 0000000180080628     ta_libc_csr:ta_CDLDARKCLOUDCOVER.obj
 0002:00015638       $chain$11$TA_CDLDARKCLOUDCOVER 0000000180080638     ta_libc_csr:ta_CDLDARKCLOUDCOVER.obj
 0002:0001565c       $chain$6$TA_CDLDARKCLOUDCOVER 000000018008065c     ta_libc_csr:ta_CDLDARKCLOUDCOVER.obj
 0002:0001567c       $chain$12$TA_CDLDARKCLOUDCOVER 000000018008067c     ta_libc_csr:ta_CDLDARKCLOUDCOVER.obj
 0002:00015694       $chain$13$TA_CDLDARKCLOUDCOVER 0000000180080694     ta_libc_csr:ta_CDLDARKCLOUDCOVER.obj
 0002:000156a4       $unwind$TA_CDLDOJI         00000001800806a4     ta_libc_csr:ta_CDLDOJI.obj
 0002:000156b4       $chain$1$TA_CDLDOJI        00000001800806b4     ta_libc_csr:ta_CDLDOJI.obj
 0002:000156cc       $chain$3$TA_CDLDOJI        00000001800806cc     ta_libc_csr:ta_CDLDOJI.obj
 0002:000156e4       $chain$8$TA_CDLDOJI        00000001800806e4     ta_libc_csr:ta_CDLDOJI.obj
 0002:00015708       $chain$9$TA_CDLDOJI        0000000180080708     ta_libc_csr:ta_CDLDOJI.obj
 0002:00015728       $chain$10$TA_CDLDOJI       0000000180080728     ta_libc_csr:ta_CDLDOJI.obj
 0002:00015738       $chain$11$TA_CDLDOJI       0000000180080738     ta_libc_csr:ta_CDLDOJI.obj
 0002:00015748       $chain$1$TA_CDLDOJISTAR    0000000180080748     ta_libc_csr:ta_CDLDOJISTAR.obj
 0002:00015760       $chain$2$TA_CDLDOJISTAR    0000000180080760     ta_libc_csr:ta_CDLDOJISTAR.obj
 0002:00015774       $chain$3$TA_CDLDOJISTAR    0000000180080774     ta_libc_csr:ta_CDLDOJISTAR.obj
 0002:00015784       $chain$5$TA_CDLDOJISTAR    0000000180080784     ta_libc_csr:ta_CDLDOJISTAR.obj
 0002:000157a0       $chain$13$TA_CDLDOJISTAR   00000001800807a0     ta_libc_csr:ta_CDLDOJISTAR.obj
 0002:000157d0       $chain$15$TA_CDLDOJISTAR   00000001800807d0     ta_libc_csr:ta_CDLDOJISTAR.obj
 0002:000157e8       $chain$16$TA_CDLDOJISTAR   00000001800807e8     ta_libc_csr:ta_CDLDOJISTAR.obj
 0002:000157f8       $chain$1$TA_CDLDRAGONFLYDOJI 00000001800807f8     ta_libc_csr:ta_CDLDRAGONFLYDOJI.obj
 0002:00015810       $chain$12$TA_CDLDRAGONFLYDOJI 0000000180080810     ta_libc_csr:ta_CDLDRAGONFLYDOJI.obj
 0002:00015844       $chain$15$TA_CDLDRAGONFLYDOJI 0000000180080844     ta_libc_csr:ta_CDLDRAGONFLYDOJI.obj
 0002:00015860       $chain$3$TA_CDLDRAGONFLYDOJI 0000000180080860     ta_libc_csr:ta_CDLDRAGONFLYDOJI.obj
 0002:00015878       $chain$16$TA_CDLDRAGONFLYDOJI 0000000180080878     ta_libc_csr:ta_CDLDRAGONFLYDOJI.obj
 0002:00015888       $unwind$TA_CDLENGULFING    0000000180080888     ta_libc_csr:ta_CDLENGULFING.obj
 0002:00015894       $chain$1$TA_CDLENGULFING   0000000180080894     ta_libc_csr:ta_CDLENGULFING.obj
 0002:000158ac       $chain$3$TA_CDLENGULFING   00000001800808ac     ta_libc_csr:ta_CDLENGULFING.obj
 0002:000158c4       $chain$6$TA_CDLENGULFING   00000001800808c4     ta_libc_csr:ta_CDLENGULFING.obj
 0002:000158e0       $chain$8$TA_CDLENGULFING   00000001800808e0     ta_libc_csr:ta_CDLENGULFING.obj
 0002:000158f4       $chain$9$TA_CDLENGULFING   00000001800808f4     ta_libc_csr:ta_CDLENGULFING.obj
 0002:00015904       $unwind$TA_CDLEVENINGDOJISTAR 0000000180080904     ta_libc_csr:ta_CDLEVENINGDOJISTAR.obj
 0002:00015904       $unwind$TA_CDLMORNINGDOJISTAR 0000000180080904     ta_libc_csr:ta_CDLMORNINGDOJISTAR.obj
 0002:00015914       $chain$1$TA_CDLEVENINGDOJISTAR 0000000180080914     ta_libc_csr:ta_CDLEVENINGDOJISTAR.obj
 0002:0001592c       $chain$3$TA_CDLEVENINGDOJISTAR 000000018008092c     ta_libc_csr:ta_CDLEVENINGDOJISTAR.obj
 0002:00015944       $chain$4$TA_CDLEVENINGDOJISTAR 0000000180080944     ta_libc_csr:ta_CDLEVENINGDOJISTAR.obj
 0002:00015958       $chain$5$TA_CDLEVENINGDOJISTAR 0000000180080958     ta_libc_csr:ta_CDLEVENINGDOJISTAR.obj
 0002:00015968       $chain$6$TA_CDLEVENINGDOJISTAR 0000000180080968     ta_libc_csr:ta_CDLEVENINGDOJISTAR.obj
 0002:00015978       $chain$8$TA_CDLEVENINGDOJISTAR 0000000180080978     ta_libc_csr:ta_CDLEVENINGDOJISTAR.obj
 0002:0001599c       $chain$18$TA_CDLEVENINGDOJISTAR 000000018008099c     ta_libc_csr:ta_CDLEVENINGDOJISTAR.obj
 0002:000159d4       $chain$20$TA_CDLEVENINGDOJISTAR 00000001800809d4     ta_libc_csr:ta_CDLEVENINGDOJISTAR.obj
 0002:000159f4       $chain$21$TA_CDLEVENINGDOJISTAR 00000001800809f4     ta_libc_csr:ta_CDLEVENINGDOJISTAR.obj
 0002:00015a0c       $chain$22$TA_CDLEVENINGDOJISTAR 0000000180080a0c     ta_libc_csr:ta_CDLEVENINGDOJISTAR.obj
 0002:00015a1c       $unwind$TA_CDLEVENINGSTAR  0000000180080a1c     ta_libc_csr:ta_CDLEVENINGSTAR.obj
 0002:00015a1c       $unwind$TA_CDLMORNINGSTAR  0000000180080a1c     ta_libc_csr:ta_CDLMORNINGSTAR.obj
 0002:00015a2c       $chain$1$TA_CDLEVENINGSTAR 0000000180080a2c     ta_libc_csr:ta_CDLEVENINGSTAR.obj
 0002:00015a44       $chain$2$TA_CDLEVENINGSTAR 0000000180080a44     ta_libc_csr:ta_CDLEVENINGSTAR.obj
 0002:00015a58       $chain$3$TA_CDLEVENINGSTAR 0000000180080a58     ta_libc_csr:ta_CDLEVENINGSTAR.obj
 0002:00015a68       $chain$5$TA_CDLEVENINGSTAR 0000000180080a68     ta_libc_csr:ta_CDLEVENINGSTAR.obj
 0002:00015a84       $chain$14$TA_CDLEVENINGSTAR 0000000180080a84     ta_libc_csr:ta_CDLEVENINGSTAR.obj
 0002:00015ab8       $chain$16$TA_CDLEVENINGSTAR 0000000180080ab8     ta_libc_csr:ta_CDLEVENINGSTAR.obj
 0002:00015ad0       $chain$17$TA_CDLEVENINGSTAR 0000000180080ad0     ta_libc_csr:ta_CDLEVENINGSTAR.obj
 0002:00015ae0       $chain$18$TA_CDLEVENINGSTAR 0000000180080ae0     ta_libc_csr:ta_CDLEVENINGSTAR.obj
 0002:00015af8       $chain$19$TA_CDLEVENINGSTAR 0000000180080af8     ta_libc_csr:ta_CDLEVENINGSTAR.obj
 0002:00015b08       $unwind$TA_CDLGAPSIDESIDEWHITE 0000000180080b08     ta_libc_csr:ta_CDLGAPSIDESIDEWHITE.obj
 0002:00015b18       $chain$1$TA_CDLGAPSIDESIDEWHITE 0000000180080b18     ta_libc_csr:ta_CDLGAPSIDESIDEWHITE.obj
 0002:00015b30       $chain$14$TA_CDLGAPSIDESIDEWHITE 0000000180080b30     ta_libc_csr:ta_CDLGAPSIDESIDEWHITE.obj
 0002:00015b6c       $chain$15$TA_CDLGAPSIDESIDEWHITE 0000000180080b6c     ta_libc_csr:ta_CDLGAPSIDESIDEWHITE.obj
 0002:00015b80       $chain$3$TA_CDLGAPSIDESIDEWHITE 0000000180080b80     ta_libc_csr:ta_CDLGAPSIDESIDEWHITE.obj
 0002:00015b98       $chain$16$TA_CDLGAPSIDESIDEWHITE 0000000180080b98     ta_libc_csr:ta_CDLGAPSIDESIDEWHITE.obj
 0002:00015ba8       $unwind$TA_CDLGRAVESTONEDOJI 0000000180080ba8     ta_libc_csr:ta_CDLGRAVESTONEDOJI.obj
 0002:00015ba8       $unwind$TA_CDLLONGLEGGEDDOJI 0000000180080ba8     ta_libc_csr:ta_CDLLONGLEGGEDDOJI.obj
 0002:00015bb8       $chain$1$TA_CDLGRAVESTONEDOJI 0000000180080bb8     ta_libc_csr:ta_CDLGRAVESTONEDOJI.obj
 0002:00015bd0       $chain$13$TA_CDLGRAVESTONEDOJI 0000000180080bd0     ta_libc_csr:ta_CDLGRAVESTONEDOJI.obj
 0002:00015c08       $chain$15$TA_CDLGRAVESTONEDOJI 0000000180080c08     ta_libc_csr:ta_CDLGRAVESTONEDOJI.obj
 0002:00015c20       $chain$3$TA_CDLGRAVESTONEDOJI 0000000180080c20     ta_libc_csr:ta_CDLGRAVESTONEDOJI.obj
 0002:00015c38       $chain$16$TA_CDLGRAVESTONEDOJI 0000000180080c38     ta_libc_csr:ta_CDLGRAVESTONEDOJI.obj
 0002:00015c48       $unwind$TA_CDLHANGINGMAN   0000000180080c48     ta_libc_csr:ta_CDLHANGINGMAN.obj
 0002:00015c48       $unwind$TA_CDLHAMMER       0000000180080c48     ta_libc_csr:ta_CDLHAMMER.obj
 0002:00015c58       $chain$0$TA_CDLHAMMER      0000000180080c58     ta_libc_csr:ta_CDLHAMMER.obj
 0002:00015c6c       $chain$2$TA_CDLHAMMER      0000000180080c6c     ta_libc_csr:ta_CDLHAMMER.obj
 0002:00015c80       $chain$15$TA_CDLHAMMER     0000000180080c80     ta_libc_csr:ta_CDLHAMMER.obj
 0002:00015cc4       $chain$16$TA_CDLHAMMER     0000000180080cc4     ta_libc_csr:ta_CDLHAMMER.obj
 0002:00015cd4       $chain$17$TA_CDLHAMMER     0000000180080cd4     ta_libc_csr:ta_CDLHAMMER.obj
 0002:00015ce4       $chain$0$TA_CDLHANGINGMAN  0000000180080ce4     ta_libc_csr:ta_CDLHANGINGMAN.obj
 0002:00015cf8       $chain$2$TA_CDLHANGINGMAN  0000000180080cf8     ta_libc_csr:ta_CDLHANGINGMAN.obj
 0002:00015d0c       $chain$15$TA_CDLHANGINGMAN 0000000180080d0c     ta_libc_csr:ta_CDLHANGINGMAN.obj
 0002:00015d50       $chain$16$TA_CDLHANGINGMAN 0000000180080d50     ta_libc_csr:ta_CDLHANGINGMAN.obj
 0002:00015d60       $chain$17$TA_CDLHANGINGMAN 0000000180080d60     ta_libc_csr:ta_CDLHANGINGMAN.obj
 0002:00015d70       $chain$1$TA_CDLHARAMI      0000000180080d70     ta_libc_csr:ta_CDLHARAMI.obj
 0002:00015d88       $chain$2$TA_CDLHARAMI      0000000180080d88     ta_libc_csr:ta_CDLHARAMI.obj
 0002:00015d9c       $chain$3$TA_CDLHARAMI      0000000180080d9c     ta_libc_csr:ta_CDLHARAMI.obj
 0002:00015dac       $chain$5$TA_CDLHARAMI      0000000180080dac     ta_libc_csr:ta_CDLHARAMI.obj
 0002:00015dc8       $chain$14$TA_CDLHARAMI     0000000180080dc8     ta_libc_csr:ta_CDLHARAMI.obj
 0002:00015dfc       $chain$16$TA_CDLHARAMI     0000000180080dfc     ta_libc_csr:ta_CDLHARAMI.obj
 0002:00015e14       $chain$17$TA_CDLHARAMI     0000000180080e14     ta_libc_csr:ta_CDLHARAMI.obj
 0002:00015e24       $chain$1$TA_CDLHARAMICROSS 0000000180080e24     ta_libc_csr:ta_CDLHARAMICROSS.obj
 0002:00015e3c       $chain$2$TA_CDLHARAMICROSS 0000000180080e3c     ta_libc_csr:ta_CDLHARAMICROSS.obj
 0002:00015e50       $chain$3$TA_CDLHARAMICROSS 0000000180080e50     ta_libc_csr:ta_CDLHARAMICROSS.obj
 0002:00015e60       $chain$5$TA_CDLHARAMICROSS 0000000180080e60     ta_libc_csr:ta_CDLHARAMICROSS.obj
 0002:00015e7c       $chain$14$TA_CDLHARAMICROSS 0000000180080e7c     ta_libc_csr:ta_CDLHARAMICROSS.obj
 0002:00015eb0       $chain$16$TA_CDLHARAMICROSS 0000000180080eb0     ta_libc_csr:ta_CDLHARAMICROSS.obj
 0002:00015ec8       $chain$17$TA_CDLHARAMICROSS 0000000180080ec8     ta_libc_csr:ta_CDLHARAMICROSS.obj
 0002:00015ed8       $chain$1$TA_CDLHIGHWAVE    0000000180080ed8     ta_libc_csr:ta_CDLHIGHWAVE.obj
 0002:00015ef0       $chain$13$TA_CDLHIGHWAVE   0000000180080ef0     ta_libc_csr:ta_CDLHIGHWAVE.obj
 0002:00015f28       $chain$15$TA_CDLHIGHWAVE   0000000180080f28     ta_libc_csr:ta_CDLHIGHWAVE.obj
 0002:00015f40       $chain$3$TA_CDLHIGHWAVE    0000000180080f40     ta_libc_csr:ta_CDLHIGHWAVE.obj
 0002:00015f58       $chain$16$TA_CDLHIGHWAVE   0000000180080f58     ta_libc_csr:ta_CDLHIGHWAVE.obj
 0002:00015f68       $unwind$TA_CDLHIKKAKE      0000000180080f68     ta_libc_csr:ta_CDLHIKKAKE.obj
 0002:00015f74       $chain$1$TA_CDLHIKKAKE     0000000180080f74     ta_libc_csr:ta_CDLHIKKAKE.obj
 0002:00015f8c       $chain$2$TA_CDLHIKKAKE     0000000180080f8c     ta_libc_csr:ta_CDLHIKKAKE.obj
 0002:00015fa0       $chain$3$TA_CDLHIKKAKE     0000000180080fa0     ta_libc_csr:ta_CDLHIKKAKE.obj
 0002:00015fb0       $chain$5$TA_CDLHIKKAKE     0000000180080fb0     ta_libc_csr:ta_CDLHIKKAKE.obj
 0002:00015fcc       $chain$7$TA_CDLHIKKAKE     0000000180080fcc     ta_libc_csr:ta_CDLHIKKAKE.obj
 0002:00015fe4       $chain$9$TA_CDLHIKKAKE     0000000180080fe4     ta_libc_csr:ta_CDLHIKKAKE.obj
 0002:00015ffc       $chain$10$TA_CDLHIKKAKE    0000000180080ffc     ta_libc_csr:ta_CDLHIKKAKE.obj
 0002:0001600c       $unwind$TA_CDLHIKKAKEMOD   000000018008100c     ta_libc_csr:ta_CDLHIKKAKEMOD.obj
 0002:0001601c       $chain$1$TA_CDLHIKKAKEMOD  000000018008101c     ta_libc_csr:ta_CDLHIKKAKEMOD.obj
 0002:00016034       $chain$12$TA_CDLHIKKAKEMOD 0000000180081034     ta_libc_csr:ta_CDLHIKKAKEMOD.obj
 0002:00016068       $chain$14$TA_CDLHIKKAKEMOD 0000000180081068     ta_libc_csr:ta_CDLHIKKAKEMOD.obj
 0002:00016080       $chain$3$TA_CDLHIKKAKEMOD  0000000180081080     ta_libc_csr:ta_CDLHIKKAKEMOD.obj
 0002:00016098       $chain$15$TA_CDLHIKKAKEMOD 0000000180081098     ta_libc_csr:ta_CDLHIKKAKEMOD.obj
 0002:000160a8       $chain$1$TA_CDLHOMINGPIGEON 00000001800810a8     ta_libc_csr:ta_CDLHOMINGPIGEON.obj
 0002:000160c0       $chain$12$TA_CDLHOMINGPIGEON 00000001800810c0     ta_libc_csr:ta_CDLHOMINGPIGEON.obj
 0002:000160f4       $chain$3$TA_CDLHOMINGPIGEON 00000001800810f4     ta_libc_csr:ta_CDLHOMINGPIGEON.obj
 0002:0001610c       $chain$13$TA_CDLHOMINGPIGEON 000000018008110c     ta_libc_csr:ta_CDLHOMINGPIGEON.obj
 0002:0001611c       $unwind$TA_CDLIDENTICAL3CROWS 000000018008111c     ta_libc_csr:ta_CDLIDENTICAL3CROWS.obj
 0002:0001613c       $chain$1$TA_CDLIDENTICAL3CROWS 000000018008113c     ta_libc_csr:ta_CDLIDENTICAL3CROWS.obj
 0002:00016154       $chain$2$TA_CDLIDENTICAL3CROWS 0000000180081154     ta_libc_csr:ta_CDLIDENTICAL3CROWS.obj
 0002:00016154       $chain$15$TA_CDLIDENTICAL3CROWS 0000000180081154     ta_libc_csr:ta_CDLIDENTICAL3CROWS.obj
 0002:00016164       $chain$3$TA_CDLIDENTICAL3CROWS 0000000180081164     ta_libc_csr:ta_CDLIDENTICAL3CROWS.obj
 0002:0001617c       $chain$10$TA_CDLIDENTICAL3CROWS 000000018008117c     ta_libc_csr:ta_CDLIDENTICAL3CROWS.obj
 0002:000161a8       $chain$13$TA_CDLIDENTICAL3CROWS 00000001800811a8     ta_libc_csr:ta_CDLIDENTICAL3CROWS.obj
 0002:000161c4       $chain$14$TA_CDLIDENTICAL3CROWS 00000001800811c4     ta_libc_csr:ta_CDLIDENTICAL3CROWS.obj
 0002:000161d4       $unwind$TA_CDLINNECK       00000001800811d4     ta_libc_csr:ta_CDLINNECK.obj
 0002:000161e4       $chain$1$TA_CDLINNECK      00000001800811e4     ta_libc_csr:ta_CDLINNECK.obj
 0002:000161fc       $chain$11$TA_CDLINNECK     00000001800811fc     ta_libc_csr:ta_CDLINNECK.obj
 0002:0001622c       $chain$3$TA_CDLINNECK      000000018008122c     ta_libc_csr:ta_CDLINNECK.obj
 0002:00016244       $chain$12$TA_CDLINNECK     0000000180081244     ta_libc_csr:ta_CDLINNECK.obj
 0002:00016254       $unwind$TA_CDLSHOOTINGSTAR 0000000180081254     ta_libc_csr:ta_CDLSHOOTINGSTAR.obj
 0002:00016254       $unwind$TA_CDLINVERTEDHAMMER 0000000180081254     ta_libc_csr:ta_CDLINVERTEDHAMMER.obj
 0002:00016264       $chain$1$TA_CDLINVERTEDHAMMER 0000000180081264     ta_libc_csr:ta_CDLINVERTEDHAMMER.obj
 0002:0001627c       $chain$14$TA_CDLINVERTEDHAMMER 000000018008127c     ta_libc_csr:ta_CDLINVERTEDHAMMER.obj
 0002:000162b8       $chain$3$TA_CDLINVERTEDHAMMER 00000001800812b8     ta_libc_csr:ta_CDLINVERTEDHAMMER.obj
 0002:000162d0       $chain$15$TA_CDLINVERTEDHAMMER 00000001800812d0     ta_libc_csr:ta_CDLINVERTEDHAMMER.obj
 0002:000162e0       $unwind$TA_CDLKICKING      00000001800812e0     ta_libc_csr:ta_CDLKICKING.obj
 0002:000162f0       $chain$1$TA_CDLKICKING     00000001800812f0     ta_libc_csr:ta_CDLKICKING.obj
 0002:00016308       $chain$11$TA_CDLKICKING    0000000180081308     ta_libc_csr:ta_CDLKICKING.obj
 0002:00016338       $chain$15$TA_CDLKICKING    0000000180081338     ta_libc_csr:ta_CDLKICKING.obj
 0002:00016358       $chain$3$TA_CDLKICKING     0000000180081358     ta_libc_csr:ta_CDLKICKING.obj
 0002:00016370       $chain$16$TA_CDLKICKING    0000000180081370     ta_libc_csr:ta_CDLKICKING.obj
 0002:00016380       $unwind$TA_CDLKICKINGBYLENGTH 0000000180081380     ta_libc_csr:ta_CDLKICKINGBYLENGTH.obj
 0002:00016390       $chain$1$TA_CDLKICKINGBYLENGTH 0000000180081390     ta_libc_csr:ta_CDLKICKINGBYLENGTH.obj
 0002:000163a8       $chain$12$TA_CDLKICKINGBYLENGTH 00000001800813a8     ta_libc_csr:ta_CDLKICKINGBYLENGTH.obj
 0002:000163dc       $chain$15$TA_CDLKICKINGBYLENGTH 00000001800813dc     ta_libc_csr:ta_CDLKICKINGBYLENGTH.obj
 0002:000163f8       $chain$3$TA_CDLKICKINGBYLENGTH 00000001800813f8     ta_libc_csr:ta_CDLKICKINGBYLENGTH.obj
 0002:00016410       $chain$16$TA_CDLKICKINGBYLENGTH 0000000180081410     ta_libc_csr:ta_CDLKICKINGBYLENGTH.obj
 0002:00016420       $unwind$TA_CDLLADDERBOTTOM 0000000180081420     ta_libc_csr:ta_CDLLADDERBOTTOM.obj
 0002:00016420       $unwind$TA_CDLMATCHINGLOW  0000000180081420     ta_libc_csr:ta_CDLMATCHINGLOW.obj
 0002:00016430       $chain$1$TA_CDLLADDERBOTTOM 0000000180081430     ta_libc_csr:ta_CDLLADDERBOTTOM.obj
 0002:00016448       $chain$9$TA_CDLLADDERBOTTOM 0000000180081448     ta_libc_csr:ta_CDLLADDERBOTTOM.obj
 0002:00016470       $chain$10$TA_CDLLADDERBOTTOM 0000000180081470     ta_libc_csr:ta_CDLLADDERBOTTOM.obj
 0002:00016484       $chain$3$TA_CDLLADDERBOTTOM 0000000180081484     ta_libc_csr:ta_CDLLADDERBOTTOM.obj
 0002:0001649c       $chain$11$TA_CDLLADDERBOTTOM 000000018008149c     ta_libc_csr:ta_CDLLADDERBOTTOM.obj
 0002:000164ac       $chain$1$TA_CDLLONGLEGGEDDOJI 00000001800814ac     ta_libc_csr:ta_CDLLONGLEGGEDDOJI.obj
 0002:000164c4       $chain$13$TA_CDLLONGLEGGEDDOJI 00000001800814c4     ta_libc_csr:ta_CDLLONGLEGGEDDOJI.obj
 0002:000164fc       $chain$15$TA_CDLLONGLEGGEDDOJI 00000001800814fc     ta_libc_csr:ta_CDLLONGLEGGEDDOJI.obj
 0002:00016514       $chain$3$TA_CDLLONGLEGGEDDOJI 0000000180081514     ta_libc_csr:ta_CDLLONGLEGGEDDOJI.obj
 0002:0001652c       $chain$16$TA_CDLLONGLEGGEDDOJI 000000018008152c     ta_libc_csr:ta_CDLLONGLEGGEDDOJI.obj
 0002:0001653c       $chain$1$TA_CDLLONGLINE    000000018008153c     ta_libc_csr:ta_CDLLONGLINE.obj
 0002:00016554       $chain$13$TA_CDLLONGLINE   0000000180081554     ta_libc_csr:ta_CDLLONGLINE.obj
 0002:0001658c       $chain$15$TA_CDLLONGLINE   000000018008158c     ta_libc_csr:ta_CDLLONGLINE.obj
 0002:000165a4       $chain$3$TA_CDLLONGLINE    00000001800815a4     ta_libc_csr:ta_CDLLONGLINE.obj
 0002:000165bc       $chain$16$TA_CDLLONGLINE   00000001800815bc     ta_libc_csr:ta_CDLLONGLINE.obj
 0002:000165cc       $chain$1$TA_CDLMARUBOZU    00000001800815cc     ta_libc_csr:ta_CDLMARUBOZU.obj
 0002:000165e4       $chain$13$TA_CDLMARUBOZU   00000001800815e4     ta_libc_csr:ta_CDLMARUBOZU.obj
 0002:0001661c       $chain$15$TA_CDLMARUBOZU   000000018008161c     ta_libc_csr:ta_CDLMARUBOZU.obj
 0002:00016634       $chain$3$TA_CDLMARUBOZU    0000000180081634     ta_libc_csr:ta_CDLMARUBOZU.obj
 0002:0001664c       $chain$16$TA_CDLMARUBOZU   000000018008164c     ta_libc_csr:ta_CDLMARUBOZU.obj
 0002:0001665c       $chain$1$TA_CDLMATCHINGLOW 000000018008165c     ta_libc_csr:ta_CDLMATCHINGLOW.obj
 0002:00016674       $chain$11$TA_CDLMATCHINGLOW 0000000180081674     ta_libc_csr:ta_CDLMATCHINGLOW.obj
 0002:000166a4       $chain$12$TA_CDLMATCHINGLOW 00000001800816a4     ta_libc_csr:ta_CDLMATCHINGLOW.obj
 0002:000166b8       $chain$3$TA_CDLMATCHINGLOW 00000001800816b8     ta_libc_csr:ta_CDLMATCHINGLOW.obj
 0002:000166d0       $chain$13$TA_CDLMATCHINGLOW 00000001800816d0     ta_libc_csr:ta_CDLMATCHINGLOW.obj
 0002:000166e0       $unwind$TA_CDLMATHOLD      00000001800816e0     ta_libc_csr:ta_CDLMATHOLD.obj
 0002:00016700       $chain$1$TA_CDLMATHOLD     0000000180081700     ta_libc_csr:ta_CDLMATHOLD.obj
 0002:00016718       $chain$2$TA_CDLMATHOLD     0000000180081718     ta_libc_csr:ta_CDLMATHOLD.obj
 0002:0001672c       $chain$3$TA_CDLMATHOLD     000000018008172c     ta_libc_csr:ta_CDLMATHOLD.obj
 0002:0001673c       $chain$17$TA_CDLMATHOLD    000000018008173c     ta_libc_csr:ta_CDLMATHOLD.obj
 0002:0001673c       $chain$4$TA_CDLMATHOLD     000000018008173c     ta_libc_csr:ta_CDLMATHOLD.obj
 0002:0001674c       $chain$5$TA_CDLMATHOLD     000000018008174c     ta_libc_csr:ta_CDLMATHOLD.obj
 0002:00016768       $chain$12$TA_CDLMATHOLD    0000000180081768     ta_libc_csr:ta_CDLMATHOLD.obj
 0002:00016794       $chain$14$TA_CDLMATHOLD    0000000180081794     ta_libc_csr:ta_CDLMATHOLD.obj
 0002:000167ac       $chain$15$TA_CDLMATHOLD    00000001800817ac     ta_libc_csr:ta_CDLMATHOLD.obj
 0002:000167bc       $chain$16$TA_CDLMATHOLD    00000001800817bc     ta_libc_csr:ta_CDLMATHOLD.obj
 0002:000167d4       $chain$1$TA_CDLMORNINGDOJISTAR 00000001800817d4     ta_libc_csr:ta_CDLMORNINGDOJISTAR.obj
 0002:000167ec       $chain$3$TA_CDLMORNINGDOJISTAR 00000001800817ec     ta_libc_csr:ta_CDLMORNINGDOJISTAR.obj
 0002:00016804       $chain$4$TA_CDLMORNINGDOJISTAR 0000000180081804     ta_libc_csr:ta_CDLMORNINGDOJISTAR.obj
 0002:00016818       $chain$5$TA_CDLMORNINGDOJISTAR 0000000180081818     ta_libc_csr:ta_CDLMORNINGDOJISTAR.obj
 0002:00016828       $chain$6$TA_CDLMORNINGDOJISTAR 0000000180081828     ta_libc_csr:ta_CDLMORNINGDOJISTAR.obj
 0002:00016838       $chain$8$TA_CDLMORNINGDOJISTAR 0000000180081838     ta_libc_csr:ta_CDLMORNINGDOJISTAR.obj
 0002:0001685c       $chain$18$TA_CDLMORNINGDOJISTAR 000000018008185c     ta_libc_csr:ta_CDLMORNINGDOJISTAR.obj
 0002:00016894       $chain$20$TA_CDLMORNINGDOJISTAR 0000000180081894     ta_libc_csr:ta_CDLMORNINGDOJISTAR.obj
 0002:000168b4       $chain$21$TA_CDLMORNINGDOJISTAR 00000001800818b4     ta_libc_csr:ta_CDLMORNINGDOJISTAR.obj
 0002:000168cc       $chain$22$TA_CDLMORNINGDOJISTAR 00000001800818cc     ta_libc_csr:ta_CDLMORNINGDOJISTAR.obj
 0002:000168dc       $chain$1$TA_CDLMORNINGSTAR 00000001800818dc     ta_libc_csr:ta_CDLMORNINGSTAR.obj
 0002:000168f4       $chain$2$TA_CDLMORNINGSTAR 00000001800818f4     ta_libc_csr:ta_CDLMORNINGSTAR.obj
 0002:00016908       $chain$3$TA_CDLMORNINGSTAR 0000000180081908     ta_libc_csr:ta_CDLMORNINGSTAR.obj
 0002:00016918       $chain$5$TA_CDLMORNINGSTAR 0000000180081918     ta_libc_csr:ta_CDLMORNINGSTAR.obj
 0002:00016934       $chain$14$TA_CDLMORNINGSTAR 0000000180081934     ta_libc_csr:ta_CDLMORNINGSTAR.obj
 0002:00016968       $chain$16$TA_CDLMORNINGSTAR 0000000180081968     ta_libc_csr:ta_CDLMORNINGSTAR.obj
 0002:00016980       $chain$17$TA_CDLMORNINGSTAR 0000000180081980     ta_libc_csr:ta_CDLMORNINGSTAR.obj
 0002:00016990       $chain$18$TA_CDLMORNINGSTAR 0000000180081990     ta_libc_csr:ta_CDLMORNINGSTAR.obj
 0002:000169a8       $chain$19$TA_CDLMORNINGSTAR 00000001800819a8     ta_libc_csr:ta_CDLMORNINGSTAR.obj
 0002:000169b8       $unwind$TA_CDLONNECK       00000001800819b8     ta_libc_csr:ta_CDLONNECK.obj
 0002:000169c8       $chain$1$TA_CDLONNECK      00000001800819c8     ta_libc_csr:ta_CDLONNECK.obj
 0002:000169e0       $chain$13$TA_CDLONNECK     00000001800819e0     ta_libc_csr:ta_CDLONNECK.obj
 0002:00016a18       $chain$15$TA_CDLONNECK     0000000180081a18     ta_libc_csr:ta_CDLONNECK.obj
 0002:00016a30       $chain$3$TA_CDLONNECK      0000000180081a30     ta_libc_csr:ta_CDLONNECK.obj
 0002:00016a48       $chain$16$TA_CDLONNECK     0000000180081a48     ta_libc_csr:ta_CDLONNECK.obj
 0002:00016a58       $unwind$TA_CDLPIERCING     0000000180081a58     ta_libc_csr:ta_CDLPIERCING.obj
 0002:00016a68       $chain$1$TA_CDLPIERCING    0000000180081a68     ta_libc_csr:ta_CDLPIERCING.obj
 0002:00016a80       $chain$2$TA_CDLPIERCING    0000000180081a80     ta_libc_csr:ta_CDLPIERCING.obj
 0002:00016a94       $chain$3$TA_CDLPIERCING    0000000180081a94     ta_libc_csr:ta_CDLPIERCING.obj
 0002:00016aa4       $chain$5$TA_CDLPIERCING    0000000180081aa4     ta_libc_csr:ta_CDLPIERCING.obj
 0002:00016ac0       $chain$13$TA_CDLPIERCING   0000000180081ac0     ta_libc_csr:ta_CDLPIERCING.obj
 0002:00016af0       $chain$15$TA_CDLPIERCING   0000000180081af0     ta_libc_csr:ta_CDLPIERCING.obj
 0002:00016b08       $chain$17$TA_CDLPIERCING   0000000180081b08     ta_libc_csr:ta_CDLPIERCING.obj
 0002:00016b20       $chain$18$TA_CDLPIERCING   0000000180081b20     ta_libc_csr:ta_CDLPIERCING.obj
 0002:00016b30       $unwind$TA_CDLRICKSHAWMAN  0000000180081b30     ta_libc_csr:ta_CDLRICKSHAWMAN.obj
 0002:00016b40       $chain$1$TA_CDLRICKSHAWMAN 0000000180081b40     ta_libc_csr:ta_CDLRICKSHAWMAN.obj
 0002:00016b58       $chain$3$TA_CDLRICKSHAWMAN 0000000180081b58     ta_libc_csr:ta_CDLRICKSHAWMAN.obj
 0002:00016b70       $chain$13$TA_CDLRICKSHAWMAN 0000000180081b70     ta_libc_csr:ta_CDLRICKSHAWMAN.obj
 0002:00016ba8       $chain$15$TA_CDLRICKSHAWMAN 0000000180081ba8     ta_libc_csr:ta_CDLRICKSHAWMAN.obj
 0002:00016bc0       $chain$16$TA_CDLRICKSHAWMAN 0000000180081bc0     ta_libc_csr:ta_CDLRICKSHAWMAN.obj
 0002:00016bd0       $chain$17$TA_CDLRICKSHAWMAN 0000000180081bd0     ta_libc_csr:ta_CDLRICKSHAWMAN.obj
 0002:00016be0       $unwind$TA_CDLRISEFALL3METHODS 0000000180081be0     ta_libc_csr:ta_CDLRISEFALL3METHODS.obj
 0002:00016c00       $chain$1$TA_CDLRISEFALL3METHODS 0000000180081c00     ta_libc_csr:ta_CDLRISEFALL3METHODS.obj
 0002:00016c18       $chain$2$TA_CDLRISEFALL3METHODS 0000000180081c18     ta_libc_csr:ta_CDLRISEFALL3METHODS.obj
 0002:00016c18       $chain$15$TA_CDLRISEFALL3METHODS 0000000180081c18     ta_libc_csr:ta_CDLRISEFALL3METHODS.obj
 0002:00016c28       $chain$3$TA_CDLRISEFALL3METHODS 0000000180081c28     ta_libc_csr:ta_CDLRISEFALL3METHODS.obj
 0002:00016c40       $chain$13$TA_CDLRISEFALL3METHODS 0000000180081c40     ta_libc_csr:ta_CDLRISEFALL3METHODS.obj
 0002:00016c78       $chain$14$TA_CDLRISEFALL3METHODS 0000000180081c78     ta_libc_csr:ta_CDLRISEFALL3METHODS.obj
 0002:00016c88       $unwind$TA_CDLSEPARATINGLINES 0000000180081c88     ta_libc_csr:ta_CDLSEPARATINGLINES.obj
 0002:00016c98       $chain$1$TA_CDLSEPARATINGLINES 0000000180081c98     ta_libc_csr:ta_CDLSEPARATINGLINES.obj
 0002:00016cb0       $chain$14$TA_CDLSEPARATINGLINES 0000000180081cb0     ta_libc_csr:ta_CDLSEPARATINGLINES.obj
 0002:00016cec       $chain$15$TA_CDLSEPARATINGLINES 0000000180081cec     ta_libc_csr:ta_CDLSEPARATINGLINES.obj
 0002:00016d00       $chain$3$TA_CDLSEPARATINGLINES 0000000180081d00     ta_libc_csr:ta_CDLSEPARATINGLINES.obj
 0002:00016d18       $chain$16$TA_CDLSEPARATINGLINES 0000000180081d18     ta_libc_csr:ta_CDLSEPARATINGLINES.obj
 0002:00016d28       $chain$1$TA_CDLSHOOTINGSTAR 0000000180081d28     ta_libc_csr:ta_CDLSHOOTINGSTAR.obj
 0002:00016d40       $chain$13$TA_CDLSHOOTINGSTAR 0000000180081d40     ta_libc_csr:ta_CDLSHOOTINGSTAR.obj
 0002:00016d78       $chain$14$TA_CDLSHOOTINGSTAR 0000000180081d78     ta_libc_csr:ta_CDLSHOOTINGSTAR.obj
 0002:00016d8c       $chain$3$TA_CDLSHOOTINGSTAR 0000000180081d8c     ta_libc_csr:ta_CDLSHOOTINGSTAR.obj
 0002:00016da4       $chain$15$TA_CDLSHOOTINGSTAR 0000000180081da4     ta_libc_csr:ta_CDLSHOOTINGSTAR.obj
 0002:00016db4       $chain$1$TA_CDLSHORTLINE   0000000180081db4     ta_libc_csr:ta_CDLSHORTLINE.obj
 0002:00016dcc       $chain$13$TA_CDLSHORTLINE  0000000180081dcc     ta_libc_csr:ta_CDLSHORTLINE.obj
 0002:00016e04       $chain$15$TA_CDLSHORTLINE  0000000180081e04     ta_libc_csr:ta_CDLSHORTLINE.obj
 0002:00016e1c       $chain$3$TA_CDLSHORTLINE   0000000180081e1c     ta_libc_csr:ta_CDLSHORTLINE.obj
 0002:00016e34       $chain$16$TA_CDLSHORTLINE  0000000180081e34     ta_libc_csr:ta_CDLSHORTLINE.obj
 0002:00016e44       $unwind$TA_CDLSPINNINGTOP  0000000180081e44     ta_libc_csr:ta_CDLSPINNINGTOP.obj
 0002:00016e54       $chain$1$TA_CDLSPINNINGTOP 0000000180081e54     ta_libc_csr:ta_CDLSPINNINGTOP.obj
 0002:00016e6c       $chain$3$TA_CDLSPINNINGTOP 0000000180081e6c     ta_libc_csr:ta_CDLSPINNINGTOP.obj
 0002:00016e84       $chain$10$TA_CDLSPINNINGTOP 0000000180081e84     ta_libc_csr:ta_CDLSPINNINGTOP.obj
 0002:00016eb0       $chain$11$TA_CDLSPINNINGTOP 0000000180081eb0     ta_libc_csr:ta_CDLSPINNINGTOP.obj
 0002:00016ed8       $chain$12$TA_CDLSPINNINGTOP 0000000180081ed8     ta_libc_csr:ta_CDLSPINNINGTOP.obj
 0002:00016ee8       $chain$13$TA_CDLSPINNINGTOP 0000000180081ee8     ta_libc_csr:ta_CDLSPINNINGTOP.obj
 0002:00016ef8       $unwind$TA_CDLSTALLEDPATTERN 0000000180081ef8     ta_libc_csr:ta_CDLSTALLEDPATTERN.obj
 0002:00016f18       $chain$1$TA_CDLSTALLEDPATTERN 0000000180081f18     ta_libc_csr:ta_CDLSTALLEDPATTERN.obj
 0002:00016f30       $chain$15$TA_CDLSTALLEDPATTERN 0000000180081f30     ta_libc_csr:ta_CDLSTALLEDPATTERN.obj
 0002:00016f30       $chain$2$TA_CDLSTALLEDPATTERN 0000000180081f30     ta_libc_csr:ta_CDLSTALLEDPATTERN.obj
 0002:00016f40       $chain$3$TA_CDLSTALLEDPATTERN 0000000180081f40     ta_libc_csr:ta_CDLSTALLEDPATTERN.obj
 0002:00016f58       $chain$11$TA_CDLSTALLEDPATTERN 0000000180081f58     ta_libc_csr:ta_CDLSTALLEDPATTERN.obj
 0002:00016f88       $chain$13$TA_CDLSTALLEDPATTERN 0000000180081f88     ta_libc_csr:ta_CDLSTALLEDPATTERN.obj
 0002:00016fa0       $chain$14$TA_CDLSTALLEDPATTERN 0000000180081fa0     ta_libc_csr:ta_CDLSTALLEDPATTERN.obj
 0002:00016fb0       $unwind$TA_CDLSTICKSANDWICH 0000000180081fb0     ta_libc_csr:ta_CDLSTICKSANDWICH.obj
 0002:00016fc0       $chain$1$TA_CDLSTICKSANDWICH 0000000180081fc0     ta_libc_csr:ta_CDLSTICKSANDWICH.obj
 0002:00016fd8       $chain$10$TA_CDLSTICKSANDWICH 0000000180081fd8     ta_libc_csr:ta_CDLSTICKSANDWICH.obj
 0002:00017004       $chain$12$TA_CDLSTICKSANDWICH 0000000180082004     ta_libc_csr:ta_CDLSTICKSANDWICH.obj
 0002:0001701c       $chain$3$TA_CDLSTICKSANDWICH 000000018008201c     ta_libc_csr:ta_CDLSTICKSANDWICH.obj
 0002:00017034       $chain$13$TA_CDLSTICKSANDWICH 0000000180082034     ta_libc_csr:ta_CDLSTICKSANDWICH.obj
 0002:00017044       $unwind$TA_CDLTAKURI       0000000180082044     ta_libc_csr:ta_CDLTAKURI.obj
 0002:00017054       $chain$1$TA_CDLTAKURI      0000000180082054     ta_libc_csr:ta_CDLTAKURI.obj
 0002:0001706c       $chain$13$TA_CDLTAKURI     000000018008206c     ta_libc_csr:ta_CDLTAKURI.obj
 0002:000170a4       $chain$14$TA_CDLTAKURI     00000001800820a4     ta_libc_csr:ta_CDLTAKURI.obj
 0002:000170b8       $chain$3$TA_CDLTAKURI      00000001800820b8     ta_libc_csr:ta_CDLTAKURI.obj
 0002:000170d0       $chain$15$TA_CDLTAKURI     00000001800820d0     ta_libc_csr:ta_CDLTAKURI.obj
 0002:000170e0       $unwind$TA_CDLTASUKIGAP    00000001800820e0     ta_libc_csr:ta_CDLTASUKIGAP.obj
 0002:000170f0       $chain$1$TA_CDLTASUKIGAP   00000001800820f0     ta_libc_csr:ta_CDLTASUKIGAP.obj
 0002:00017108       $chain$13$TA_CDLTASUKIGAP  0000000180082108     ta_libc_csr:ta_CDLTASUKIGAP.obj
 0002:00017140       $chain$14$TA_CDLTASUKIGAP  0000000180082140     ta_libc_csr:ta_CDLTASUKIGAP.obj
 0002:00017154       $chain$3$TA_CDLTASUKIGAP   0000000180082154     ta_libc_csr:ta_CDLTASUKIGAP.obj
 0002:0001716c       $chain$15$TA_CDLTASUKIGAP  000000018008216c     ta_libc_csr:ta_CDLTASUKIGAP.obj
 0002:0001717c       $unwind$TA_CDLTHRUSTING    000000018008217c     ta_libc_csr:ta_CDLTHRUSTING.obj
 0002:0001717c       $unwind$TA_CDLUPSIDEGAP2CROWS 000000018008217c     ta_libc_csr:ta_CDLUPSIDEGAP2CROWS.obj
 0002:0001718c       $chain$1$TA_CDLTHRUSTING   000000018008218c     ta_libc_csr:ta_CDLTHRUSTING.obj
 0002:000171a4       $chain$12$TA_CDLTHRUSTING  00000001800821a4     ta_libc_csr:ta_CDLTHRUSTING.obj
 0002:000171d8       $chain$13$TA_CDLTHRUSTING  00000001800821d8     ta_libc_csr:ta_CDLTHRUSTING.obj
 0002:000171ec       $chain$3$TA_CDLTHRUSTING   00000001800821ec     ta_libc_csr:ta_CDLTHRUSTING.obj
 0002:00017204       $chain$14$TA_CDLTHRUSTING  0000000180082204     ta_libc_csr:ta_CDLTHRUSTING.obj
 0002:00017214       $unwind$TA_CDLTRISTAR      0000000180082214     ta_libc_csr:ta_CDLTRISTAR.obj
 0002:00017224       $chain$1$TA_CDLTRISTAR     0000000180082224     ta_libc_csr:ta_CDLTRISTAR.obj
 0002:0001723c       $chain$3$TA_CDLTRISTAR     000000018008223c     ta_libc_csr:ta_CDLTRISTAR.obj
 0002:00017254       $chain$13$TA_CDLTRISTAR    0000000180082254     ta_libc_csr:ta_CDLTRISTAR.obj
 0002:0001728c       $chain$14$TA_CDLTRISTAR    000000018008228c     ta_libc_csr:ta_CDLTRISTAR.obj
 0002:0001729c       $chain$15$TA_CDLTRISTAR    000000018008229c     ta_libc_csr:ta_CDLTRISTAR.obj
 0002:000172ac       $chain$1$TA_CDLUNIQUE3RIVER 00000001800822ac     ta_libc_csr:ta_CDLUNIQUE3RIVER.obj
 0002:000172c4       $chain$3$TA_CDLUNIQUE3RIVER 00000001800822c4     ta_libc_csr:ta_CDLUNIQUE3RIVER.obj
 0002:000172dc       $chain$11$TA_CDLUNIQUE3RIVER 00000001800822dc     ta_libc_csr:ta_CDLUNIQUE3RIVER.obj
 0002:0001730c       $chain$12$TA_CDLUNIQUE3RIVER 000000018008230c     ta_libc_csr:ta_CDLUNIQUE3RIVER.obj
 0002:0001731c       $chain$13$TA_CDLUNIQUE3RIVER 000000018008231c     ta_libc_csr:ta_CDLUNIQUE3RIVER.obj
 0002:0001732c       $chain$1$TA_CDLUPSIDEGAP2CROWS 000000018008232c     ta_libc_csr:ta_CDLUPSIDEGAP2CROWS.obj
 0002:00017344       $chain$3$TA_CDLUPSIDEGAP2CROWS 0000000180082344     ta_libc_csr:ta_CDLUPSIDEGAP2CROWS.obj
 0002:0001735c       $chain$12$TA_CDLUPSIDEGAP2CROWS 000000018008235c     ta_libc_csr:ta_CDLUPSIDEGAP2CROWS.obj
 0002:00017390       $chain$13$TA_CDLUPSIDEGAP2CROWS 0000000180082390     ta_libc_csr:ta_CDLUPSIDEGAP2CROWS.obj
 0002:000173a0       $chain$14$TA_CDLUPSIDEGAP2CROWS 00000001800823a0     ta_libc_csr:ta_CDLUPSIDEGAP2CROWS.obj
 0002:000173b0       $unwind$TA_CDLXSIDEGAP3METHODS 00000001800823b0     ta_libc_csr:ta_CDLXSIDEGAP3METHODS.obj
 0002:000173bc       $chain$1$TA_CDLXSIDEGAP3METHODS 00000001800823bc     ta_libc_csr:ta_CDLXSIDEGAP3METHODS.obj
 0002:000173d4       $chain$3$TA_CDLXSIDEGAP3METHODS 00000001800823d4     ta_libc_csr:ta_CDLXSIDEGAP3METHODS.obj
 0002:000173ec       $chain$7$TA_CDLXSIDEGAP3METHODS 00000001800823ec     ta_libc_csr:ta_CDLXSIDEGAP3METHODS.obj
 0002:0001740c       $chain$9$TA_CDLXSIDEGAP3METHODS 000000018008240c     ta_libc_csr:ta_CDLXSIDEGAP3METHODS.obj
 0002:00017420       $chain$10$TA_CDLXSIDEGAP3METHODS 0000000180082420     ta_libc_csr:ta_CDLXSIDEGAP3METHODS.obj
 0002:00017430       $chain$0$TA_CEIL           0000000180082430     ta_libc_csr:ta_CEIL.obj
 0002:00017444       $chain$3$TA_CEIL           0000000180082444     ta_libc_csr:ta_CEIL.obj
 0002:0001745c       $chain$5$TA_CEIL           000000018008245c     ta_libc_csr:ta_CEIL.obj
 0002:00017474       $chain$6$TA_CEIL           0000000180082474     ta_libc_csr:ta_CEIL.obj
 0002:00017484       $chain$7$TA_CEIL           0000000180082484     ta_libc_csr:ta_CEIL.obj
 0002:00017494       $unwind$TA_RSI             0000000180082494     ta_libc_csr:ta_RSI.obj
 0002:00017494       $unwind$TA_CMO             0000000180082494     ta_libc_csr:ta_CMO.obj
 0002:000174a4       $chain$0$TA_CMO            00000001800824a4     ta_libc_csr:ta_CMO.obj
 0002:000174b8       $chain$5$TA_CMO            00000001800824b8     ta_libc_csr:ta_CMO.obj
 0002:000174d8       $chain$9$TA_CMO            00000001800824d8     ta_libc_csr:ta_CMO.obj
 0002:000174f8       $chain$10$TA_CMO           00000001800824f8     ta_libc_csr:ta_CMO.obj
 0002:00017508       $chain$12$TA_CMO           0000000180082508     ta_libc_csr:ta_CMO.obj
 0002:00017538       $chain$13$TA_CMO           0000000180082538     ta_libc_csr:ta_CMO.obj
 0002:0001754c       $chain$15$TA_CMO           000000018008254c     ta_libc_csr:ta_CMO.obj
 0002:0001755c       $unwind$TA_CORREL          000000018008255c     ta_libc_csr:ta_CORREL.obj
 0002:0001756c       $chain$0$TA_CORREL         000000018008256c     ta_libc_csr:ta_CORREL.obj
 0002:00017580       $chain$1$TA_CORREL         0000000180082580     ta_libc_csr:ta_CORREL.obj
 0002:00017594       $chain$2$TA_CORREL         0000000180082594     ta_libc_csr:ta_CORREL.obj
 0002:000175a4       $chain$16$TA_CORREL        00000001800825a4     ta_libc_csr:ta_CORREL.obj
 0002:000175ec       $chain$17$TA_CORREL        00000001800825ec     ta_libc_csr:ta_CORREL.obj
 0002:00017600       $chain$18$TA_CORREL        0000000180082600     ta_libc_csr:ta_CORREL.obj
 0002:00017610       $chain$0$TA_COS            0000000180082610     ta_libc_csr:ta_COS.obj
 0002:00017624       $chain$3$TA_COS            0000000180082624     ta_libc_csr:ta_COS.obj
 0002:0001763c       $chain$5$TA_COS            000000018008263c     ta_libc_csr:ta_COS.obj
 0002:00017654       $chain$6$TA_COS            0000000180082654     ta_libc_csr:ta_COS.obj
 0002:00017664       $chain$7$TA_COS            0000000180082664     ta_libc_csr:ta_COS.obj
 0002:00017674       $chain$0$TA_COSH           0000000180082674     ta_libc_csr:ta_COSH.obj
 0002:00017688       $chain$3$TA_COSH           0000000180082688     ta_libc_csr:ta_COSH.obj
 0002:000176a0       $chain$5$TA_COSH           00000001800826a0     ta_libc_csr:ta_COSH.obj
 0002:000176b8       $chain$6$TA_COSH           00000001800826b8     ta_libc_csr:ta_COSH.obj
 0002:000176c8       $chain$7$TA_COSH           00000001800826c8     ta_libc_csr:ta_COSH.obj
 0002:000176d8       $unwind$TA_DEMA            00000001800826d8     ta_libc_csr:ta_DEMA.obj
 0002:000176e8       $chain$0$TA_DEMA           00000001800826e8     ta_libc_csr:ta_DEMA.obj
 0002:000176fc       $chain$2$TA_DEMA           00000001800826fc     ta_libc_csr:ta_DEMA.obj
 0002:00017714       $chain$3$TA_DEMA           0000000180082714     ta_libc_csr:ta_DEMA.obj
 0002:00017728       $chain$4$TA_DEMA           0000000180082728     ta_libc_csr:ta_DEMA.obj
 0002:0001773c       $chain$5$TA_DEMA           000000018008273c     ta_libc_csr:ta_DEMA.obj
 0002:0001774c       $chain$6$TA_DEMA           000000018008274c     ta_libc_csr:ta_DEMA.obj
 0002:0001775c       $chain$7$TA_DEMA           000000018008275c     ta_libc_csr:ta_DEMA.obj
 0002:0001776c       $chain$9$TA_DEMA           000000018008276c     ta_libc_csr:ta_DEMA.obj
 0002:0001778c       $chain$10$TA_DEMA          000000018008278c     ta_libc_csr:ta_DEMA.obj
 0002:000177b0       $chain$11$TA_DEMA          00000001800827b0     ta_libc_csr:ta_DEMA.obj
 0002:000177c0       $chain$0$TA_DIV            00000001800827c0     ta_libc_csr:ta_DIV.obj
 0002:000177d4       $chain$3$TA_DIV            00000001800827d4     ta_libc_csr:ta_DIV.obj
 0002:000177ec       $chain$5$TA_DIV            00000001800827ec     ta_libc_csr:ta_DIV.obj
 0002:00017804       $chain$6$TA_DIV            0000000180082804     ta_libc_csr:ta_DIV.obj
 0002:00017814       $chain$7$TA_DIV            0000000180082814     ta_libc_csr:ta_DIV.obj
 0002:00017824       $unwind$TA_DX              0000000180082824     ta_libc_csr:ta_DX.obj
 0002:00017834       $chain$0$TA_DX             0000000180082834     ta_libc_csr:ta_DX.obj
 0002:00017848       $chain$1$TA_DX             0000000180082848     ta_libc_csr:ta_DX.obj
 0002:0001785c       $chain$2$TA_DX             000000018008285c     ta_libc_csr:ta_DX.obj
 0002:0001786c       $chain$4$TA_DX             000000018008286c     ta_libc_csr:ta_DX.obj
 0002:00017884       $chain$12$TA_DX            0000000180082884     ta_libc_csr:ta_DX.obj
 0002:000178b4       $chain$13$TA_DX            00000001800828b4     ta_libc_csr:ta_DX.obj
 0002:000178c8       $chain$14$TA_DX            00000001800828c8     ta_libc_csr:ta_DX.obj
 0002:000178dc       $chain$15$TA_DX            00000001800828dc     ta_libc_csr:ta_DX.obj
 0002:000178ec       $chain$17$TA_DX            00000001800828ec     ta_libc_csr:ta_DX.obj
 0002:00017900       $chain$18$TA_DX            0000000180082900     ta_libc_csr:ta_DX.obj
 0002:00017910       $unwind$?setSBCS@@YAXPEAU__crt_multibyte_data@@@Z 0000000180082910     libucrt:mbctype.obj
 0002:00017910       $unwind$_recalloc_base     0000000180082910     libucrt:recalloc.obj
 0002:00017910       $unwind$_wassert           0000000180082910     libucrt:assert.obj
 0002:00017910       $unwind$_initterm          0000000180082910     libucrt:initterm.obj
 0002:00017910       $unwind$__acrt_lowio_create_handle_array 0000000180082910     libucrt:osfinfo.obj
 0002:00017910       $unwind$_seh_filter_exe    0000000180082910     libucrt:exception_filter.obj
 0002:00017910       $unwind$__scrt_dllmain_exception_filter 0000000180082910     LIBCMT:utility.obj
 0002:00017910       $unwind$??$ensure_buffer_is_big_enough@D@formatting_buffer@__crt_stdio_output@@QEAA_N_K@Z 0000000180082910     libucrt:output.obj
 0002:00017910       $unwind$??$ensure_buffer_is_big_enough@_W@formatting_buffer@__crt_stdio_output@@QEAA_N_K@Z 0000000180082910     libucrt:output.obj
 0002:00017910       $unwind$__acrt_free_locale 0000000180082910     libucrt:locale_refcounting.obj
 0002:00017910       $unwind$__acrt_show_wide_message_box 0000000180082910     libucrt:crtmbox.obj
 0002:00017910       $unwind$TA_INT_EMA         0000000180082910     ta_libc_csr:ta_EMA.obj
 0002:00017924       $chain$0$TA_EXP            0000000180082924     ta_libc_csr:ta_EXP.obj
 0002:00017938       $chain$3$TA_EXP            0000000180082938     ta_libc_csr:ta_EXP.obj
 0002:00017950       $chain$5$TA_EXP            0000000180082950     ta_libc_csr:ta_EXP.obj
 0002:00017968       $chain$6$TA_EXP            0000000180082968     ta_libc_csr:ta_EXP.obj
 0002:00017978       $chain$7$TA_EXP            0000000180082978     ta_libc_csr:ta_EXP.obj
 0002:00017988       $chain$0$TA_FLOOR          0000000180082988     ta_libc_csr:ta_FLOOR.obj
 0002:0001799c       $chain$3$TA_FLOOR          000000018008299c     ta_libc_csr:ta_FLOOR.obj
 0002:000179b4       $chain$5$TA_FLOOR          00000001800829b4     ta_libc_csr:ta_FLOOR.obj
 0002:000179cc       $chain$6$TA_FLOOR          00000001800829cc     ta_libc_csr:ta_FLOOR.obj
 0002:000179dc       $chain$7$TA_FLOOR          00000001800829dc     ta_libc_csr:ta_FLOOR.obj
 0002:000179ec       $unwind$TA_HT_DCPERIOD     00000001800829ec     ta_libc_csr:ta_HT_DCPERIOD.obj
 0002:000179ec       $unwind$TA_HT_PHASOR       00000001800829ec     ta_libc_csr:ta_HT_PHASOR.obj
 0002:00017a10       $chain$7$TA_HT_DCPERIOD    0000000180082a10     ta_libc_csr:ta_HT_DCPERIOD.obj
 0002:00017a40       $chain$10$TA_HT_DCPERIOD   0000000180082a40     ta_libc_csr:ta_HT_DCPERIOD.obj
 0002:00017a5c       $chain$11$TA_HT_DCPERIOD   0000000180082a5c     ta_libc_csr:ta_HT_DCPERIOD.obj
 0002:00017a6c       $chain$12$TA_HT_DCPERIOD   0000000180082a6c     ta_libc_csr:ta_HT_DCPERIOD.obj
 0002:00017a7c       $unwind$TA_HT_DCPHASE      0000000180082a7c     ta_libc_csr:ta_HT_DCPHASE.obj
 0002:00017a9c       $chain$0$TA_HT_DCPHASE     0000000180082a9c     ta_libc_csr:ta_HT_DCPHASE.obj
 0002:00017ab0       $chain$17$TA_HT_DCPHASE    0000000180082ab0     ta_libc_csr:ta_HT_DCPHASE.obj
 0002:00017ab0       $chain$1$TA_HT_DCPHASE     0000000180082ab0     ta_libc_csr:ta_HT_DCPHASE.obj
 0002:00017ac0       $chain$2$TA_HT_DCPHASE     0000000180082ac0     ta_libc_csr:ta_HT_DCPHASE.obj
 0002:00017ad4       $chain$10$TA_HT_DCPHASE    0000000180082ad4     ta_libc_csr:ta_HT_DCPHASE.obj
 0002:00017b04       $chain$13$TA_HT_DCPHASE    0000000180082b04     ta_libc_csr:ta_HT_DCPHASE.obj
 0002:00017b20       $chain$14$TA_HT_DCPHASE    0000000180082b20     ta_libc_csr:ta_HT_DCPHASE.obj
 0002:00017b30       $chain$16$TA_HT_DCPHASE    0000000180082b30     ta_libc_csr:ta_HT_DCPHASE.obj
 0002:00017b6c       $chain$6$TA_HT_PHASOR      0000000180082b6c     ta_libc_csr:ta_HT_PHASOR.obj
 0002:00017b98       $chain$10$TA_HT_PHASOR     0000000180082b98     ta_libc_csr:ta_HT_PHASOR.obj
 0002:00017bb8       $chain$11$TA_HT_PHASOR     0000000180082bb8     ta_libc_csr:ta_HT_PHASOR.obj
 0002:00017bc8       $chain$12$TA_HT_PHASOR     0000000180082bc8     ta_libc_csr:ta_HT_PHASOR.obj
 0002:00017bd8       $unwind$TA_HT_SINE         0000000180082bd8     ta_libc_csr:ta_HT_SINE.obj
 0002:00017bfc       $chain$1$TA_HT_SINE        0000000180082bfc     ta_libc_csr:ta_HT_SINE.obj
 0002:00017c14       $chain$2$TA_HT_SINE        0000000180082c14     ta_libc_csr:ta_HT_SINE.obj
 0002:00017c14       $chain$15$TA_HT_SINE       0000000180082c14     ta_libc_csr:ta_HT_SINE.obj
 0002:00017c24       $chain$3$TA_HT_SINE        0000000180082c24     ta_libc_csr:ta_HT_SINE.obj
 0002:00017c3c       $chain$11$TA_HT_SINE       0000000180082c3c     ta_libc_csr:ta_HT_SINE.obj
 0002:00017c6c       $chain$12$TA_HT_SINE       0000000180082c6c     ta_libc_csr:ta_HT_SINE.obj
 0002:00017c80       $chain$13$TA_HT_SINE       0000000180082c80     ta_libc_csr:ta_HT_SINE.obj
 0002:00017c90       $unwind$TA_HT_TRENDLINE    0000000180082c90     ta_libc_csr:ta_HT_TRENDLINE.obj
 0002:00017cb0       $chain$3$TA_HT_TRENDLINE   0000000180082cb0     ta_libc_csr:ta_HT_TRENDLINE.obj
 0002:00017cd0       $chain$16$TA_HT_TRENDLINE  0000000180082cd0     ta_libc_csr:ta_HT_TRENDLINE.obj
 0002:00017cd0       $chain$4$TA_HT_TRENDLINE   0000000180082cd0     ta_libc_csr:ta_HT_TRENDLINE.obj
 0002:00017ce0       $chain$5$TA_HT_TRENDLINE   0000000180082ce0     ta_libc_csr:ta_HT_TRENDLINE.obj
 0002:00017d00       $chain$11$TA_HT_TRENDLINE  0000000180082d00     ta_libc_csr:ta_HT_TRENDLINE.obj
 0002:00017d28       $chain$13$TA_HT_TRENDLINE  0000000180082d28     ta_libc_csr:ta_HT_TRENDLINE.obj
 0002:00017d40       $chain$14$TA_HT_TRENDLINE  0000000180082d40     ta_libc_csr:ta_HT_TRENDLINE.obj
 0002:00017d50       $unwind$TA_HT_TRENDMODE    0000000180082d50     ta_libc_csr:ta_HT_TRENDMODE.obj
 0002:00017d74       $chain$1$TA_HT_TRENDMODE   0000000180082d74     ta_libc_csr:ta_HT_TRENDMODE.obj
 0002:00017d8c       $chain$15$TA_HT_TRENDMODE  0000000180082d8c     ta_libc_csr:ta_HT_TRENDMODE.obj
 0002:00017d8c       $chain$2$TA_HT_TRENDMODE   0000000180082d8c     ta_libc_csr:ta_HT_TRENDMODE.obj
 0002:00017d9c       $chain$3$TA_HT_TRENDMODE   0000000180082d9c     ta_libc_csr:ta_HT_TRENDMODE.obj
 0002:00017db4       $chain$11$TA_HT_TRENDMODE  0000000180082db4     ta_libc_csr:ta_HT_TRENDMODE.obj
 0002:00017de4       $chain$12$TA_HT_TRENDMODE  0000000180082de4     ta_libc_csr:ta_HT_TRENDMODE.obj
 0002:00017df8       $chain$13$TA_HT_TRENDMODE  0000000180082df8     ta_libc_csr:ta_HT_TRENDMODE.obj
 0002:00017e08       $unwind$TA_IMI             0000000180082e08     ta_libc_csr:ta_IMI.obj
 0002:00017e1c       $chain$0$TA_IMI            0000000180082e1c     ta_libc_csr:ta_IMI.obj
 0002:00017e30       $chain$5$TA_IMI            0000000180082e30     ta_libc_csr:ta_IMI.obj
 0002:00017e30       $chain$1$TA_IMI            0000000180082e30     ta_libc_csr:ta_IMI.obj
 0002:00017e40       $chain$2$TA_IMI            0000000180082e40     ta_libc_csr:ta_IMI.obj
 0002:00017e54       $chain$3$TA_IMI            0000000180082e54     ta_libc_csr:ta_IMI.obj
 0002:00017e68       $chain$4$TA_IMI            0000000180082e68     ta_libc_csr:ta_IMI.obj
 0002:00017e78       $unwind$TA_KAMA            0000000180082e78     ta_libc_csr:ta_KAMA.obj
 0002:00017e84       $chain$0$TA_KAMA           0000000180082e84     ta_libc_csr:ta_KAMA.obj
 0002:00017e98       $chain$4$TA_KAMA           0000000180082e98     ta_libc_csr:ta_KAMA.obj
 0002:00017eb4       $chain$6$TA_KAMA           0000000180082eb4     ta_libc_csr:ta_KAMA.obj
 0002:00017ed0       $chain$15$TA_KAMA          0000000180082ed0     ta_libc_csr:ta_KAMA.obj
 0002:00017f04       $chain$16$TA_KAMA          0000000180082f04     ta_libc_csr:ta_KAMA.obj
 0002:00017f18       $chain$17$TA_KAMA          0000000180082f18     ta_libc_csr:ta_KAMA.obj
 0002:00017f2c       $chain$18$TA_KAMA          0000000180082f2c     ta_libc_csr:ta_KAMA.obj
 0002:00017f3c       $chain$19$TA_KAMA          0000000180082f3c     ta_libc_csr:ta_KAMA.obj
 0002:00017f4c       $chain$21$TA_KAMA          0000000180082f4c     ta_libc_csr:ta_KAMA.obj
 0002:00017f5c       $unwind$TA_LINEARREG       0000000180082f5c     ta_libc_csr:ta_LINEARREG.obj
 0002:00017f70       $chain$0$TA_LINEARREG      0000000180082f70     ta_libc_csr:ta_LINEARREG.obj
 0002:00017f84       $chain$1$TA_LINEARREG      0000000180082f84     ta_libc_csr:ta_LINEARREG.obj
 0002:00017f84       $chain$7$TA_LINEARREG      0000000180082f84     ta_libc_csr:ta_LINEARREG.obj
 0002:00017f94       $chain$2$TA_LINEARREG      0000000180082f94     ta_libc_csr:ta_LINEARREG.obj
 0002:00017fa8       $chain$3$TA_LINEARREG      0000000180082fa8     ta_libc_csr:ta_LINEARREG.obj
 0002:00017fbc       $chain$4$TA_LINEARREG      0000000180082fbc     ta_libc_csr:ta_LINEARREG.obj
 0002:00017fd0       $chain$5$TA_LINEARREG      0000000180082fd0     ta_libc_csr:ta_LINEARREG.obj
 0002:00017fe0       $unwind$TA_LINEARREG_ANGLE 0000000180082fe0     ta_libc_csr:ta_LINEARREG_ANGLE.obj
 0002:00017ff0       $chain$0$TA_LINEARREG_ANGLE 0000000180082ff0     ta_libc_csr:ta_LINEARREG_ANGLE.obj
 0002:00018004       $chain$1$TA_LINEARREG_ANGLE 0000000180083004     ta_libc_csr:ta_LINEARREG_ANGLE.obj
 0002:00018018       $chain$2$TA_LINEARREG_ANGLE 0000000180083018     ta_libc_csr:ta_LINEARREG_ANGLE.obj
 0002:00018028       $chain$7$TA_LINEARREG_ANGLE 0000000180083028     ta_libc_csr:ta_LINEARREG_ANGLE.obj
 0002:0001804c       $chain$8$TA_LINEARREG_ANGLE 000000018008304c     ta_libc_csr:ta_LINEARREG_ANGLE.obj
 0002:00018060       $chain$9$TA_LINEARREG_ANGLE 0000000180083060     ta_libc_csr:ta_LINEARREG_ANGLE.obj
 0002:00018070       $chain$10$TA_LINEARREG_ANGLE 0000000180083070     ta_libc_csr:ta_LINEARREG_ANGLE.obj
 0002:00018080       $unwind$TA_LINEARREG_INTERCEPT 0000000180083080     ta_libc_csr:ta_LINEARREG_INTERCEPT.obj
 0002:00018080       $unwind$TA_TSF             0000000180083080     ta_libc_csr:ta_TSF.obj
 0002:00018094       $chain$0$TA_LINEARREG_INTERCEPT 0000000180083094     ta_libc_csr:ta_LINEARREG_INTERCEPT.obj
 0002:000180a8       $chain$1$TA_LINEARREG_INTERCEPT 00000001800830a8     ta_libc_csr:ta_LINEARREG_INTERCEPT.obj
 0002:000180a8       $chain$5$TA_LINEARREG_INTERCEPT 00000001800830a8     ta_libc_csr:ta_LINEARREG_INTERCEPT.obj
 0002:000180b8       $chain$2$TA_LINEARREG_INTERCEPT 00000001800830b8     ta_libc_csr:ta_LINEARREG_INTERCEPT.obj
 0002:000180cc       $chain$3$TA_LINEARREG_INTERCEPT 00000001800830cc     ta_libc_csr:ta_LINEARREG_INTERCEPT.obj
 0002:000180e0       $unwind$TA_LINEARREG_SLOPE 00000001800830e0     ta_libc_csr:ta_LINEARREG_SLOPE.obj
 0002:000180f4       $chain$0$TA_LINEARREG_SLOPE 00000001800830f4     ta_libc_csr:ta_LINEARREG_SLOPE.obj
 0002:00018108       $chain$5$TA_LINEARREG_SLOPE 0000000180083108     ta_libc_csr:ta_LINEARREG_SLOPE.obj
 0002:00018108       $chain$1$TA_LINEARREG_SLOPE 0000000180083108     ta_libc_csr:ta_LINEARREG_SLOPE.obj
 0002:00018118       $chain$2$TA_LINEARREG_SLOPE 0000000180083118     ta_libc_csr:ta_LINEARREG_SLOPE.obj
 0002:0001812c       $chain$3$TA_LINEARREG_SLOPE 000000018008312c     ta_libc_csr:ta_LINEARREG_SLOPE.obj
 0002:00018140       $chain$0$TA_LN             0000000180083140     ta_libc_csr:ta_LN.obj
 0002:00018154       $chain$3$TA_LN             0000000180083154     ta_libc_csr:ta_LN.obj
 0002:0001816c       $chain$5$TA_LN             000000018008316c     ta_libc_csr:ta_LN.obj
 0002:00018184       $chain$6$TA_LN             0000000180083184     ta_libc_csr:ta_LN.obj
 0002:00018194       $chain$7$TA_LN             0000000180083194     ta_libc_csr:ta_LN.obj
 0002:000181a4       $chain$0$TA_LOG10          00000001800831a4     ta_libc_csr:ta_LOG10.obj
 0002:000181b8       $chain$3$TA_LOG10          00000001800831b8     ta_libc_csr:ta_LOG10.obj
 0002:000181d0       $chain$5$TA_LOG10          00000001800831d0     ta_libc_csr:ta_LOG10.obj
 0002:000181e8       $chain$6$TA_LOG10          00000001800831e8     ta_libc_csr:ta_LOG10.obj
 0002:000181f8       $chain$7$TA_LOG10          00000001800831f8     ta_libc_csr:ta_LOG10.obj
 0002:00018208       $unwind$TA_MA              0000000180083208     ta_libc_csr:ta_MA.obj
 0002:00018218       $chain$0$TA_MA             0000000180083218     ta_libc_csr:ta_MA.obj
 0002:0001822c       $chain$1$TA_MA             000000018008322c     ta_libc_csr:ta_MA.obj
 0002:00018240       $chain$2$TA_MA             0000000180083240     ta_libc_csr:ta_MA.obj
 0002:00018250       $chain$4$TA_MA             0000000180083250     ta_libc_csr:ta_MA.obj
 0002:00018268       $chain$5$TA_MA             0000000180083268     ta_libc_csr:ta_MA.obj
 0002:00018278       $unwind$TA_MACD            0000000180083278     ta_libc_csr:ta_MACD.obj
 0002:00018280       $chain$0$TA_MACD           0000000180083280     ta_libc_csr:ta_MACD.obj
 0002:00018294       $chain$2$TA_MACD           0000000180083294     ta_libc_csr:ta_MACD.obj
 0002:000182a8       $chain$3$TA_MACD           00000001800832a8     ta_libc_csr:ta_MACD.obj
 0002:000182b8       $chain$0$TA_MACD_Lookback  00000001800832b8     ta_libc_csr:ta_MACD.obj
 0002:000182cc       $chain$1$TA_MACD_Lookback  00000001800832cc     ta_libc_csr:ta_MACD.obj
 0002:000182dc       $unwind$TA_INT_MACD        00000001800832dc     ta_libc_csr:ta_MACD.obj
 0002:000182fc       $chain$3$TA_INT_MACD       00000001800832fc     ta_libc_csr:ta_MACD.obj
 0002:00018314       $chain$4$TA_INT_MACD       0000000180083314     ta_libc_csr:ta_MACD.obj
 0002:00018328       $chain$5$TA_INT_MACD       0000000180083328     ta_libc_csr:ta_MACD.obj
 0002:00018338       $chain$6$TA_INT_MACD       0000000180083338     ta_libc_csr:ta_MACD.obj
 0002:00018348       $unwind$TA_MACDEXT         0000000180083348     ta_libc_csr:ta_MACDEXT.obj
 0002:00018354       $chain$1$TA_MACDEXT        0000000180083354     ta_libc_csr:ta_MACDEXT.obj
 0002:0001836c       $chain$2$TA_MACDEXT        000000018008336c     ta_libc_csr:ta_MACDEXT.obj
 0002:00018380       $chain$3$TA_MACDEXT        0000000180083380     ta_libc_csr:ta_MACDEXT.obj
 0002:00018394       $chain$4$TA_MACDEXT        0000000180083394     ta_libc_csr:ta_MACDEXT.obj
 0002:000183a8       $chain$5$TA_MACDEXT        00000001800833a8     ta_libc_csr:ta_MACDEXT.obj
 0002:000183bc       $chain$6$TA_MACDEXT        00000001800833bc     ta_libc_csr:ta_MACDEXT.obj
 0002:000183d0       $chain$7$TA_MACDEXT        00000001800833d0     ta_libc_csr:ta_MACDEXT.obj
 0002:000183e0       $chain$8$TA_MACDEXT        00000001800833e0     ta_libc_csr:ta_MACDEXT.obj
 0002:000183f0       $chain$9$TA_MACDEXT        00000001800833f0     ta_libc_csr:ta_MACDEXT.obj
 0002:00018400       $chain$10$TA_MACDEXT       0000000180083400     ta_libc_csr:ta_MACDEXT.obj
 0002:00018410       $chain$11$TA_MACDEXT       0000000180083410     ta_libc_csr:ta_MACDEXT.obj
 0002:00018420       $chain$13$TA_MACDEXT       0000000180083420     ta_libc_csr:ta_MACDEXT.obj
 0002:0001844c       $chain$14$TA_MACDEXT       000000018008344c     ta_libc_csr:ta_MACDEXT.obj
 0002:00018468       $chain$15$TA_MACDEXT       0000000180083468     ta_libc_csr:ta_MACDEXT.obj
 0002:00018480       $chain$16$TA_MACDEXT       0000000180083480     ta_libc_csr:ta_MACDEXT.obj
 0002:00018494       $chain$17$TA_MACDEXT       0000000180083494     ta_libc_csr:ta_MACDEXT.obj
 0002:000184a4       $unwind$TA_MACDEXT_Lookback 00000001800834a4     ta_libc_csr:ta_MACDEXT.obj
 0002:000184b0       $chain$1$TA_MACDEXT_Lookback 00000001800834b0     ta_libc_csr:ta_MACDEXT.obj
 0002:000184c8       $chain$2$TA_MACDEXT_Lookback 00000001800834c8     ta_libc_csr:ta_MACDEXT.obj
 0002:000184dc       $chain$3$TA_MACDEXT_Lookback 00000001800834dc     ta_libc_csr:ta_MACDEXT.obj
 0002:000184ec       $chain$5$TA_MACDEXT_Lookback 00000001800834ec     ta_libc_csr:ta_MACDEXT.obj
 0002:00018504       $chain$6$TA_MACDEXT_Lookback 0000000180083504     ta_libc_csr:ta_MACDEXT.obj
 0002:00018518       $chain$7$TA_MACDEXT_Lookback 0000000180083518     ta_libc_csr:ta_MACDEXT.obj
 0002:00018528       $unwind$TA_MACDFIX         0000000180083528     ta_libc_csr:ta_MACDFIX.obj
 0002:00018528       $unwind$TA_STDDEV          0000000180083528     ta_libc_csr:ta_STDDEV.obj
 0002:00018530       $chain$0$TA_MACDFIX_Lookback 0000000180083530     ta_libc_csr:ta_MACDFIX.obj
 0002:00018544       $chain$1$TA_MACDFIX_Lookback 0000000180083544     ta_libc_csr:ta_MACDFIX.obj
 0002:00018554       $unwind$TA_MAMA            0000000180083554     ta_libc_csr:ta_MAMA.obj
 0002:00018578       $chain$7$TA_MAMA           0000000180083578     ta_libc_csr:ta_MAMA.obj
 0002:000185a8       $chain$10$TA_MAMA          00000001800835a8     ta_libc_csr:ta_MAMA.obj
 0002:000185c4       $chain$11$TA_MAMA          00000001800835c4     ta_libc_csr:ta_MAMA.obj
 0002:000185d4       $chain$12$TA_MAMA          00000001800835d4     ta_libc_csr:ta_MAMA.obj
 0002:000185e4       $unwind$TA_MAVP            00000001800835e4     ta_libc_csr:ta_MAVP.obj
 0002:000185f4       $chain$0$TA_MAVP           00000001800835f4     ta_libc_csr:ta_MAVP.obj
 0002:00018608       $chain$2$TA_MAVP           0000000180083608     ta_libc_csr:ta_MAVP.obj
 0002:00018620       $chain$4$TA_MAVP           0000000180083620     ta_libc_csr:ta_MAVP.obj
 0002:00018638       $chain$6$TA_MAVP           0000000180083638     ta_libc_csr:ta_MAVP.obj
 0002:00018650       $chain$7$TA_MAVP           0000000180083650     ta_libc_csr:ta_MAVP.obj
 0002:00018660       $chain$8$TA_MAVP           0000000180083660     ta_libc_csr:ta_MAVP.obj
 0002:00018670       $chain$9$TA_MAVP           0000000180083670     ta_libc_csr:ta_MAVP.obj
 0002:00018680       $chain$11$TA_MAVP          0000000180083680     ta_libc_csr:ta_MAVP.obj
 0002:000186ac       $chain$12$TA_MAVP          00000001800836ac     ta_libc_csr:ta_MAVP.obj
 0002:000186d0       $chain$13$TA_MAVP          00000001800836d0     ta_libc_csr:ta_MAVP.obj
 0002:000186ec       $chain$14$TA_MAVP          00000001800836ec     ta_libc_csr:ta_MAVP.obj
 0002:00018700       $chain$15$TA_MAVP          0000000180083700     ta_libc_csr:ta_MAVP.obj
 0002:00018710       $unwind$TA_MIN             0000000180083710     ta_libc_csr:ta_MIN.obj
 0002:00018710       $unwind$TA_MAX             0000000180083710     ta_libc_csr:ta_MAX.obj
 0002:0001871c       $chain$4$TA_MAX            000000018008371c     ta_libc_csr:ta_MAX.obj
 0002:00018740       $chain$6$TA_MAX            0000000180083740     ta_libc_csr:ta_MAX.obj
 0002:00018764       $chain$7$TA_MAX            0000000180083764     ta_libc_csr:ta_MAX.obj
 0002:00018774       $unwind$TA_MININDEX        0000000180083774     ta_libc_csr:ta_MININDEX.obj
 0002:00018774       $unwind$TA_MAXINDEX        0000000180083774     ta_libc_csr:ta_MAXINDEX.obj
 0002:00018780       $chain$0$TA_MAXINDEX       0000000180083780     ta_libc_csr:ta_MAXINDEX.obj
 0002:00018794       $chain$2$TA_MAXINDEX       0000000180083794     ta_libc_csr:ta_MAXINDEX.obj
 0002:000187a8       $chain$8$TA_MAXINDEX       00000001800837a8     ta_libc_csr:ta_MAXINDEX.obj
 0002:000187cc       $chain$10$TA_MAXINDEX      00000001800837cc     ta_libc_csr:ta_MAXINDEX.obj
 0002:000187f0       $chain$11$TA_MAXINDEX      00000001800837f0     ta_libc_csr:ta_MAXINDEX.obj
 0002:00018800       $unwind$TA_MEDPRICE        0000000180083800     ta_libc_csr:ta_MEDPRICE.obj
 0002:00018808       $chain$0$TA_MEDPRICE       0000000180083808     ta_libc_csr:ta_MEDPRICE.obj
 0002:0001881c       $chain$2$TA_MEDPRICE       000000018008381c     ta_libc_csr:ta_MEDPRICE.obj
 0002:00018830       $chain$6$TA_MEDPRICE       0000000180083830     ta_libc_csr:ta_MEDPRICE.obj
 0002:00018850       $chain$7$TA_MEDPRICE       0000000180083850     ta_libc_csr:ta_MEDPRICE.obj
 0002:00018860       $chain$8$TA_MEDPRICE       0000000180083860     ta_libc_csr:ta_MEDPRICE.obj
 0002:00018870       $unwind$TA_MFI             0000000180083870     ta_libc_csr:ta_MFI.obj
 0002:00018890       $chain$1$TA_MFI            0000000180083890     ta_libc_csr:ta_MFI.obj
 0002:000188a8       $chain$7$TA_MFI            00000001800838a8     ta_libc_csr:ta_MFI.obj
 0002:000188a8       $chain$2$TA_MFI            00000001800838a8     ta_libc_csr:ta_MFI.obj
 0002:000188b8       $chain$6$TA_MFI            00000001800838b8     ta_libc_csr:ta_MFI.obj
 0002:000188d4       $chain$3$TA_MFI            00000001800838d4     ta_libc_csr:ta_MFI.obj
 0002:000188ec       $unwind$__acrt_WideCharToMultiByte 00000001800838ec     libucrt:widechartomultibyte.obj
 0002:000188ec       $unwind$__GSHandlerCheckCommon 00000001800838ec     LIBCMT:gshandler.obj
 0002:000188ec       $unwind$TA_MIDPOINT        00000001800838ec     ta_libc_csr:ta_MIDPOINT.obj
 0002:000188f4       $chain$1$TA_MIDPOINT       00000001800838f4     ta_libc_csr:ta_MIDPOINT.obj
 0002:0001890c       $chain$2$TA_MIDPOINT       000000018008390c     ta_libc_csr:ta_MIDPOINT.obj
 0002:0001891c       $unwind$TA_MIDPRICE        000000018008391c     ta_libc_csr:ta_MIDPRICE.obj
 0002:00018928       $chain$0$TA_MIDPRICE       0000000180083928     ta_libc_csr:ta_MIDPRICE.obj
 0002:0001893c       $chain$2$TA_MIDPRICE       000000018008393c     ta_libc_csr:ta_MIDPRICE.obj
 0002:00018950       $chain$7$TA_MIDPRICE       0000000180083950     ta_libc_csr:ta_MIDPRICE.obj
 0002:00018970       $chain$8$TA_MIDPRICE       0000000180083970     ta_libc_csr:ta_MIDPRICE.obj
 0002:00018980       $chain$4$TA_MIN            0000000180083980     ta_libc_csr:ta_MIN.obj
 0002:000189a4       $chain$6$TA_MIN            00000001800839a4     ta_libc_csr:ta_MIN.obj
 0002:000189c8       $chain$7$TA_MIN            00000001800839c8     ta_libc_csr:ta_MIN.obj
 0002:000189d8       $chain$0$TA_MININDEX       00000001800839d8     ta_libc_csr:ta_MININDEX.obj
 0002:000189ec       $chain$2$TA_MININDEX       00000001800839ec     ta_libc_csr:ta_MININDEX.obj
 0002:00018a00       $chain$8$TA_MININDEX       0000000180083a00     ta_libc_csr:ta_MININDEX.obj
 0002:00018a24       $chain$10$TA_MININDEX      0000000180083a24     ta_libc_csr:ta_MININDEX.obj
 0002:00018a48       $chain$11$TA_MININDEX      0000000180083a48     ta_libc_csr:ta_MININDEX.obj
 0002:00018a58       $unwind$TA_MINMAX          0000000180083a58     ta_libc_csr:ta_MINMAX.obj
 0002:00018a64       $chain$0$TA_MINMAX         0000000180083a64     ta_libc_csr:ta_MINMAX.obj
 0002:00018a78       $chain$2$TA_MINMAX         0000000180083a78     ta_libc_csr:ta_MINMAX.obj
 0002:00018a8c       $chain$9$TA_MINMAX         0000000180083a8c     ta_libc_csr:ta_MINMAX.obj
 0002:00018ab4       $chain$11$TA_MINMAX        0000000180083ab4     ta_libc_csr:ta_MINMAX.obj
 0002:00018adc       $chain$12$TA_MINMAX        0000000180083adc     ta_libc_csr:ta_MINMAX.obj
 0002:00018aec       $chain$0$TA_MINMAXINDEX    0000000180083aec     ta_libc_csr:ta_MINMAXINDEX.obj
 0002:00018b00       $chain$2$TA_MINMAXINDEX    0000000180083b00     ta_libc_csr:ta_MINMAXINDEX.obj
 0002:00018b14       $chain$10$TA_MINMAXINDEX   0000000180083b14     ta_libc_csr:ta_MINMAXINDEX.obj
 0002:00018b40       $chain$12$TA_MINMAXINDEX   0000000180083b40     ta_libc_csr:ta_MINMAXINDEX.obj
 0002:00018b6c       $chain$13$TA_MINMAXINDEX   0000000180083b6c     ta_libc_csr:ta_MINMAXINDEX.obj
 0002:00018b7c       $unwind$TA_MINUS_DI        0000000180083b7c     ta_libc_csr:ta_MINUS_DI.obj
 0002:00018b88       $chain$1$TA_MINUS_DI       0000000180083b88     ta_libc_csr:ta_MINUS_DI.obj
 0002:00018ba0       $chain$2$TA_MINUS_DI       0000000180083ba0     ta_libc_csr:ta_MINUS_DI.obj
 0002:00018bb4       $chain$8$TA_MINUS_DI       0000000180083bb4     ta_libc_csr:ta_MINUS_DI.obj
 0002:00018bdc       $chain$9$TA_MINUS_DI       0000000180083bdc     ta_libc_csr:ta_MINUS_DI.obj
 0002:00018bec       $chain$10$TA_MINUS_DI      0000000180083bec     ta_libc_csr:ta_MINUS_DI.obj
 0002:00018bfc       $chain$16$TA_MINUS_DI      0000000180083bfc     ta_libc_csr:ta_MINUS_DI.obj
 0002:00018c40       $chain$17$TA_MINUS_DI      0000000180083c40     ta_libc_csr:ta_MINUS_DI.obj
 0002:00018c58       $chain$18$TA_MINUS_DI      0000000180083c58     ta_libc_csr:ta_MINUS_DI.obj
 0002:00018c6c       $chain$19$TA_MINUS_DI      0000000180083c6c     ta_libc_csr:ta_MINUS_DI.obj
 0002:00018c7c       $unwind$TA_MINUS_DM        0000000180083c7c     ta_libc_csr:ta_MINUS_DM.obj
 0002:00018c88       $chain$1$TA_MINUS_DM       0000000180083c88     ta_libc_csr:ta_MINUS_DM.obj
 0002:00018ca0       $chain$2$TA_MINUS_DM       0000000180083ca0     ta_libc_csr:ta_MINUS_DM.obj
 0002:00018cb4       $chain$3$TA_MINUS_DM       0000000180083cb4     ta_libc_csr:ta_MINUS_DM.obj
 0002:00018cc4       $chain$5$TA_MINUS_DM       0000000180083cc4     ta_libc_csr:ta_MINUS_DM.obj
 0002:00018ce0       $chain$8$TA_MINUS_DM       0000000180083ce0     ta_libc_csr:ta_MINUS_DM.obj
 0002:00018cfc       $chain$10$TA_MINUS_DM      0000000180083cfc     ta_libc_csr:ta_MINUS_DM.obj
 0002:00018d0c       $unwind$TA_MOM             0000000180083d0c     ta_libc_csr:ta_MOM.obj
 0002:00018d14       $chain$0$TA_MOM            0000000180083d14     ta_libc_csr:ta_MOM.obj
 0002:00018d28       $chain$3$TA_MOM            0000000180083d28     ta_libc_csr:ta_MOM.obj
 0002:00018d40       $chain$6$TA_MOM            0000000180083d40     ta_libc_csr:ta_MOM.obj
 0002:00018d5c       $chain$7$TA_MOM            0000000180083d5c     ta_libc_csr:ta_MOM.obj
 0002:00018d70       $chain$8$TA_MOM            0000000180083d70     ta_libc_csr:ta_MOM.obj
 0002:00018d80       $chain$9$TA_MOM            0000000180083d80     ta_libc_csr:ta_MOM.obj
 0002:00018d90       $chain$0$TA_MULT           0000000180083d90     ta_libc_csr:ta_MULT.obj
 0002:00018da4       $chain$3$TA_MULT           0000000180083da4     ta_libc_csr:ta_MULT.obj
 0002:00018dbc       $chain$5$TA_MULT           0000000180083dbc     ta_libc_csr:ta_MULT.obj
 0002:00018dd4       $chain$6$TA_MULT           0000000180083dd4     ta_libc_csr:ta_MULT.obj
 0002:00018de4       $chain$7$TA_MULT           0000000180083de4     ta_libc_csr:ta_MULT.obj
 0002:00018df4       $unwind$TA_NATR            0000000180083df4     ta_libc_csr:ta_NATR.obj
 0002:00018e04       $chain$1$TA_NATR           0000000180083e04     ta_libc_csr:ta_NATR.obj
 0002:00018e1c       $chain$2$TA_NATR           0000000180083e1c     ta_libc_csr:ta_NATR.obj
 0002:00018e30       $chain$3$TA_NATR           0000000180083e30     ta_libc_csr:ta_NATR.obj
 0002:00018e44       $chain$4$TA_NATR           0000000180083e44     ta_libc_csr:ta_NATR.obj
 0002:00018e54       $chain$5$TA_NATR           0000000180083e54     ta_libc_csr:ta_NATR.obj
 0002:00018e64       $chain$7$TA_NATR           0000000180083e64     ta_libc_csr:ta_NATR.obj
 0002:00018e84       $chain$9$TA_NATR           0000000180083e84     ta_libc_csr:ta_NATR.obj
 0002:00018e9c       $chain$10$TA_NATR          0000000180083e9c     ta_libc_csr:ta_NATR.obj
 0002:00018eac       $chain$11$TA_NATR          0000000180083eac     ta_libc_csr:ta_NATR.obj
 0002:00018ec4       $chain$12$TA_NATR          0000000180083ec4     ta_libc_csr:ta_NATR.obj
 0002:00018ed8       $chain$13$TA_NATR          0000000180083ed8     ta_libc_csr:ta_NATR.obj
 0002:00018ee8       $unwind$TA_OBV             0000000180083ee8     ta_libc_csr:ta_OBV.obj
 0002:00018ef4       $chain$0$TA_OBV            0000000180083ef4     ta_libc_csr:ta_OBV.obj
 0002:00018f08       $chain$3$TA_OBV            0000000180083f08     ta_libc_csr:ta_OBV.obj
 0002:00018f20       $chain$4$TA_OBV            0000000180083f20     ta_libc_csr:ta_OBV.obj
 0002:00018f30       $unwind$TA_PLUS_DI         0000000180083f30     ta_libc_csr:ta_PLUS_DI.obj
 0002:00018f3c       $chain$1$TA_PLUS_DI        0000000180083f3c     ta_libc_csr:ta_PLUS_DI.obj
 0002:00018f54       $chain$2$TA_PLUS_DI        0000000180083f54     ta_libc_csr:ta_PLUS_DI.obj
 0002:00018f68       $chain$8$TA_PLUS_DI        0000000180083f68     ta_libc_csr:ta_PLUS_DI.obj
 0002:00018f90       $chain$9$TA_PLUS_DI        0000000180083f90     ta_libc_csr:ta_PLUS_DI.obj
 0002:00018fa0       $chain$10$TA_PLUS_DI       0000000180083fa0     ta_libc_csr:ta_PLUS_DI.obj
 0002:00018fb0       $chain$12$TA_PLUS_DI       0000000180083fb0     ta_libc_csr:ta_PLUS_DI.obj
 0002:00018fe4       $chain$15$TA_PLUS_DI       0000000180083fe4     ta_libc_csr:ta_PLUS_DI.obj
 0002:00019000       $chain$17$TA_PLUS_DI       0000000180084000     ta_libc_csr:ta_PLUS_DI.obj
 0002:00019018       $chain$18$TA_PLUS_DI       0000000180084018     ta_libc_csr:ta_PLUS_DI.obj
 0002:0001902c       $chain$19$TA_PLUS_DI       000000018008402c     ta_libc_csr:ta_PLUS_DI.obj
 0002:0001903c       $unwind$TA_PLUS_DM         000000018008403c     ta_libc_csr:ta_PLUS_DM.obj
 0002:00019048       $chain$1$TA_PLUS_DM        0000000180084048     ta_libc_csr:ta_PLUS_DM.obj
 0002:00019060       $chain$2$TA_PLUS_DM        0000000180084060     ta_libc_csr:ta_PLUS_DM.obj
 0002:00019074       $chain$3$TA_PLUS_DM        0000000180084074     ta_libc_csr:ta_PLUS_DM.obj
 0002:00019084       $chain$5$TA_PLUS_DM        0000000180084084     ta_libc_csr:ta_PLUS_DM.obj
 0002:000190a0       $chain$7$TA_PLUS_DM        00000001800840a0     ta_libc_csr:ta_PLUS_DM.obj
 0002:000190b8       $chain$9$TA_PLUS_DM        00000001800840b8     ta_libc_csr:ta_PLUS_DM.obj
 0002:000190c8       $unwind$TA_PPO             00000001800840c8     ta_libc_csr:ta_PPO.obj
 0002:000190d8       $chain$0$TA_PPO            00000001800840d8     ta_libc_csr:ta_PPO.obj
 0002:000190ec       $chain$1$TA_PPO            00000001800840ec     ta_libc_csr:ta_PPO.obj
 0002:00019100       $chain$2$TA_PPO            0000000180084100     ta_libc_csr:ta_PPO.obj
 0002:00019114       $chain$3$TA_PPO            0000000180084114     ta_libc_csr:ta_PPO.obj
 0002:00019128       $chain$4$TA_PPO            0000000180084128     ta_libc_csr:ta_PPO.obj
 0002:00019138       $chain$5$TA_PPO            0000000180084138     ta_libc_csr:ta_PPO.obj
 0002:00019148       $chain$6$TA_PPO            0000000180084148     ta_libc_csr:ta_PPO.obj
 0002:00019158       $chain$8$TA_PPO            0000000180084158     ta_libc_csr:ta_PPO.obj
 0002:00019178       $chain$9$TA_PPO            0000000180084178     ta_libc_csr:ta_PPO.obj
 0002:00019190       $chain$10$TA_PPO           0000000180084190     ta_libc_csr:ta_PPO.obj
 0002:000191a4       $chain$11$TA_PPO           00000001800841a4     ta_libc_csr:ta_PPO.obj
 0002:000191b4       $unwind$TA_ROCR100         00000001800841b4     ta_libc_csr:ta_ROCR100.obj
 0002:000191b4       $unwind$TA_ROC             00000001800841b4     ta_libc_csr:ta_ROC.obj
 0002:000191b4       $unwind$TA_ROCR            00000001800841b4     ta_libc_csr:ta_ROCR.obj
 0002:000191b4       $unwind$TA_ROCP            00000001800841b4     ta_libc_csr:ta_ROCP.obj
 0002:000191bc       $chain$2$TA_ROC            00000001800841bc     ta_libc_csr:ta_ROC.obj
 0002:000191d8       $chain$3$TA_ROC            00000001800841d8     ta_libc_csr:ta_ROC.obj
 0002:000191ec       $chain$4$TA_ROC            00000001800841ec     ta_libc_csr:ta_ROC.obj
 0002:000191fc       $chain$5$TA_ROC            00000001800841fc     ta_libc_csr:ta_ROC.obj
 0002:0001920c       $chain$2$TA_ROCP           000000018008420c     ta_libc_csr:ta_ROCP.obj
 0002:00019228       $chain$3$TA_ROCP           0000000180084228     ta_libc_csr:ta_ROCP.obj
 0002:0001923c       $chain$4$TA_ROCP           000000018008423c     ta_libc_csr:ta_ROCP.obj
 0002:0001924c       $chain$5$TA_ROCP           000000018008424c     ta_libc_csr:ta_ROCP.obj
 0002:0001925c       $chain$2$TA_ROCR           000000018008425c     ta_libc_csr:ta_ROCR.obj
 0002:00019278       $chain$3$TA_ROCR           0000000180084278     ta_libc_csr:ta_ROCR.obj
 0002:0001928c       $chain$4$TA_ROCR           000000018008428c     ta_libc_csr:ta_ROCR.obj
 0002:0001929c       $chain$5$TA_ROCR           000000018008429c     ta_libc_csr:ta_ROCR.obj
 0002:000192ac       $chain$2$TA_ROCR100        00000001800842ac     ta_libc_csr:ta_ROCR100.obj
 0002:000192c8       $chain$3$TA_ROCR100        00000001800842c8     ta_libc_csr:ta_ROCR100.obj
 0002:000192dc       $chain$4$TA_ROCR100        00000001800842dc     ta_libc_csr:ta_ROCR100.obj
 0002:000192ec       $chain$5$TA_ROCR100        00000001800842ec     ta_libc_csr:ta_ROCR100.obj
 0002:000192fc       $chain$0$TA_RSI            00000001800842fc     ta_libc_csr:ta_RSI.obj
 0002:00019310       $chain$5$TA_RSI            0000000180084310     ta_libc_csr:ta_RSI.obj
 0002:00019330       $chain$9$TA_RSI            0000000180084330     ta_libc_csr:ta_RSI.obj
 0002:00019350       $chain$10$TA_RSI           0000000180084350     ta_libc_csr:ta_RSI.obj
 0002:00019360       $chain$12$TA_RSI           0000000180084360     ta_libc_csr:ta_RSI.obj
 0002:00019390       $chain$13$TA_RSI           0000000180084390     ta_libc_csr:ta_RSI.obj
 0002:000193a4       $chain$15$TA_RSI           00000001800843a4     ta_libc_csr:ta_RSI.obj
 0002:000193b4       $unwind$TA_SAR             00000001800843b4     ta_libc_csr:ta_SAR.obj
 0002:000193c4       $chain$1$TA_SAR            00000001800843c4     ta_libc_csr:ta_SAR.obj
 0002:000193dc       $chain$2$TA_SAR            00000001800843dc     ta_libc_csr:ta_SAR.obj
 0002:000193f0       $chain$3$TA_SAR            00000001800843f0     ta_libc_csr:ta_SAR.obj
 0002:00019404       $chain$4$TA_SAR            0000000180084404     ta_libc_csr:ta_SAR.obj
 0002:00019418       $chain$5$TA_SAR            0000000180084418     ta_libc_csr:ta_SAR.obj
 0002:0001942c       $chain$6$TA_SAR            000000018008442c     ta_libc_csr:ta_SAR.obj
 0002:0001943c       $chain$7$TA_SAR            000000018008443c     ta_libc_csr:ta_SAR.obj
 0002:0001944c       $chain$8$TA_SAR            000000018008444c     ta_libc_csr:ta_SAR.obj
 0002:0001945c       $chain$9$TA_SAR            000000018008445c     ta_libc_csr:ta_SAR.obj
 0002:0001946c       $chain$11$TA_SAR           000000018008446c     ta_libc_csr:ta_SAR.obj
 0002:00019494       $chain$12$TA_SAR           0000000180084494     ta_libc_csr:ta_SAR.obj
 0002:000194b0       $chain$13$TA_SAR           00000001800844b0     ta_libc_csr:ta_SAR.obj
 0002:000194c8       $chain$14$TA_SAR           00000001800844c8     ta_libc_csr:ta_SAR.obj
 0002:000194d8       $unwind$TA_SAREXT          00000001800844d8     ta_libc_csr:ta_SAREXT.obj
 0002:000194e8       $chain$1$TA_SAREXT         00000001800844e8     ta_libc_csr:ta_SAREXT.obj
 0002:00019500       $chain$2$TA_SAREXT         0000000180084500     ta_libc_csr:ta_SAREXT.obj
 0002:00019514       $chain$3$TA_SAREXT         0000000180084514     ta_libc_csr:ta_SAREXT.obj
 0002:00019528       $chain$4$TA_SAREXT         0000000180084528     ta_libc_csr:ta_SAREXT.obj
 0002:0001953c       $chain$5$TA_SAREXT         000000018008453c     ta_libc_csr:ta_SAREXT.obj
 0002:00019550       $chain$6$TA_SAREXT         0000000180084550     ta_libc_csr:ta_SAREXT.obj
 0002:00019564       $chain$7$TA_SAREXT         0000000180084564     ta_libc_csr:ta_SAREXT.obj
 0002:00019578       $chain$8$TA_SAREXT         0000000180084578     ta_libc_csr:ta_SAREXT.obj
 0002:0001958c       $chain$10$TA_SAREXT        000000018008458c     ta_libc_csr:ta_SAREXT.obj
 0002:000195a4       $chain$11$TA_SAREXT        00000001800845a4     ta_libc_csr:ta_SAREXT.obj
 0002:000195b4       $chain$12$TA_SAREXT        00000001800845b4     ta_libc_csr:ta_SAREXT.obj
 0002:000195c4       $chain$13$TA_SAREXT        00000001800845c4     ta_libc_csr:ta_SAREXT.obj
 0002:000195d4       $chain$14$TA_SAREXT        00000001800845d4     ta_libc_csr:ta_SAREXT.obj
 0002:000195e4       $chain$15$TA_SAREXT        00000001800845e4     ta_libc_csr:ta_SAREXT.obj
 0002:000195f4       $chain$16$TA_SAREXT        00000001800845f4     ta_libc_csr:ta_SAREXT.obj
 0002:00019604       $chain$17$TA_SAREXT        0000000180084604     ta_libc_csr:ta_SAREXT.obj
 0002:00019614       $chain$18$TA_SAREXT        0000000180084614     ta_libc_csr:ta_SAREXT.obj
 0002:00019624       $chain$20$TA_SAREXT        0000000180084624     ta_libc_csr:ta_SAREXT.obj
 0002:00019660       $chain$21$TA_SAREXT        0000000180084660     ta_libc_csr:ta_SAREXT.obj
 0002:00019674       $chain$22$TA_SAREXT        0000000180084674     ta_libc_csr:ta_SAREXT.obj
 0002:00019684       $chain$23$TA_SAREXT        0000000180084684     ta_libc_csr:ta_SAREXT.obj
 0002:000196b0       $chain$24$TA_SAREXT        00000001800846b0     ta_libc_csr:ta_SAREXT.obj
 0002:000196d8       $chain$25$TA_SAREXT        00000001800846d8     ta_libc_csr:ta_SAREXT.obj
 0002:000196fc       $chain$26$TA_SAREXT        00000001800846fc     ta_libc_csr:ta_SAREXT.obj
 0002:0001971c       $chain$27$TA_SAREXT        000000018008471c     ta_libc_csr:ta_SAREXT.obj
 0002:00019738       $chain$28$TA_SAREXT        0000000180084738     ta_libc_csr:ta_SAREXT.obj
 0002:00019750       $chain$29$TA_SAREXT        0000000180084750     ta_libc_csr:ta_SAREXT.obj
 0002:00019760       $unwind$TA_SAREXT_Lookback 0000000180084760     ta_libc_csr:ta_SAREXT.obj
 0002:0001976c       $chain$0$TA_SIN            000000018008476c     ta_libc_csr:ta_SIN.obj
 0002:00019780       $chain$3$TA_SIN            0000000180084780     ta_libc_csr:ta_SIN.obj
 0002:00019798       $chain$5$TA_SIN            0000000180084798     ta_libc_csr:ta_SIN.obj
 0002:000197b0       $chain$6$TA_SIN            00000001800847b0     ta_libc_csr:ta_SIN.obj
 0002:000197c0       $chain$7$TA_SIN            00000001800847c0     ta_libc_csr:ta_SIN.obj
 0002:000197d0       $chain$0$TA_SINH           00000001800847d0     ta_libc_csr:ta_SINH.obj
 0002:000197e4       $chain$3$TA_SINH           00000001800847e4     ta_libc_csr:ta_SINH.obj
 0002:000197fc       $chain$5$TA_SINH           00000001800847fc     ta_libc_csr:ta_SINH.obj
 0002:00019814       $chain$6$TA_SINH           0000000180084814     ta_libc_csr:ta_SINH.obj
 0002:00019824       $chain$7$TA_SINH           0000000180084824     ta_libc_csr:ta_SINH.obj
 0002:00019834       $unwind$TA_INT_VAR         0000000180084834     ta_libc_csr:ta_VAR.obj
 0002:00019834       $unwind$TA_INT_SMA         0000000180084834     ta_libc_csr:ta_SMA.obj
 0002:00019844       $unwind$TA_SQRT            0000000180084844     ta_libc_csr:ta_SQRT.obj
 0002:00019850       $chain$0$TA_SQRT           0000000180084850     ta_libc_csr:ta_SQRT.obj
 0002:00019864       $chain$5$TA_SQRT           0000000180084864     ta_libc_csr:ta_SQRT.obj
 0002:00019884       $chain$6$TA_SQRT           0000000180084884     ta_libc_csr:ta_SQRT.obj
 0002:00019898       $chain$7$TA_SQRT           0000000180084898     ta_libc_csr:ta_SQRT.obj
 0002:000198a8       $chain$8$TA_SQRT           00000001800848a8     ta_libc_csr:ta_SQRT.obj
 0002:000198b8       $chain$2$TA_STDDEV         00000001800848b8     ta_libc_csr:ta_STDDEV.obj
 0002:000198d4       $chain$5$TA_STDDEV         00000001800848d4     ta_libc_csr:ta_STDDEV.obj
 0002:000198f4       $chain$7$TA_STDDEV         00000001800848f4     ta_libc_csr:ta_STDDEV.obj
 0002:0001990c       $chain$8$TA_STDDEV         000000018008490c     ta_libc_csr:ta_STDDEV.obj
 0002:0001991c       $chain$10$TA_STDDEV        000000018008491c     ta_libc_csr:ta_STDDEV.obj
 0002:00019934       $chain$11$TA_STDDEV        0000000180084934     ta_libc_csr:ta_STDDEV.obj
 0002:00019944       $unwind$TA_INT_stddev_using_precalc_ma 0000000180084944     ta_libc_csr:ta_STDDEV.obj
 0002:00019958       $chain$3$TA_INT_stddev_using_precalc_ma 0000000180084958     ta_libc_csr:ta_STDDEV.obj
 0002:00019978       $chain$4$TA_INT_stddev_using_precalc_ma 0000000180084978     ta_libc_csr:ta_STDDEV.obj
 0002:00019988       $unwind$TA_STOCH           0000000180084988     ta_libc_csr:ta_STOCH.obj
 0002:00019998       $chain$0$TA_STOCH          0000000180084998     ta_libc_csr:ta_STOCH.obj
 0002:000199ac       $chain$1$TA_STOCH          00000001800849ac     ta_libc_csr:ta_STOCH.obj
 0002:000199c0       $chain$3$TA_STOCH          00000001800849c0     ta_libc_csr:ta_STOCH.obj
 0002:000199d8       $chain$4$TA_STOCH          00000001800849d8     ta_libc_csr:ta_STOCH.obj
 0002:000199e8       $chain$5$TA_STOCH          00000001800849e8     ta_libc_csr:ta_STOCH.obj
 0002:000199f8       $chain$11$TA_STOCH         00000001800849f8     ta_libc_csr:ta_STOCH.obj
 0002:00019a18       $chain$7$TA_STOCH          0000000180084a18     ta_libc_csr:ta_STOCH.obj
 0002:00019a38       $chain$12$TA_STOCH         0000000180084a38     ta_libc_csr:ta_STOCH.obj
 0002:00019a4c       $chain$13$TA_STOCH         0000000180084a4c     ta_libc_csr:ta_STOCH.obj
 0002:00019a5c       $unwind$TA_STOCH_Lookback  0000000180084a5c     ta_libc_csr:ta_STOCH.obj
 0002:00019a68       $chain$0$TA_STOCH_Lookback 0000000180084a68     ta_libc_csr:ta_STOCH.obj
 0002:00019a7c       $chain$2$TA_STOCH_Lookback 0000000180084a7c     ta_libc_csr:ta_STOCH.obj
 0002:00019a90       $chain$3$TA_STOCH_Lookback 0000000180084a90     ta_libc_csr:ta_STOCH.obj
 0002:00019aa0       $unwind$TA_STOCHF          0000000180084aa0     ta_libc_csr:ta_STOCHF.obj
 0002:00019ab0       $chain$0$TA_STOCHF         0000000180084ab0     ta_libc_csr:ta_STOCHF.obj
 0002:00019ac4       $chain$1$TA_STOCHF         0000000180084ac4     ta_libc_csr:ta_STOCHF.obj
 0002:00019ad8       $chain$7$TA_STOCHF         0000000180084ad8     ta_libc_csr:ta_STOCHF.obj
 0002:00019b00       $chain$8$TA_STOCHF         0000000180084b00     ta_libc_csr:ta_STOCHF.obj
 0002:00019b14       $chain$9$TA_STOCHF         0000000180084b14     ta_libc_csr:ta_STOCHF.obj
 0002:00019b24       $chain$10$TA_STOCHF        0000000180084b24     ta_libc_csr:ta_STOCHF.obj
 0002:00019b34       $chain$12$TA_STOCHF        0000000180084b34     ta_libc_csr:ta_STOCHF.obj
 0002:00019b50       $chain$13$TA_STOCHF        0000000180084b50     ta_libc_csr:ta_STOCHF.obj
 0002:00019b64       $chain$14$TA_STOCHF        0000000180084b64     ta_libc_csr:ta_STOCHF.obj
 0002:00019b74       $unwind$TA_STOCHRSI        0000000180084b74     ta_libc_csr:ta_STOCHRSI.obj
 0002:00019b84       $chain$0$TA_STOCHRSI       0000000180084b84     ta_libc_csr:ta_STOCHRSI.obj
 0002:00019b98       $chain$1$TA_STOCHRSI       0000000180084b98     ta_libc_csr:ta_STOCHRSI.obj
 0002:00019bac       $chain$2$TA_STOCHRSI       0000000180084bac     ta_libc_csr:ta_STOCHRSI.obj
 0002:00019bc0       $chain$4$TA_STOCHRSI       0000000180084bc0     ta_libc_csr:ta_STOCHRSI.obj
 0002:00019bd8       $chain$5$TA_STOCHRSI       0000000180084bd8     ta_libc_csr:ta_STOCHRSI.obj
 0002:00019be8       $chain$6$TA_STOCHRSI       0000000180084be8     ta_libc_csr:ta_STOCHRSI.obj
 0002:00019bf8       $chain$7$TA_STOCHRSI       0000000180084bf8     ta_libc_csr:ta_STOCHRSI.obj
 0002:00019c08       $chain$9$TA_STOCHRSI       0000000180084c08     ta_libc_csr:ta_STOCHRSI.obj
 0002:00019c2c       $chain$10$TA_STOCHRSI      0000000180084c2c     ta_libc_csr:ta_STOCHRSI.obj
 0002:00019c48       $chain$11$TA_STOCHRSI      0000000180084c48     ta_libc_csr:ta_STOCHRSI.obj
 0002:00019c60       $chain$12$TA_STOCHRSI      0000000180084c60     ta_libc_csr:ta_STOCHRSI.obj
 0002:00019c74       $chain$13$TA_STOCHRSI      0000000180084c74     ta_libc_csr:ta_STOCHRSI.obj
 0002:00019c84       $chain$0$TA_STOCHRSI_Lookback 0000000180084c84     ta_libc_csr:ta_STOCHRSI.obj
 0002:00019c98       $chain$1$TA_STOCHRSI_Lookback 0000000180084c98     ta_libc_csr:ta_STOCHRSI.obj
 0002:00019ca8       $chain$0$TA_SUB            0000000180084ca8     ta_libc_csr:ta_SUB.obj
 0002:00019cbc       $chain$3$TA_SUB            0000000180084cbc     ta_libc_csr:ta_SUB.obj
 0002:00019cd4       $chain$5$TA_SUB            0000000180084cd4     ta_libc_csr:ta_SUB.obj
 0002:00019cec       $chain$6$TA_SUB            0000000180084cec     ta_libc_csr:ta_SUB.obj
 0002:00019cfc       $chain$7$TA_SUB            0000000180084cfc     ta_libc_csr:ta_SUB.obj
 0002:00019d0c       $unwind$TA_SUM             0000000180084d0c     ta_libc_csr:ta_SUM.obj
 0002:00019d18       $chain$1$TA_SUM            0000000180084d18     ta_libc_csr:ta_SUM.obj
 0002:00019d30       $chain$2$TA_SUM            0000000180084d30     ta_libc_csr:ta_SUM.obj
 0002:00019d44       $chain$3$TA_SUM            0000000180084d44     ta_libc_csr:ta_SUM.obj
 0002:00019d54       $unwind$TA_T3              0000000180084d54     ta_libc_csr:ta_T3.obj
 0002:00019d64       $chain$0$TA_T3             0000000180084d64     ta_libc_csr:ta_T3.obj
 0002:00019d78       $chain$1$TA_T3             0000000180084d78     ta_libc_csr:ta_T3.obj
 0002:00019d8c       $chain$2$TA_T3             0000000180084d8c     ta_libc_csr:ta_T3.obj
 0002:00019d9c       $chain$4$TA_T3             0000000180084d9c     ta_libc_csr:ta_T3.obj
 0002:00019db4       $chain$13$TA_T3            0000000180084db4     ta_libc_csr:ta_T3.obj
 0002:00019de8       $chain$15$TA_T3            0000000180084de8     ta_libc_csr:ta_T3.obj
 0002:00019dfc       $chain$16$TA_T3            0000000180084dfc     ta_libc_csr:ta_T3.obj
 0002:00019e0c       $chain$0$TA_TAN            0000000180084e0c     ta_libc_csr:ta_TAN.obj
 0002:00019e20       $chain$3$TA_TAN            0000000180084e20     ta_libc_csr:ta_TAN.obj
 0002:00019e38       $chain$5$TA_TAN            0000000180084e38     ta_libc_csr:ta_TAN.obj
 0002:00019e50       $chain$6$TA_TAN            0000000180084e50     ta_libc_csr:ta_TAN.obj
 0002:00019e60       $chain$7$TA_TAN            0000000180084e60     ta_libc_csr:ta_TAN.obj
 0002:00019e70       $chain$0$TA_TANH           0000000180084e70     ta_libc_csr:ta_TANH.obj
 0002:00019e84       $chain$3$TA_TANH           0000000180084e84     ta_libc_csr:ta_TANH.obj
 0002:00019e9c       $chain$5$TA_TANH           0000000180084e9c     ta_libc_csr:ta_TANH.obj
 0002:00019eb4       $chain$6$TA_TANH           0000000180084eb4     ta_libc_csr:ta_TANH.obj
 0002:00019ec4       $chain$7$TA_TANH           0000000180084ec4     ta_libc_csr:ta_TANH.obj
 0002:00019ed4       $unwind$TA_TEMA            0000000180084ed4     ta_libc_csr:ta_TEMA.obj
 0002:00019ee4       $chain$0$TA_TEMA           0000000180084ee4     ta_libc_csr:ta_TEMA.obj
 0002:00019ef8       $chain$2$TA_TEMA           0000000180084ef8     ta_libc_csr:ta_TEMA.obj
 0002:00019f10       $chain$3$TA_TEMA           0000000180084f10     ta_libc_csr:ta_TEMA.obj
 0002:00019f24       $chain$4$TA_TEMA           0000000180084f24     ta_libc_csr:ta_TEMA.obj
 0002:00019f38       $chain$5$TA_TEMA           0000000180084f38     ta_libc_csr:ta_TEMA.obj
 0002:00019f48       $chain$6$TA_TEMA           0000000180084f48     ta_libc_csr:ta_TEMA.obj
 0002:00019f58       $chain$7$TA_TEMA           0000000180084f58     ta_libc_csr:ta_TEMA.obj
 0002:00019f68       $chain$9$TA_TEMA           0000000180084f68     ta_libc_csr:ta_TEMA.obj
 0002:00019f8c       $chain$10$TA_TEMA          0000000180084f8c     ta_libc_csr:ta_TEMA.obj
 0002:00019f9c       $chain$0$TA_TRANGE         0000000180084f9c     ta_libc_csr:ta_TRANGE.obj
 0002:00019fb0       $chain$3$TA_TRANGE         0000000180084fb0     ta_libc_csr:ta_TRANGE.obj
 0002:00019fc8       $chain$5$TA_TRANGE         0000000180084fc8     ta_libc_csr:ta_TRANGE.obj
 0002:00019fe0       $chain$10$TA_TRANGE        0000000180084fe0     ta_libc_csr:ta_TRANGE.obj
 0002:0001a004       $chain$11$TA_TRANGE        0000000180085004     ta_libc_csr:ta_TRANGE.obj
 0002:0001a014       $chain$12$TA_TRANGE        0000000180085014     ta_libc_csr:ta_TRANGE.obj
 0002:0001a024       $unwind$TA_TRIMA           0000000180085024     ta_libc_csr:ta_TRIMA.obj
 0002:0001a02c       $chain$0$TA_TRIMA          000000018008502c     ta_libc_csr:ta_TRIMA.obj
 0002:0001a040       $chain$2$TA_TRIMA          0000000180085040     ta_libc_csr:ta_TRIMA.obj
 0002:0001a054       $chain$11$TA_TRIMA         0000000180085054     ta_libc_csr:ta_TRIMA.obj
 0002:0001a084       $chain$12$TA_TRIMA         0000000180085084     ta_libc_csr:ta_TRIMA.obj
 0002:0001a094       $unwind$TA_TRIX            0000000180085094     ta_libc_csr:ta_TRIX.obj
 0002:0001a0a0       $chain$1$TA_TRIX           00000001800850a0     ta_libc_csr:ta_TRIX.obj
 0002:0001a0b8       $chain$4$TA_TRIX           00000001800850b8     ta_libc_csr:ta_TRIX.obj
 0002:0001a0d4       $chain$5$TA_TRIX           00000001800850d4     ta_libc_csr:ta_TRIX.obj
 0002:0001a0e8       $chain$6$TA_TRIX           00000001800850e8     ta_libc_csr:ta_TRIX.obj
 0002:0001a0f8       $chain$7$TA_TRIX           00000001800850f8     ta_libc_csr:ta_TRIX.obj
 0002:0001a108       $chain$9$TA_TRIX           0000000180085108     ta_libc_csr:ta_TRIX.obj
 0002:0001a130       $chain$10$TA_TRIX          0000000180085130     ta_libc_csr:ta_TRIX.obj
 0002:0001a140       $chain$0$TA_TRIX_Lookback  0000000180085140     ta_libc_csr:ta_TRIX.obj
 0002:0001a154       $chain$1$TA_TRIX_Lookback  0000000180085154     ta_libc_csr:ta_TRIX.obj
 0002:0001a164       $chain$0$TA_TSF            0000000180085164     ta_libc_csr:ta_TSF.obj
 0002:0001a178       $chain$5$TA_TSF            0000000180085178     ta_libc_csr:ta_TSF.obj
 0002:0001a178       $chain$1$TA_TSF            0000000180085178     ta_libc_csr:ta_TSF.obj
 0002:0001a188       $chain$2$TA_TSF            0000000180085188     ta_libc_csr:ta_TSF.obj
 0002:0001a19c       $chain$3$TA_TSF            000000018008519c     ta_libc_csr:ta_TSF.obj
 0002:0001a1b0       $chain$0$TA_TYPPRICE       00000001800851b0     ta_libc_csr:ta_TYPPRICE.obj
 0002:0001a1c4       $chain$3$TA_TYPPRICE       00000001800851c4     ta_libc_csr:ta_TYPPRICE.obj
 0002:0001a1dc       $chain$8$TA_TYPPRICE       00000001800851dc     ta_libc_csr:ta_TYPPRICE.obj
 0002:0001a200       $chain$9$TA_TYPPRICE       0000000180085200     ta_libc_csr:ta_TYPPRICE.obj
 0002:0001a210       $chain$10$TA_TYPPRICE      0000000180085210     ta_libc_csr:ta_TYPPRICE.obj
 0002:0001a220       $unwind$TA_ULTOSC          0000000180085220     ta_libc_csr:ta_ULTOSC.obj
 0002:0001a238       $chain$0$TA_ULTOSC         0000000180085238     ta_libc_csr:ta_ULTOSC.obj
 0002:0001a24c       $chain$3$TA_ULTOSC         000000018008524c     ta_libc_csr:ta_ULTOSC.obj
 0002:0001a268       $chain$4$TA_ULTOSC         0000000180085268     ta_libc_csr:ta_ULTOSC.obj
 0002:0001a278       $chain$5$TA_ULTOSC         0000000180085278     ta_libc_csr:ta_ULTOSC.obj
 0002:0001a278       $chain$19$TA_ULTOSC        0000000180085278     ta_libc_csr:ta_ULTOSC.obj
 0002:0001a288       $chain$15$TA_ULTOSC        0000000180085288     ta_libc_csr:ta_ULTOSC.obj
 0002:0001a2cc       $chain$16$TA_ULTOSC        00000001800852cc     ta_libc_csr:ta_ULTOSC.obj
 0002:0001a2e0       $chain$17$TA_ULTOSC        00000001800852e0     ta_libc_csr:ta_ULTOSC.obj
 0002:0001a2f0       $chain$18$TA_ULTOSC        00000001800852f0     ta_libc_csr:ta_ULTOSC.obj
 0002:0001a304       $chain$0$TA_WCLPRICE       0000000180085304     ta_libc_csr:ta_WCLPRICE.obj
 0002:0001a318       $chain$3$TA_WCLPRICE       0000000180085318     ta_libc_csr:ta_WCLPRICE.obj
 0002:0001a330       $chain$8$TA_WCLPRICE       0000000180085330     ta_libc_csr:ta_WCLPRICE.obj
 0002:0001a354       $chain$9$TA_WCLPRICE       0000000180085354     ta_libc_csr:ta_WCLPRICE.obj
 0002:0001a364       $chain$10$TA_WCLPRICE      0000000180085364     ta_libc_csr:ta_WCLPRICE.obj
 0002:0001a374       $unwind$TA_WILLR           0000000180085374     ta_libc_csr:ta_WILLR.obj
 0002:0001a380       $chain$5$TA_WILLR          0000000180085380     ta_libc_csr:ta_WILLR.obj
 0002:0001a3a8       $chain$6$TA_WILLR          00000001800853a8     ta_libc_csr:ta_WILLR.obj
 0002:0001a3b8       $unwind$TA_WMA             00000001800853b8     ta_libc_csr:ta_WMA.obj
 0002:0001a3c4       $chain$0$TA_WMA            00000001800853c4     ta_libc_csr:ta_WMA.obj
 0002:0001a3d8       $chain$3$TA_WMA            00000001800853d8     ta_libc_csr:ta_WMA.obj
 0002:0001a3f0       $chain$5$TA_WMA            00000001800853f0     ta_libc_csr:ta_WMA.obj
 0002:0001a408       $chain$10$TA_WMA           0000000180085408     ta_libc_csr:ta_WMA.obj
 0002:0001a42c       $chain$12$TA_WMA           000000018008542c     ta_libc_csr:ta_WMA.obj
 0002:0001a444       $chain$13$TA_WMA           0000000180085444     ta_libc_csr:ta_WMA.obj
 0002:0001a454       $chain$15$TA_WMA           0000000180085454     ta_libc_csr:ta_WMA.obj
 0002:0001a468       $xdatasym                  0000000180085468     LIBCMT:amdsecgs.obj
 0002:0001a46c       $unwind$?dllmain_crt_process_attach@@YAHQEAUHINSTANCE__@@QEAX@Z 000000018008546c     LIBCMT:dll_dllmain.obj
 0002:0001a4a8       $unwind$?fin$0@?0???$?RV<lambda_aa87e3671a710a21b5dc78c0bdf72e11>@@AEAV<lambda_92619d2358a28f41a33ba319515a20b9>@@V<lambda_6992ecaafeb10aed2b74cb1fae11a551>@@@?$__crt_seh_guarded_call@X@@QEAAX$$QEAV<lambda_aa87e3671a710a21b5dc78c0bdf72e11>@@AEAV<lambda_92619d2358a28f41a33ba319515a20b9>@@$$QEAV<lambda_6992ecaafeb10aed2b74cb1fae11a551>@@@Z@4HA 00000001800854a8     libucrt:per_thread_data.obj
 0002:0001a4a8       $unwind$fclose$fin$0       00000001800854a8     libucrt:fclose.obj
 0002:0001a4a8       $unwind$_IsNonwritableInCurrentImage$filt$0 00000001800854a8     LIBCMT:pesect.obj
 0002:0001a4a8       $unwind$_ctrlfp$filt$0     00000001800854a8     libucrt:fpctrl.obj
 0002:0001a4a8       $unwind$?fin$0@?0???$?RV<lambda_7777bce6b2f8c936911f934f8298dc43>@@AEAV<lambda_f03950bc5685219e0bcd2087efbe011e>@@V<lambda_3883c3dff614d5e0c5f61bb1ac94921c>@@@?$__crt_seh_guarded_call@H@@QEAAH$$QEAV<lambda_7777bce6b2f8c936911f934f8298dc43>@@AEAV<lambda_f03950bc5685219e0bcd2087efbe011e>@@$$QEAV<lambda_3883c3dff614d5e0c5f61bb1ac94921c>@@@Z@4HA 00000001800854a8     libucrt:onexit.obj
 0002:0001a4a8       $unwind$?fin$0@?0???$?RV<lambda_84ec643ea9557e2f7dc01bb0e9624395>@@AEAV<lambda_ca71763b3c0644891230e4f79ea54fa6>@@V<lambda_439a761618c59b0600e24586724d733b>@@@?$__crt_seh_guarded_call@H@@QEAAH$$QEAV<lambda_84ec643ea9557e2f7dc01bb0e9624395>@@AEAV<lambda_ca71763b3c0644891230e4f79ea54fa6>@@$$QEAV<lambda_439a761618c59b0600e24586724d733b>@@@Z@4HA 00000001800854a8     libucrt:setvbuf.obj
 0002:0001a4a8       $unwind$?fin$0@?0???$?RV<lambda_0d412022a4b28cc8a401ea49574e8ae6>@@AEAV<lambda_a775ed57af18ba8e4d5dc780aa9068fe>@@V<lambda_975a71a6baa488a08f4e15f6b0339b9e>@@@?$__crt_seh_guarded_call@H@@QEAAH$$QEAV<lambda_0d412022a4b28cc8a401ea49574e8ae6>@@AEAV<lambda_a775ed57af18ba8e4d5dc780aa9068fe>@@$$QEAV<lambda_975a71a6baa488a08f4e15f6b0339b9e>@@@Z@4HA 00000001800854a8     libucrt:output.obj
 0002:0001a4a8       $unwind$__DestructExceptionObject$filt$0 00000001800854a8     libvcruntime:ehhelpers.obj
 0002:0001a4a8       $unwind$?fin$0@?0???$?RV<lambda_a37b2b86f63e897a80ea819b0eb08c01>@@AEAV<lambda_38ce7e780aa69e748d6df282ebc68efe>@@V<lambda_99fb1378e971ab6e7edea83e3a7a83a2>@@@?$__crt_seh_guarded_call@H@@QEAAH$$QEAV<lambda_a37b2b86f63e897a80ea819b0eb08c01>@@AEAV<lambda_38ce7e780aa69e748d6df282ebc68efe>@@$$QEAV<lambda_99fb1378e971ab6e7edea83e3a7a83a2>@@@Z@4HA 00000001800854a8     libucrt:commit.obj
 0002:0001a4a8       $unwind$?fin$0@?0???$?RV<lambda_0ae27a3a962d80f24befdcbee591983d>@@AEAV<lambda_8d0ee55de4b1038c4002e0adecdf1839>@@V<lambda_dc504788e8f1664fe9b84e20bfb512f2>@@@?$__crt_seh_guarded_call@X@@QEAAX$$QEAV<lambda_0ae27a3a962d80f24befdcbee591983d>@@AEAV<lambda_8d0ee55de4b1038c4002e0adecdf1839>@@$$QEAV<lambda_dc504788e8f1664fe9b84e20bfb512f2>@@@Z@4HA 00000001800854a8     libucrt:per_thread_data.obj
 0002:0001a4a8       $unwind$?fin$0@?0???$?RV<lambda_842d9ff0dc9ef11c61343bbaebe7f885>@@AEAV<lambda_c5860995281e5c4ce005b3de8f5874ee>@@V<lambda_d90129c13df834fdcbf8d2b88dafcf2d>@@@?$__crt_seh_guarded_call@X@@QEAAX$$QEAV<lambda_842d9ff0dc9ef11c61343bbaebe7f885>@@AEAV<lambda_c5860995281e5c4ce005b3de8f5874ee>@@$$QEAV<lambda_d90129c13df834fdcbf8d2b88dafcf2d>@@@Z@4HA 00000001800854a8     libucrt:fflush.obj
 0002:0001a4a8       $unwind$?fin$0@?0??update_thread_multibyte_data_internal@@YAPEAU__crt_multibyte_data@@QEAU__acrt_ptd@@QEAPEAU1@@Z@4HA 00000001800854a8     libucrt:mbctype.obj
 0002:0001a4a8       $unwind$?fin$0@?0???$?RV<lambda_f2e299630e499de9f9a165e60fcd3db5>@@AEAV<lambda_2ae9d31cdba2644fcbeaf08da7c24588>@@V<lambda_40d01ff24d0e7b3814fdbdcee8eab3c7>@@@?$__crt_seh_guarded_call@X@@QEAAX$$QEAV<lambda_f2e299630e499de9f9a165e60fcd3db5>@@AEAV<lambda_2ae9d31cdba2644fcbeaf08da7c24588>@@$$QEAV<lambda_40d01ff24d0e7b3814fdbdcee8eab3c7>@@@Z@4HA 00000001800854a8     libucrt:per_thread_data.obj
 0002:0001a4a8       $unwind$?fin$0@?0???$common_lseek@_J@@YA_JH_JH@Z@4HA 00000001800854a8     libucrt:lseek.obj
 0002:0001a4a8       $unwind$?fin$0@?0???$?RV<lambda_410d79af7f07d98d83a3f525b3859a53>@@AEAV<lambda_3e16ef9562a7dcce91392c22ab16ea36>@@V<lambda_38119f0e861e05405d8a144b9b982f0a>@@@?$__crt_seh_guarded_call@X@@QEAAX$$QEAV<lambda_410d79af7f07d98d83a3f525b3859a53>@@AEAV<lambda_3e16ef9562a7dcce91392c22ab16ea36>@@$$QEAV<lambda_38119f0e861e05405d8a144b9b982f0a>@@@Z@4HA 00000001800854a8     libucrt:wsetlocale.obj
 0002:0001a4a8       $unwind$?filt$0@?0???R<lambda_6e4b09c48022b2350581041d5f6b0c4c>@@QEBA@XZ@4HA 00000001800854a8     libucrt:exit.obj
 0002:0001a4a8       $unwind$raise$fin$0        00000001800854a8     libucrt:signal.obj
 0002:0001a4a8       $unwind$_query_new_handler$fin$0 00000001800854a8     libucrt:new_handler.obj
 0002:0001a4a8       $unwind$?fin$0@?0???$?RV<lambda_2d41944a1d46af3157314b8a01080d33>@@AEAV<lambda_8f455de75cd7d7f24b4096f044d8b9e6>@@V<lambda_aa500f224e6afead328df44964fe2772>@@@?$__crt_seh_guarded_call@X@@QEAAX$$QEAV<lambda_2d41944a1d46af3157314b8a01080d33>@@AEAV<lambda_8f455de75cd7d7f24b4096f044d8b9e6>@@$$QEAV<lambda_aa500f224e6afead328df44964fe2772>@@@Z@4HA 00000001800854a8     libucrt:per_thread_data.obj
 0002:0001a4a8       $unwind$?fin$0@?0??dllmain_crt_process_attach@@YAHQEAUHINSTANCE__@@QEAX@Z@4HA 00000001800854a8     LIBCMT:dll_dllmain.obj
 0002:0001a4a8       $unwind$?fin$0@?0???$?RV<lambda_c376a267cfb53b6959b3b692ec76b120>@@AEAV<lambda_9a32fed5bf61b6b509b2d3f6003082a1>@@V<lambda_572fbb9fa0ab338edf41edfd4b5fcc8d>@@@?$__crt_seh_guarded_call@H@@QEAAH$$QEAV<lambda_c376a267cfb53b6959b3b692ec76b120>@@AEAV<lambda_9a32fed5bf61b6b509b2d3f6003082a1>@@$$QEAV<lambda_572fbb9fa0ab338edf41edfd4b5fcc8d>@@@Z@4HA 00000001800854a8     libucrt:fflush.obj
 0002:0001a4a8       $unwind$?fin$0@?0???$?RV<lambda_d80eeec6fff315bfe5c115232f3240e3>@@AEAV<lambda_6e4b09c48022b2350581041d5f6b0c4c>@@V<lambda_2358e3775559c9db80273638284d5e45>@@@?$__crt_seh_guarded_call@X@@QEAAX$$QEAV<lambda_d80eeec6fff315bfe5c115232f3240e3>@@AEAV<lambda_6e4b09c48022b2350581041d5f6b0c4c>@@$$QEAV<lambda_2358e3775559c9db80273638284d5e45>@@@Z@4HA 00000001800854a8     libucrt:exit.obj
 0002:0001a4a8       $unwind$__acrt_update_thread_locale_data$fin$0 00000001800854a8     libucrt:locale_refcounting.obj
 0002:0001a4a8       $unwind$?fin$0@?0???$?RV<lambda_886d6c58226a84441f68b9f2b8217b83>@@AEAV<lambda_ab61a845afdef5b7c387490eaf3616ee>@@V<lambda_f7f22ab5edc0698d5f6905b0d3f44752>@@@?$__crt_seh_guarded_call@X@@QEAAX$$QEAV<lambda_886d6c58226a84441f68b9f2b8217b83>@@AEAV<lambda_ab61a845afdef5b7c387490eaf3616ee>@@$$QEAV<lambda_f7f22ab5edc0698d5f6905b0d3f44752>@@@Z@4HA 00000001800854a8     libucrt:fflush.obj
 0002:0001a4a8       $unwind$_write$fin$0       00000001800854a8     libucrt:write.obj
 0002:0001a4a8       $unwind$?fin$0@?0???$?RV<lambda_751a882b2c74d4b022dec766aa51a29a>@@AEAV<lambda_628dfdc04ba53c8bfc02c9951375f3f5>@@V<lambda_f6c7be5f7998530c34de24c7437d6b54>@@@?$__crt_seh_guarded_call@H@@QEAAH$$QEAV<lambda_751a882b2c74d4b022dec766aa51a29a>@@AEAV<lambda_628dfdc04ba53c8bfc02c9951375f3f5>@@$$QEAV<lambda_f6c7be5f7998530c34de24c7437d6b54>@@@Z@4HA 00000001800854a8     libucrt:close.obj
 0002:0001a4a8       $unwind$__acrt_lowio_ensure_fh_exists$fin$0 00000001800854a8     libucrt:osfinfo.obj
 0002:0001a4a8       $unwind$?fin$0@?0???$?RV<lambda_450d765d439847d4c735a33c368b5fc0>@@AEAV<lambda_44731a7d0e6d81c3e6aa82d741081786>@@V<lambda_601a2a7da3b7a96e9554ac7215c4b07c>@@@?$__crt_seh_guarded_call@P6AXH@Z@@QEAAP6AXH@Z$$QEAV<lambda_450d765d439847d4c735a33c368b5fc0>@@AEAV<lambda_44731a7d0e6d81c3e6aa82d741081786>@@$$QEAV<lambda_601a2a7da3b7a96e9554ac7215c4b07c>@@@Z@4HA 00000001800854a8     libucrt:signal.obj
 0002:0001a4a8       $unwind$?fin$0@?0??dllmain_crt_process_detach@@YAH_N@Z@4HA 00000001800854a8     LIBCMT:dll_dllmain.obj
 0002:0001a4a8       $unwind$__acrt_initialize_lowio$fin$0 00000001800854a8     libucrt:ioinit.obj
 0002:0001a4a8       $unwind$_fcloseall$fin$0   00000001800854a8     libucrt:closeall.obj
 0002:0001a4a8       $unwind$?fin$0@?0???$?RV<lambda_efdfa57d1f175319df784efa44bb7b81>@@AEAV<lambda_5f0a4c1567f8adc6734073e5d1e1b35c>@@V<lambda_2e8a7d3640ea6ccb4c2413664c2db6fd>@@@?$__crt_seh_guarded_call@X@@QEAAX$$QEAV<lambda_efdfa57d1f175319df784efa44bb7b81>@@AEAV<lambda_5f0a4c1567f8adc6734073e5d1e1b35c>@@$$QEAV<lambda_2e8a7d3640ea6ccb4c2413664c2db6fd>@@@Z@4HA 00000001800854a8     libucrt:mbctype.obj
 0002:0001a4b0       $unwind$?dllmain_crt_process_detach@@YAH_N@Z 00000001800854b0     LIBCMT:dll_dllmain.obj
 0002:0001a4e8       $unwind$?dllmain_dispatch@@YAHQEAUHINSTANCE__@@KQEAX@Z 00000001800854e8     LIBCMT:dll_dllmain.obj
 0002:0001a510       $unwind$?filt$0@?0??dllmain_dispatch@@YAHQEAUHINSTANCE__@@KQEAX@Z@4HA 0000000180085510     LIBCMT:dll_dllmain.obj
 0002:0001a518       $unwind$?type_case_Z@?$output_processor@_WV?$string_output_adapter@_W@__crt_stdio_output@@V?$standard_base@_WV?$string_output_adapter@_W@__crt_stdio_output@@@2@@__crt_stdio_output@@AEAA_NXZ 0000000180085518     libucrt:output.obj
 0002:0001a518       $unwind$__acrt_InitializeCriticalSectionEx 0000000180085518     libucrt:winapi_thunks.obj
 0002:0001a518       $unwind$__vcrt_InitializeCriticalSectionEx 0000000180085518     libvcruntime:winapi_downlevel.obj
 0002:0001a518       $unwind$memcpy_s           0000000180085518     libucrt:cfout.obj
 0002:0001a518       $unwind$??$common_lseek_nolock@_J@@YA_JH_JH@Z 0000000180085518     libucrt:lseek.obj
 0002:0001a518       $unwind$_exception_enabled 0000000180085518     libucrt:libm_error.obj
 0002:0001a518       $unwind$__acrt_stdio_flush_and_write_narrow_nolock 0000000180085518     libucrt:_flsbuf.obj
 0002:0001a518       $unwind$_DllMainCRTStartup 0000000180085518     LIBCMT:dll_dllmain.obj
 0002:0001a518       $unwind$?type_case_s@?$output_processor@_WV?$string_output_adapter@_W@__crt_stdio_output@@V?$standard_base@_WV?$string_output_adapter@_W@__crt_stdio_output@@@2@@__crt_stdio_output@@AEAA_NXZ 0000000180085518     libucrt:output.obj
 0002:0001a518       $unwind$__acrt_stdio_flush_and_write_wide_nolock 0000000180085518     libucrt:_flsbuf.obj
 0002:0001a518       $unwind$?free_crt_array_internal@@YAXQEAPEBX_K@Z 0000000180085518     libucrt:inittime.obj
 0002:0001a518       $unwind$__acrt_stdio_flush_nolock 0000000180085518     libucrt:fflush.obj
 0002:0001a518       $unwind$??0_LocaleUpdate@@QEAA@QEAU__crt_locale_pointers@@@Z 0000000180085518     libucrt:stricmp.obj
 0002:0001a518       $unwind$?type_case_s@?$output_processor@_WV?$stream_output_adapter@_W@__crt_stdio_output@@V?$standard_base@_WV?$stream_output_adapter@_W@__crt_stdio_output@@@2@@__crt_stdio_output@@AEAA_NXZ 0000000180085518     libucrt:output.obj
 0002:0001a518       $unwind$?type_case_Z@?$output_processor@_WV?$stream_output_adapter@_W@__crt_stdio_output@@V?$standard_base@_WV?$stream_output_adapter@_W@__crt_stdio_output@@@2@@__crt_stdio_output@@AEAA_NXZ 0000000180085518     libucrt:output.obj
 0002:0001a518       $unwind$??R<lambda_ca71763b3c0644891230e4f79ea54fa6>@@QEBAHXZ 0000000180085518     libucrt:setvbuf.obj
 0002:0001a518       $unwind$?type_case_n@?$output_processor@_WV?$stream_output_adapter@_W@__crt_stdio_output@@V?$standard_base@_WV?$stream_output_adapter@_W@__crt_stdio_output@@@2@@__crt_stdio_output@@AEAA_NXZ 0000000180085518     libucrt:output.obj
 0002:0001a518       $unwind$__acrt_execute_initializers 0000000180085518     libucrt:shared_initialization.obj
 0002:0001a518       $unwind$__vcrt_getptd_noexit 0000000180085518     libvcruntime:per_thread_data.obj
 0002:0001a518       $unwind$?type_case_n@?$output_processor@_WV?$string_output_adapter@_W@__crt_stdio_output@@V?$standard_base@_WV?$string_output_adapter@_W@__crt_stdio_output@@@2@@__crt_stdio_output@@AEAA_NXZ 0000000180085518     libucrt:output.obj
 0002:0001a518       $unwind$__acrt_getptd_noexit 0000000180085518     libucrt:per_thread_data.obj
 0002:0001a518       $unwind$__acrt_getptd      0000000180085518     libucrt:per_thread_data.obj
 0002:0001a528       $unwind$__isa_available_init 0000000180085528     LIBCMT:cpu_disp.obj
 0002:0001a53c       $unwind$__report_securityfailure 000000018008553c     LIBCMT:gs_report.obj
 0002:0001a544       $unwind$__report_gsfailure 0000000180085544     LIBCMT:gs_report.obj
 0002:0001a54c       $unwind$capture_current_context 000000018008554c     LIBCMT:gs_report.obj
 0002:0001a558       $unwind$capture_previous_context 0000000180085558     LIBCMT:gs_report.obj
 0002:0001a564       $unwind$__security_init_cookie 0000000180085564     LIBCMT:gs_support.obj
 0002:0001a570       $unwind$__scrt_is_nonwritable_in_current_image 0000000180085570     LIBCMT:utility.obj
 0002:0001a590       $unwind$__scrt_is_nonwritable_in_current_image$filt$0 0000000180085590     LIBCMT:utility.obj
 0002:0001a598       $unwind$__scrt_fastfail    0000000180085598     LIBCMT:utility_desktop.obj
 0002:0001a5a8       $xdatasym                  00000001800855a8     LIBCMT:guard_dispatch.obj
 0002:0001a5b0       $xdatasym                  00000001800855b0     libvcruntime:memset.obj
 0002:0001a5c0       $xdatasym                  00000001800855c0     libvcruntime:memcpy.obj
 0002:0001a5d0       $unwind$_free_osfhnd       00000001800855d0     libucrt:osfinfo.obj
 0002:0001a5d0       $unwind$__std_exception_copy 00000001800855d0     libvcruntime:std_exception.obj
 0002:0001a5e4       $unwind$_CxxThrowException 00000001800855e4     libvcruntime:throw.obj
 0002:0001a5f4       $unwind$__C_specific_handler 00000001800855f4     libvcruntime:riscchandler.obj
 0002:0001a610       $xdatasym                  0000000180085610     libvcruntime:notify.obj
 0002:0001a61c       $unwind$__DestructExceptionObject 000000018008561c     libvcruntime:ehhelpers.obj
 0002:0001a63c       $unwind$__vcrt_initialize_winapi_thunks 000000018008563c     libvcruntime:winapi_downlevel.obj
 0002:0001a63c       $unwind$__acrt_initialize_winapi_thunks 000000018008563c     libucrt:winapi_thunks.obj
 0002:0001a644       $unwind$__vcrt_uninitialize_winapi_thunks 0000000180085644     libvcruntime:winapi_downlevel.obj
 0002:0001a644       $unwind$__acrt_stdio_end_temporary_buffering_nolock 0000000180085644     libucrt:_sftbuf.obj
 0002:0001a64c       $unwind$?try_get_function@@YAPEAXW4function_id@?A0xbfd18cd1@@QEBDQEBW4module_id@2@2@Z 000000018008564c     libvcruntime:winapi_downlevel.obj
 0002:0001a64c       $unwind$?try_get_function@@YAPEAXW4function_id@?A0x391cf84c@@QEBDQEBW4module_id@2@2@Z 000000018008564c     libucrt:winapi_thunks.obj
 0002:0001a668       $xdatasym                  0000000180085668     libvcruntime:handlers.obj
 0002:0001a678       $unwind$fwprintf           0000000180085678     libucrt:assert.obj
 0002:0001a684       $unwind$swprintf           0000000180085684     libucrt:assert.obj
 0002:0001a694       $unwind$??$common_assert_to_stderr@_W@@YAXQEB_W0I@Z 0000000180085694     libucrt:assert.obj
 0002:0001a6b0       $unwind$??$common_assert_to_message_box@_W@@YAXQEB_W0IQEAX@Z 00000001800856b0     libucrt:assert.obj
 0002:0001a6cc       $unwind$??$common_assert_to_message_box_build_string@_W@@YAXQEA_W_KQEB_W2IQEAX@Z 00000001800856cc     libucrt:assert.obj
 0002:0001a6ec       $unwind$__acrt_call_reportfault 00000001800856ec     libucrt:invalid_parameter.obj
 0002:0001a70c       $unwind$__acrt_MessageBoxW 000000018008570c     libucrt:winapi_thunks.obj
 0002:0001a70c       $unwind$_invalid_parameter 000000018008570c     libucrt:invalid_parameter.obj
 0002:0001a720       $unwind$_stricmp_l         0000000180085720     libucrt:stricmp.obj
 0002:0001a720       $unwind$?x_ismbbtype_l@@YAHPEAU__crt_locale_pointers@@IHH@Z 0000000180085720     libucrt:ismbbyte.obj
 0002:0001a730       $unwind$_tolower_l         0000000180085730     libucrt:tolower_toupper.obj
 0002:0001a740       $unwind$acos               0000000180085740     libucrt:acos.obj
 0002:0001a740       $unwind$asin               0000000180085740     libucrt:asin.obj
 0002:0001a74c       $unwind$atan               000000018008574c     libucrt:atan.obj
 0002:0001a758       $unwind$sqrt               0000000180085758     libucrt:sqrt.obj
 0002:0001a760       $xdatasym                  0000000180085760     libucrt:cos.obj
 0002:0001a768       $unwind$cosh               0000000180085768     libucrt:cosh.obj
 0002:0001a77c       $unwind$splitexp           000000018008577c     libucrt:cosh.obj
 0002:0001a77c       $unwind$splitexp           000000018008577c     libucrt:tanh.obj
 0002:0001a77c       $unwind$splitexp           000000018008577c     libucrt:sinh.obj
 0002:0001a790       $xdatasym                  0000000180085790     libucrt:exp.obj
 0002:0001a798       $xdatasym                  0000000180085798     libucrt:sin.obj
 0002:0001a7a0       $xdatasym                  00000001800857a0     libucrt:log.obj
 0002:0001a7b0       $xdatasym                  00000001800857b0     libucrt:log10.obj
 0002:0001a7bc       $unwind$sinh               00000001800857bc     libucrt:sinh.obj
 0002:0001a7d0       $xdatasym                  00000001800857d0     libucrt:tan.obj
 0002:0001a7ec       $unwind$tanh               00000001800857ec     libucrt:tanh.obj
 0002:0001a7fc       $unwind$_query_new_handler 00000001800857fc     libucrt:new_handler.obj
 0002:0001a81c       $unwind$?common_exit@@YAXHW4_crt_exit_cleanup_mode@@W4_crt_exit_return_mode@@@Z 000000018008581c     libucrt:exit.obj
 0002:0001a828       $unwind$??R<lambda_6e4b09c48022b2350581041d5f6b0c4c>@@QEBA@XZ 0000000180085828     libucrt:exit.obj
 0002:0001a848       $unwind$??$?RV<lambda_d80eeec6fff315bfe5c115232f3240e3>@@AEAV<lambda_6e4b09c48022b2350581041d5f6b0c4c>@@V<lambda_2358e3775559c9db80273638284d5e45>@@@?$__crt_seh_guarded_call@X@@QEAAX$$QEAV<lambda_d80eeec6fff315bfe5c115232f3240e3>@@AEAV<lambda_6e4b09c48022b2350581041d5f6b0c4c>@@$$QEAV<lambda_2358e3775559c9db80273638284d5e45>@@@Z 0000000180085848     libucrt:exit.obj
 0002:0001a86c       $unwind$_configure_narrow_argv 000000018008586c     libucrt:argv_parsing.obj
 0002:0001a880       $unwind$??$parse_command_line@D@@YAXPEADPEAPEAD0PEA_K2@Z 0000000180085880     libucrt:argv_parsing.obj
 0002:0001a880       $unwind$?write_string_impl@?$output_adapter_common@_WV?$stream_output_adapter@_W@__crt_stdio_output@@@__crt_stdio_output@@IEBAXQEB_WHQEAHAEAV__crt_deferred_errno_cache@@@Z 0000000180085880     libucrt:output.obj
 0002:0001a89c       $unwind$??$free_environment@D@@YAXQEAPEAD@Z 000000018008589c     libucrt:environment_initialization.obj
 0002:0001a89c       $unwind$??$free_environment@_W@@YAXQEAPEA_W@Z 000000018008589c     libucrt:environment_initialization.obj
 0002:0001a8a8       $unwind$??$create_environment@D@@YAQEAPEADQEAD@Z 00000001800858a8     libucrt:environment_initialization.obj
 0002:0001a8c0       $unwind$_execute_onexit_table 00000001800858c0     libucrt:onexit.obj
 0002:0001a8c8       $unwind$??$common_xtox@K_W@@YAHKQEA_W_KI_N@Z 00000001800858c8     libucrt:xtoa.obj
 0002:0001a8c8       $unwind$?type_case_integer@?$output_processor@_WV?$stream_output_adapter@_W@__crt_stdio_output@@V?$standard_base@_WV?$stream_output_adapter@_W@__crt_stdio_output@@@2@@__crt_stdio_output@@AEAA_NI_N@Z 00000001800858c8     libucrt:output.obj
 0002:0001a8c8       $unwind$?type_case_integer@?$output_processor@_WV?$string_output_adapter@_W@__crt_stdio_output@@V?$standard_base@_WV?$string_output_adapter@_W@__crt_stdio_output@@@2@@__crt_stdio_output@@AEAA_NI_N@Z 00000001800858c8     libucrt:output.obj
 0002:0001a8c8       $unwind$??R<lambda_f03950bc5685219e0bcd2087efbe011e>@@QEBAHXZ 00000001800858c8     libucrt:onexit.obj
 0002:0001a8e0       $unwind$??$?RV<lambda_7777bce6b2f8c936911f934f8298dc43>@@AEAV<lambda_f03950bc5685219e0bcd2087efbe011e>@@V<lambda_3883c3dff614d5e0c5f61bb1ac94921c>@@@?$__crt_seh_guarded_call@H@@QEAAH$$QEAV<lambda_7777bce6b2f8c936911f934f8298dc43>@@AEAV<lambda_f03950bc5685219e0bcd2087efbe011e>@@$$QEAV<lambda_3883c3dff614d5e0c5f61bb1ac94921c>@@@Z 00000001800858e0     libucrt:onexit.obj
 0002:0001a904       $unwind$terminate          0000000180085904     libucrt:terminate.obj
 0002:0001a924       $unwind$__stdio_common_vfwprintf 0000000180085924     libucrt:output.obj
 0002:0001a92c       $unwind$??$common_vsprintf@Vstandard_base@__crt_stdio_output@@_W@@YAH_KQEA_W0QEB_WQEAU__crt_locale_pointers@@QEAD@Z 000000018008592c     libucrt:output.obj
 0002:0001a94c       $unwind$?process@?$output_processor@_WV?$stream_output_adapter@_W@__crt_stdio_output@@V?$standard_base@_WV?$stream_output_adapter@_W@__crt_stdio_output@@@2@@__crt_stdio_output@@QEAAHXZ 000000018008594c     libucrt:output.obj
 0002:0001a94c       $unwind$?process@?$output_processor@_WV?$string_output_adapter@_W@__crt_stdio_output@@V?$standard_base@_WV?$string_output_adapter@_W@__crt_stdio_output@@@2@@__crt_stdio_output@@QEAAHXZ 000000018008594c     libucrt:output.obj
 0002:0001a960       $unwind$?parse_int_from_format_string@?$output_processor@_WV?$string_output_adapter@_W@__crt_stdio_output@@V?$standard_base@_WV?$string_output_adapter@_W@__crt_stdio_output@@@2@@__crt_stdio_output@@AEAA_NQEAH@Z 0000000180085960     libucrt:output.obj
 0002:0001a960       $unwind$?parse_int_from_format_string@?$output_processor@_WV?$stream_output_adapter@_W@__crt_stdio_output@@V?$standard_base@_WV?$stream_output_adapter@_W@__crt_stdio_output@@@2@@__crt_stdio_output@@AEAA_NQEAH@Z 0000000180085960     libucrt:output.obj
 0002:0001a974       $unwind$?state_case_type@?$output_processor@_WV?$stream_output_adapter@_W@__crt_stdio_output@@V?$standard_base@_WV?$stream_output_adapter@_W@__crt_stdio_output@@@2@@__crt_stdio_output@@AEAA_NXZ 0000000180085974     libucrt:output.obj
 0002:0001a994       $unwind$?type_case_c_tchar@?$output_processor@_WV?$string_output_adapter@_W@__crt_stdio_output@@V?$standard_base@_WV?$string_output_adapter@_W@__crt_stdio_output@@@2@@__crt_stdio_output@@AEAA_N_W@Z 0000000180085994     libucrt:output.obj
 0002:0001a994       $unwind$?type_case_c_tchar@?$output_processor@_WV?$stream_output_adapter@_W@__crt_stdio_output@@V?$standard_base@_WV?$stream_output_adapter@_W@__crt_stdio_output@@@2@@__crt_stdio_output@@AEAA_N_W@Z 0000000180085994     libucrt:output.obj
 0002:0001a9a4       $unwind$?type_case_a@?$output_processor@_WV?$string_output_adapter@_W@__crt_stdio_output@@V?$standard_base@_WV?$string_output_adapter@_W@__crt_stdio_output@@@2@@__crt_stdio_output@@AEAA_NXZ 00000001800859a4     libucrt:output.obj
 0002:0001a9a4       $unwind$?type_case_a@?$output_processor@_WV?$stream_output_adapter@_W@__crt_stdio_output@@V?$standard_base@_WV?$stream_output_adapter@_W@__crt_stdio_output@@@2@@__crt_stdio_output@@AEAA_NXZ 00000001800859a4     libucrt:output.obj
 0002:0001a9b4       $unwind$??R<lambda_a775ed57af18ba8e4d5dc780aa9068fe>@@QEBAHXZ 00000001800859b4     libucrt:output.obj
 0002:0001a9d4       $unwind$?write_string@?$string_output_adapter@_W@__crt_stdio_output@@QEBAXQEB_WHQEAHAEAV__crt_deferred_errno_cache@@@Z 00000001800859d4     libucrt:output.obj
 0002:0001a9ec       $unwind$?state_case_type@?$output_processor@_WV?$string_output_adapter@_W@__crt_stdio_output@@V?$standard_base@_WV?$string_output_adapter@_W@__crt_stdio_output@@@2@@__crt_stdio_output@@AEAA_NXZ 00000001800859ec     libucrt:output.obj
 0002:0001aa10       $unwind$?write_stored_string_tchar@?$output_processor@_WV?$string_output_adapter@_W@__crt_stdio_output@@V?$standard_base@_WV?$string_output_adapter@_W@__crt_stdio_output@@@2@@__crt_stdio_output@@AEAA_N_W@Z 0000000180085a10     libucrt:output.obj
 0002:0001aa24       $unwind$??$write_multiple_characters@V?$string_output_adapter@_W@__crt_stdio_output@@D@__crt_stdio_output@@YAXAEBV?$string_output_adapter@_W@0@DHQEAH@Z 0000000180085a24     libucrt:output.obj
 0002:0001aa30       $unwind$??$write_multiple_characters@V?$stream_output_adapter@_W@__crt_stdio_output@@D@__crt_stdio_output@@YAXAEBV?$stream_output_adapter@_W@0@DHQEAH@Z 0000000180085a30     libucrt:output.obj
 0002:0001aa48       $unwind$??$?RV<lambda_0d412022a4b28cc8a401ea49574e8ae6>@@AEAV<lambda_a775ed57af18ba8e4d5dc780aa9068fe>@@V<lambda_975a71a6baa488a08f4e15f6b0339b9e>@@@?$__crt_seh_guarded_call@H@@QEAAH$$QEAV<lambda_0d412022a4b28cc8a401ea49574e8ae6>@@AEAV<lambda_a775ed57af18ba8e4d5dc780aa9068fe>@@$$QEAV<lambda_975a71a6baa488a08f4e15f6b0339b9e>@@@Z 0000000180085a48     libucrt:output.obj
 0002:0001aa6c       $unwind$??$parse_integer@KV?$c_string_character_source@_W@__crt_strtox@@@__crt_strtox@@YAKQEAU__crt_locale_pointers@@V?$c_string_character_source@_W@0@H_N@Z 0000000180085a6c     libucrt:atox.obj
 0002:0001aa88       $xdatasym                  0000000180085a88     libucrt:strncmp.obj
 0002:0001aa8c       $unwind$__acrt_locale_free_lc_time_if_unreferenced 0000000180085a8c     libucrt:locale_refcounting.obj
 0002:0001aa8c       $unwind$__acrt_locale_free_numeric 0000000180085a8c     libucrt:initnum.obj
 0002:0001aa8c       $unwind$_free_base         0000000180085a8c     libucrt:free_base.obj
 0002:0001aa8c       $unwind$?destroy_fls@@YAXPEAX@Z 0000000180085a8c     libucrt:per_thread_data.obj
 0002:0001aa94       $unwind$__acrt_GetModuleFileNameA 0000000180085a94     libucrt:getmodulefilenamea.obj
 0002:0001aab0       $unwind$__dcrt_write_console 0000000180085ab0     libucrt:initcon.obj
 0002:0001aab0       $unwind$??$__acrt_wcs_to_mbs_cp@U__crt_win32_buffer_no_resizing@@@@YAHQEB_WAEAV?$__crt_win32_buffer@DU__crt_win32_buffer_no_resizing@@@@I@Z 0000000180085ab0     libucrt:getmodulefilenamea.obj
 0002:0001aac4       $unwind$__acrt_initialize_stdio 0000000180085ac4     libucrt:_file.obj
 0002:0001aac4       $unwind$?initialize_stdio_handles_nolock@@YAXXZ 0000000180085ac4     libucrt:ioinit.obj
 0002:0001aadc       $unwind$?common_flush_all@@YAH_N@Z 0000000180085adc     libucrt:fflush.obj
 0002:0001aae4       $unwind$??$?RV<lambda_842d9ff0dc9ef11c61343bbaebe7f885>@@AEAV<lambda_c5860995281e5c4ce005b3de8f5874ee>@@V<lambda_d90129c13df834fdcbf8d2b88dafcf2d>@@@?$__crt_seh_guarded_call@X@@QEAAX$$QEAV<lambda_842d9ff0dc9ef11c61343bbaebe7f885>@@AEAV<lambda_c5860995281e5c4ce005b3de8f5874ee>@@$$QEAV<lambda_d90129c13df834fdcbf8d2b88dafcf2d>@@@Z 0000000180085ae4     libucrt:fflush.obj
 0002:0001ab08       $unwind$??$?RV<lambda_886d6c58226a84441f68b9f2b8217b83>@@AEAV<lambda_ab61a845afdef5b7c387490eaf3616ee>@@V<lambda_f7f22ab5edc0698d5f6905b0d3f44752>@@@?$__crt_seh_guarded_call@X@@QEAAX$$QEAV<lambda_886d6c58226a84441f68b9f2b8217b83>@@AEAV<lambda_ab61a845afdef5b7c387490eaf3616ee>@@$$QEAV<lambda_f7f22ab5edc0698d5f6905b0d3f44752>@@@Z 0000000180085b08     libucrt:fflush.obj
 0002:0001ab30       $unwind$??$?RV<lambda_c376a267cfb53b6959b3b692ec76b120>@@AEAV<lambda_9a32fed5bf61b6b509b2d3f6003082a1>@@V<lambda_572fbb9fa0ab338edf41edfd4b5fcc8d>@@@?$__crt_seh_guarded_call@H@@QEAAH$$QEAV<lambda_c376a267cfb53b6959b3b692ec76b120>@@AEAV<lambda_9a32fed5bf61b6b509b2d3f6003082a1>@@$$QEAV<lambda_572fbb9fa0ab338edf41edfd4b5fcc8d>@@@Z 0000000180085b30     libucrt:fflush.obj
 0002:0001ab54       $unwind$setvbuf            0000000180085b54     libucrt:setvbuf.obj
 0002:0001ab5c       $unwind$??$?RV<lambda_84ec643ea9557e2f7dc01bb0e9624395>@@AEAV<lambda_ca71763b3c0644891230e4f79ea54fa6>@@V<lambda_439a761618c59b0600e24586724d733b>@@@?$__crt_seh_guarded_call@H@@QEAAH$$QEAV<lambda_84ec643ea9557e2f7dc01bb0e9624395>@@AEAV<lambda_ca71763b3c0644891230e4f79ea54fa6>@@$$QEAV<lambda_439a761618c59b0600e24586724d733b>@@@Z 0000000180085b5c     libucrt:setvbuf.obj
 0002:0001ab80       $unwind$__acrt_get_sigabrt_handler 0000000180085b80     libucrt:signal.obj
 0002:0001ab80       $unwind$__acrt_uninitialize_locale 0000000180085b80     libucrt:wsetlocale.obj
 0002:0001ab88       $unwind$raise              0000000180085b88     libucrt:signal.obj
 0002:0001abc4       $unwind$??$?RV<lambda_450d765d439847d4c735a33c368b5fc0>@@AEAV<lambda_44731a7d0e6d81c3e6aa82d741081786>@@V<lambda_601a2a7da3b7a96e9554ac7215c4b07c>@@@?$__crt_seh_guarded_call@P6AXH@Z@@QEAAP6AXH@Z$$QEAV<lambda_450d765d439847d4c735a33c368b5fc0>@@AEAV<lambda_44731a7d0e6d81c3e6aa82d741081786>@@$$QEAV<lambda_601a2a7da3b7a96e9554ac7215c4b07c>@@@Z 0000000180085bc4     libucrt:signal.obj
 0002:0001abe8       $unwind$?construct_ptd_array@@YAXQEAU__acrt_ptd@@@Z 0000000180085be8     libucrt:per_thread_data.obj
 0002:0001abf0       $unwind$?destroy_ptd_array@@YAXQEAU__acrt_ptd@@@Z 0000000180085bf0     libucrt:per_thread_data.obj
 0002:0001abf8       $unwind$??$?RV<lambda_0ae27a3a962d80f24befdcbee591983d>@@AEAV<lambda_8d0ee55de4b1038c4002e0adecdf1839>@@V<lambda_dc504788e8f1664fe9b84e20bfb512f2>@@@?$__crt_seh_guarded_call@X@@QEAAX$$QEAV<lambda_0ae27a3a962d80f24befdcbee591983d>@@AEAV<lambda_8d0ee55de4b1038c4002e0adecdf1839>@@$$QEAV<lambda_dc504788e8f1664fe9b84e20bfb512f2>@@@Z 0000000180085bf8     libucrt:per_thread_data.obj
 0002:0001ac1c       $unwind$??$?RV<lambda_aa87e3671a710a21b5dc78c0bdf72e11>@@AEAV<lambda_92619d2358a28f41a33ba319515a20b9>@@V<lambda_6992ecaafeb10aed2b74cb1fae11a551>@@@?$__crt_seh_guarded_call@X@@QEAAX$$QEAV<lambda_aa87e3671a710a21b5dc78c0bdf72e11>@@AEAV<lambda_92619d2358a28f41a33ba319515a20b9>@@$$QEAV<lambda_6992ecaafeb10aed2b74cb1fae11a551>@@@Z 0000000180085c1c     libucrt:per_thread_data.obj
 0002:0001ac40       $unwind$??$?RV<lambda_f2e299630e499de9f9a165e60fcd3db5>@@AEAV<lambda_2ae9d31cdba2644fcbeaf08da7c24588>@@V<lambda_40d01ff24d0e7b3814fdbdcee8eab3c7>@@@?$__crt_seh_guarded_call@X@@QEAAX$$QEAV<lambda_f2e299630e499de9f9a165e60fcd3db5>@@AEAV<lambda_2ae9d31cdba2644fcbeaf08da7c24588>@@$$QEAV<lambda_40d01ff24d0e7b3814fdbdcee8eab3c7>@@@Z 0000000180085c40     libucrt:per_thread_data.obj
 0002:0001ac64       $unwind$??$?RV<lambda_2d41944a1d46af3157314b8a01080d33>@@AEAV<lambda_8f455de75cd7d7f24b4096f044d8b9e6>@@V<lambda_aa500f224e6afead328df44964fe2772>@@@?$__crt_seh_guarded_call@X@@QEAAX$$QEAV<lambda_2d41944a1d46af3157314b8a01080d33>@@AEAV<lambda_8f455de75cd7d7f24b4096f044d8b9e6>@@$$QEAV<lambda_aa500f224e6afead328df44964fe2772>@@@Z 0000000180085c64     libucrt:per_thread_data.obj
 0002:0001ac88       $unwind$??$?RV<lambda_410d79af7f07d98d83a3f525b3859a53>@@AEAV<lambda_3e16ef9562a7dcce91392c22ab16ea36>@@V<lambda_38119f0e861e05405d8a144b9b982f0a>@@@?$__crt_seh_guarded_call@X@@QEAAX$$QEAV<lambda_410d79af7f07d98d83a3f525b3859a53>@@AEAV<lambda_3e16ef9562a7dcce91392c22ab16ea36>@@$$QEAV<lambda_38119f0e861e05405d8a144b9b982f0a>@@@Z 0000000180085c88     libucrt:wsetlocale.obj
 0002:0001acb0       $unwind$_isctype_l         0000000180085cb0     libucrt:isctype.obj
 0002:0001accc       $unwind$__acrt_LCMapStringA 0000000180085ccc     libucrt:lcmapstringa.obj
 0002:0001acdc       $unwind$?__acrt_LCMapStringA_stat@@YAHPEAU__crt_locale_pointers@@PEB_WKPEBDHPEADHHH@Z 0000000180085cdc     libucrt:lcmapstringa.obj
 0002:0001ad04       $unwind$_ctrlfp            0000000180085d04     libucrt:fpctrl.obj
 0002:0001ad2c       $unwind$_call_matherr      0000000180085d2c     libucrt:libm_error.obj
 0002:0001ad34       $unwind$_handle_error      0000000180085d34     libucrt:libm_error.obj
 0002:0001ad58       $xdatasym                  0000000180085d58     libucrt:remainder_piby2_forasm.obj
 0002:0001ad68       $xdatasym                  0000000180085d68     libucrt:remainder_piby2_forfma3.obj
 0002:0001ad74       $unwind$_exp_special       0000000180085d74     libucrt:exp_special.obj
 0002:0001ad74       $unwind$_log_special_common 0000000180085d74     libucrt:log_special.obj
 0002:0001ad80       $unwind$??$__acrt_mbs_to_wcs_cp@U__crt_win32_buffer_internal_dynamic_resizing@@@@YAHQEBDAEAV?$__crt_win32_buffer@_WU__crt_win32_buffer_internal_dynamic_resizing@@@@I@Z 0000000180085d80     libucrt:argv_wildcards.obj
 0002:0001ad98       $unwind$__dcrt_get_narrow_environment_from_os 0000000180085d98     libucrt:get_environment_from_os.obj
 0002:0001ad98       $unwind$?fp_format_f_internal@@YAHQEAD_KHQEAU_strflt@@_NQEAU__crt_locale_pointers@@@Z 0000000180085d98     libucrt:cvt.obj
 0002:0001ad98       $unwind$??$__acrt_wcs_to_mbs_cp@U__crt_win32_buffer_internal_dynamic_resizing@@@@YAHQEB_WAEAV?$__crt_win32_buffer@DU__crt_win32_buffer_internal_dynamic_resizing@@@@I@Z 0000000180085d98     libucrt:argv_wildcards.obj
 0002:0001adb0       $unwind$??$common_expand_argv_wildcards@D@@YAHQEAPEADQEAPEAPEAD@Z 0000000180085db0     libucrt:argv_wildcards.obj
 0002:0001adc8       $unwind$??$copy_and_add_argument_to_buffer@D@@YAHQEBD0_KAEAV?$argument_list@D@?A0x5f5c8891@@@Z 0000000180085dc8     libucrt:argv_wildcards.obj
 0002:0001ade4       $unwind$??$expand_argument_wildcards@D@@YAHQEAD0AEAV?$argument_list@D@?A0x5f5c8891@@@Z 0000000180085de4     libucrt:argv_wildcards.obj
 0002:0001ae08       $unwind$_setmbcp_nolock    0000000180085e08     libucrt:mbctype.obj
 0002:0001ae28       $unwind$?update_thread_multibyte_data_internal@@YAPEAU__crt_multibyte_data@@QEAU__acrt_ptd@@QEAPEAU1@@Z 0000000180085e28     libucrt:mbctype.obj
 0002:0001ae50       $unwind$?setmbcp_internal@@YAHH_NQEAU__acrt_ptd@@QEAPEAU__crt_multibyte_data@@@Z 0000000180085e50     libucrt:mbctype.obj
 0002:0001ae60       $unwind$?setSBUpLow@@YAXPEAU__crt_multibyte_data@@@Z 0000000180085e60     libucrt:mbctype.obj
 0002:0001ae7c       $unwind$??$?RV<lambda_efdfa57d1f175319df784efa44bb7b81>@@AEAV<lambda_5f0a4c1567f8adc6734073e5d1e1b35c>@@V<lambda_2e8a7d3640ea6ccb4c2413664c2db6fd>@@@?$__crt_seh_guarded_call@X@@QEAAX$$QEAV<lambda_efdfa57d1f175319df784efa44bb7b81>@@AEAV<lambda_5f0a4c1567f8adc6734073e5d1e1b35c>@@$$QEAV<lambda_2e8a7d3640ea6ccb4c2413664c2db6fd>@@@Z 0000000180085e7c     libucrt:mbctype.obj
 0002:0001aea0       $unwind$?fp_format_e@@YAHQEBNQEAD_K12H_NIQEAU__crt_locale_pointers@@@Z 0000000180085ea0     libucrt:cvt.obj
 0002:0001aea0       $unwind$__acrt_LCMapStringEx 0000000180085ea0     libucrt:winapi_thunks.obj
 0002:0001aea0       $unwind$_mbtowc_l          0000000180085ea0     libucrt:mbtowc.obj
 0002:0001aeb4       $unwind$__acrt_is_interactive 0000000180085eb4     libucrt:winapi_thunks.obj
 0002:0001aec8       $unwind$__acrt_initialize_lowio 0000000180085ec8     libucrt:ioinit.obj
 0002:0001aee8       $unwind$?initialize_inherited_file_handles_nolock@@YAXXZ 0000000180085ee8     libucrt:ioinit.obj
 0002:0001af04       $unwind$_wctomb_s_l        0000000180085f04     libucrt:wctomb.obj
 0002:0001af14       $unwind$__acrt_fp_format   0000000180085f14     libucrt:cvt.obj
 0002:0001af28       $unwind$?fp_format_nan_or_infinity@@YAHW4__acrt_fp_class@@_NPEAD_K1@Z 0000000180085f28     libucrt:cvt.obj
 0002:0001af3c       $unwind$?fp_format_e_internal@@YAHQEAD_KH_NIQEAU_strflt@@2QEAU__crt_locale_pointers@@@Z 0000000180085f3c     libucrt:cvt.obj
 0002:0001af54       $unwind$?fp_format_a@@YAHQEBNPEAD_KQEAD2H_NIQEAU__crt_locale_pointers@@@Z 0000000180085f54     libucrt:cvt.obj
 0002:0001af70       $unwind$?fp_format_g@@YAHQEBNQEAD_K12H_NIQEAU__crt_locale_pointers@@@Z 0000000180085f70     libucrt:cvt.obj
 0002:0001af84       $unwind$_fputwc_nolock     0000000180085f84     libucrt:fputwc.obj
 0002:0001afa0       $unwind$iswctype           0000000180085fa0     libucrt:iswctype.obj
 0002:0001afac       $unwind$_fcloseall         0000000180085fac     libucrt:closeall.obj
 0002:0001afd0       $unwind$_close             0000000180085fd0     libucrt:close.obj
 0002:0001afd0       $unwind$_commit            0000000180085fd0     libucrt:commit.obj
 0002:0001afd8       $unwind$??$?RV<lambda_a37b2b86f63e897a80ea819b0eb08c01>@@AEAV<lambda_38ce7e780aa69e748d6df282ebc68efe>@@V<lambda_99fb1378e971ab6e7edea83e3a7a83a2>@@@?$__crt_seh_guarded_call@H@@QEAAH$$QEAV<lambda_a37b2b86f63e897a80ea819b0eb08c01>@@AEAV<lambda_38ce7e780aa69e748d6df282ebc68efe>@@$$QEAV<lambda_99fb1378e971ab6e7edea83e3a7a83a2>@@@Z 0000000180085fd8     libucrt:commit.obj
 0002:0001affc       $unwind$_write             0000000180085ffc     libucrt:write.obj
 0002:0001b02c       $unwind$_write_nolock      000000018008602c     libucrt:write.obj
 0002:0001b044       $unwind$?write_double_translated_ansi_nolock@@YA?AUwrite_result@?A0x17268360@@HQEBDI@Z 0000000180086044     libucrt:write.obj
 0002:0001b068       $unwind$?write_text_utf16le_nolock@@YA?AUwrite_result@?A0x17268360@@HQEBDI@Z 0000000180086068     libucrt:write.obj
 0002:0001b068       $unwind$?write_text_ansi_nolock@@YA?AUwrite_result@?A0x17268360@@HQEBDI@Z 0000000180086068     libucrt:write.obj
 0002:0001b088       $unwind$?write_text_utf8_nolock@@YA?AUwrite_result@?A0x17268360@@HQEBDI@Z 0000000180086088     libucrt:write.obj
 0002:0001b0ac       $unwind$__acrt_update_thread_locale_data 00000001800860ac     libucrt:locale_refcounting.obj
 0002:0001b0d0       $unwind$__acrt_locale_free_monetary 00000001800860d0     libucrt:initmon.obj
 0002:0001b0d8       $unwind$__acrt_locale_free_time 00000001800860d8     libucrt:inittime.obj
 0002:0001b0e8       $unwind$__acrt_GetStringTypeA 00000001800860e8     libucrt:getstringtypea.obj
 0002:0001b110       $xdatasym                  0000000180086110     libucrt:fpsr.obj
 0002:0001b118       $unwind$_raise_exc_ex      0000000180086118     libucrt:fpexcept.obj
 0002:0001b12c       $unwind$qsort              000000018008612c     libucrt:qsort.obj
 0002:0001b144       $chain$4$qsort             0000000180086144     libucrt:qsort.obj
 0002:0001b168       $chain$5$qsort             0000000180086168     libucrt:qsort.obj
 0002:0001b178       $unwind$strpbrk            0000000180086178     libucrt:strpbrk.obj
 0002:0001b188       $unwind$fallbackMethod     0000000180086188     libucrt:strpbrk.obj
 0002:0001b198       $unwind$?GetTableIndexFromLocaleName@@YAHPEB_W@Z 0000000180086198     libucrt:lcidtoname_downlevel.obj
 0002:0001b1b0       $unwind$__acrt_lowio_destroy_handle_array 00000001800861b0     libucrt:osfinfo.obj
 0002:0001b1c0       $unwind$__acrt_lowio_ensure_fh_exists 00000001800861c0     libucrt:osfinfo.obj
 0002:0001b1ec       $unwind$?__mbsrtowcs_utf8@__crt_mbstring@@YA_KPEA_WPEAPEBD_KPEAU_Mbstatet@@@Z 00000001800861ec     libucrt:mbrtowc.obj
 0002:0001b204       $unwind$__acrt_fltout      0000000180086204     libucrt:cfout.obj
 0002:0001b224       $unwind$?divide@__crt_strtox@@YA_KAEAUbig_integer@1@AEBU21@@Z 0000000180086224     libucrt:cfout.obj
 0002:0001b23c       $chain$0$?divide@__crt_strtox@@YA_KAEAUbig_integer@1@AEBU21@@Z 000000018008623c     libucrt:cfout.obj
 0002:0001b250       $chain$1$?divide@__crt_strtox@@YA_KAEAUbig_integer@1@AEBU21@@Z 0000000180086250     libucrt:cfout.obj
 0002:0001b260       $unwind$??$write_buffer_nolock@D@@YA_NDV__crt_stdio_stream@@@Z 0000000180086260     libucrt:_flsbuf.obj
 0002:0001b270       $unwind$??$write_buffer_nolock@_W@@YA_N_WV__crt_stdio_stream@@@Z 0000000180086270     libucrt:_flsbuf.obj
 0002:0001b280       $unwind$fclose             0000000180086280     libucrt:fclose.obj
 0002:0001b2a4       $unwind$??$common_lseek@_J@@YA_JH_JH@Z 00000001800862a4     libucrt:lseek.obj
 0002:0001b2d4       $unwind$_putwch_nolock     00000001800862d4     libucrt:putwch.obj
 0002:0001b2dc       $unwind$?__mbrtoc32_utf8@__crt_mbstring@@YA_KPEA_UPEBD_KPEAU_Mbstatet@@@Z 00000001800862dc     libucrt:mbrtoc32.obj
 0002:0001b2f8       $unwind$??$?RV<lambda_751a882b2c74d4b022dec766aa51a29a>@@AEAV<lambda_628dfdc04ba53c8bfc02c9951375f3f5>@@V<lambda_f6c7be5f7998530c34de24c7437d6b54>@@@?$__crt_seh_guarded_call@H@@QEAAH$$QEAV<lambda_751a882b2c74d4b022dec766aa51a29a>@@AEAV<lambda_628dfdc04ba53c8bfc02c9951375f3f5>@@$$QEAV<lambda_f6c7be5f7998530c34de24c7437d6b54>@@@Z 00000001800862f8     libucrt:close.obj
 0002:0001b31c       $unwind$__acrt_fenv_set_control 000000018008631c     libucrt:_fenvutils.obj
 0002:0001b32c       $unwind$?DloadObtainSection@@YAPEAXPEAK0@Z 000000018008632c     DelayImp:delayhlp.obj
 0002:0001b33c       $unwind$?DloadMakePermanentImageCommit@@YAXPEAX_K@Z 000000018008633c     DelayImp:delayhlp.obj
 0002:0001b348       $unwind$?DloadProtectSection@@YAXKPEAK@Z 0000000180086348     DelayImp:delayhlp.obj
 0002:0001b358       $unwind$__delayLoadHelper2 0000000180086358     DelayImp:delayhlp.obj
 0002:0001b370       $unwind$_IsNonwritableInCurrentImage 0000000180086370     LIBCMT:pesect.obj
 0002:0001b398       $xdatasym                  0000000180086398     LIBCMT:chkstk.obj
 0002:0001b3a0       $xdatasym                  00000001800863a0     libvcruntime:memcmp.obj
 0002:0001b3a4       $unwind$strrchr            00000001800863a4     libvcruntime:strrchr.obj
 0002:0001c900       .edata                     0000000180087900     talib.exp
 0002:0001c928       rgpv                       0000000180087928     talib.exp
 0002:0001c930       rgszName                   0000000180087930     talib.exp
 0002:0001c938       rgwOrd                     0000000180087938     talib.exp
 0002:0001c93c       szName                     000000018008793c     talib.exp
 0002:0001c947       $N00001                    0000000180087947     talib.exp
 0002:0001c958       $N00002                    0000000180087958     talib.exp
 0002:0001cc0c       .idata$6                   0000000180087c0c     kernel32:KERNEL32.dll
 0003:00000000       TA_DEF_Tables              0000000180089000     ta_libc_csr:ta_abstract.obj
 0003:000000d0       TA_DEF_TablesSize          00000001800890d0     ta_libc_csr:ta_abstract.obj
 0003:000001b0       retCodeInfoTable           00000001800891b0     ta_libc_csr:ta_retcode.obj
 0003:000003d0       TA_AD_Inputs               00000001800893d0     ta_libc_csr:table_a.obj
 0003:000003e0       TA_AD_Outputs              00000001800893e0     ta_libc_csr:table_a.obj
 0003:00000428       TA_ADD_Inputs              0000000180089428     ta_libc_csr:table_a.obj
 0003:00000440       TA_ADD_Outputs             0000000180089440     ta_libc_csr:table_a.obj
 0003:00000488       TA_ADOSC_Inputs            0000000180089488     ta_libc_csr:table_a.obj
 0003:00000498       TA_ADOSC_Outputs           0000000180089498     ta_libc_csr:table_a.obj
 0003:000004a8       TA_ADOSC_OptInputs         00000001800894a8     ta_libc_csr:table_a.obj
 0003:000004f8       TA_ADX_Inputs              00000001800894f8     ta_libc_csr:table_a.obj
 0003:00000508       TA_ADX_Outputs             0000000180089508     ta_libc_csr:table_a.obj
 0003:00000518       TA_ADX_OptInputs           0000000180089518     ta_libc_csr:table_a.obj
 0003:00000560       TA_ADXR_Inputs             0000000180089560     ta_libc_csr:table_a.obj
 0003:00000570       TA_ADXR_Outputs            0000000180089570     ta_libc_csr:table_a.obj
 0003:00000580       TA_ADXR_OptInputs          0000000180089580     ta_libc_csr:table_a.obj
 0003:000005c8       TA_APO_Inputs              00000001800895c8     ta_libc_csr:table_a.obj
 0003:000005d8       TA_APO_Outputs             00000001800895d8     ta_libc_csr:table_a.obj
 0003:000005e8       TA_APO_OptInputs           00000001800895e8     ta_libc_csr:table_a.obj
 0003:00000640       TA_AROON_Inputs            0000000180089640     ta_libc_csr:table_a.obj
 0003:00000650       TA_AROON_Outputs           0000000180089650     ta_libc_csr:table_a.obj
 0003:00000668       TA_AROON_OptInputs         0000000180089668     ta_libc_csr:table_a.obj
 0003:000006b0       TA_AROONOSC_Inputs         00000001800896b0     ta_libc_csr:table_a.obj
 0003:000006c0       TA_AROONOSC_Outputs        00000001800896c0     ta_libc_csr:table_a.obj
 0003:000006d0       TA_AROONOSC_OptInputs      00000001800896d0     ta_libc_csr:table_a.obj
 0003:00000718       TA_ASIN_Inputs             0000000180089718     ta_libc_csr:table_a.obj
 0003:00000728       TA_ASIN_Outputs            0000000180089728     ta_libc_csr:table_a.obj
 0003:00000770       TA_ATAN_Inputs             0000000180089770     ta_libc_csr:table_a.obj
 0003:00000780       TA_ATAN_Outputs            0000000180089780     ta_libc_csr:table_a.obj
 0003:000007c8       TA_ATR_Inputs              00000001800897c8     ta_libc_csr:table_a.obj
 0003:000007d8       TA_ATR_Outputs             00000001800897d8     ta_libc_csr:table_a.obj
 0003:000007e8       TA_ATR_OptInputs           00000001800897e8     ta_libc_csr:table_a.obj
 0003:00000830       TA_AVGPRICE_Inputs         0000000180089830     ta_libc_csr:table_a.obj
 0003:00000840       TA_AVGPRICE_Outputs        0000000180089840     ta_libc_csr:table_a.obj
 0003:00000888       TA_AVGDEV_Inputs           0000000180089888     ta_libc_csr:table_a.obj
 0003:00000898       TA_AVGDEV_Outputs          0000000180089898     ta_libc_csr:table_a.obj
 0003:000008a8       TA_AVGDEV_OptInputs        00000001800898a8     ta_libc_csr:table_a.obj
 0003:00000970       TA_ACCBANDS_Inputs         0000000180089970     ta_libc_csr:table_a.obj
 0003:00000980       TA_ACCBANDS_Outputs        0000000180089980     ta_libc_csr:table_a.obj
 0003:000009a0       TA_ACCBANDS_OptInputs      00000001800899a0     ta_libc_csr:table_a.obj
 0003:000009e8       TA_ACOS_Inputs             00000001800899e8     ta_libc_csr:table_a.obj
 0003:000009f8       TA_ACOS_Outputs            00000001800899f8     ta_libc_csr:table_a.obj
 0003:00000a40       TA_BOP_Outputs             0000000180089a40     ta_libc_csr:table_b.obj
 0003:00000a88       TA_BETA_Inputs             0000000180089a88     ta_libc_csr:table_b.obj
 0003:00000aa0       TA_BETA_Outputs            0000000180089aa0     ta_libc_csr:table_b.obj
 0003:00000ab0       TA_BETA_OptInputs          0000000180089ab0     ta_libc_csr:table_b.obj
 0003:00000b18       TA_BBANDS_Inputs           0000000180089b18     ta_libc_csr:table_b.obj
 0003:00000b28       TA_BBANDS_Outputs          0000000180089b28     ta_libc_csr:table_b.obj
 0003:00000b48       TA_BBANDS_OptInputs        0000000180089b48     ta_libc_csr:table_b.obj
 0003:00000ba8       TA_BOP_Inputs              0000000180089ba8     ta_libc_csr:table_b.obj
 0003:00000bc0       TA_CDL3BLACKCROWS_Inputs   0000000180089bc0     ta_libc_csr:table_c.obj
 0003:00000bd0       TA_CDL3BLACKCROWS_Outputs  0000000180089bd0     ta_libc_csr:table_c.obj
 0003:00000c18       TA_CDLRICKSHAWMAN_Inputs   0000000180089c18     ta_libc_csr:table_c.obj
 0003:00000c28       TA_CDLRICKSHAWMAN_Outputs  0000000180089c28     ta_libc_csr:table_c.obj
 0003:00000c70       TA_CDL3INSIDE_Inputs       0000000180089c70     ta_libc_csr:table_c.obj
 0003:00000c80       TA_CDL3INSIDE_Outputs      0000000180089c80     ta_libc_csr:table_c.obj
 0003:00000cc8       TA_CDLRISEFALL3METHODS_Inputs 0000000180089cc8     ta_libc_csr:table_c.obj
 0003:00000cd8       TA_CDLRISEFALL3METHODS_Outputs 0000000180089cd8     ta_libc_csr:table_c.obj
 0003:00000d20       TA_CDL3LINESTRIKE_Inputs   0000000180089d20     ta_libc_csr:table_c.obj
 0003:00000d30       TA_CDL3LINESTRIKE_Outputs  0000000180089d30     ta_libc_csr:table_c.obj
 0003:00000d78       TA_CDLSEPARATINGLINES_Inputs 0000000180089d78     ta_libc_csr:table_c.obj
 0003:00000d88       TA_CDLSEPARATINGLINES_Outputs 0000000180089d88     ta_libc_csr:table_c.obj
 0003:00000dd0       TA_CDL3OUTSIDE_Inputs      0000000180089dd0     ta_libc_csr:table_c.obj
 0003:00000de0       TA_CDL3OUTSIDE_Outputs     0000000180089de0     ta_libc_csr:table_c.obj
 0003:00000e28       TA_CDLSHOOTINGSTAR_Inputs  0000000180089e28     ta_libc_csr:table_c.obj
 0003:00000e38       TA_CDLSHOOTINGSTAR_Outputs 0000000180089e38     ta_libc_csr:table_c.obj
 0003:00000e80       TA_CDL3STARSINSOUTH_Inputs 0000000180089e80     ta_libc_csr:table_c.obj
 0003:00000e90       TA_CDL3STARSINSOUTH_Outputs 0000000180089e90     ta_libc_csr:table_c.obj
 0003:00000ed8       TA_CDLSHORTLINE_Inputs     0000000180089ed8     ta_libc_csr:table_c.obj
 0003:00000ee8       TA_CDLSHORTLINE_Outputs    0000000180089ee8     ta_libc_csr:table_c.obj
 0003:00000f30       TA_CDL3WHITESOLDIERS_Inputs 0000000180089f30     ta_libc_csr:table_c.obj
 0003:00000f40       TA_CDL3WHITESOLDIERS_Outputs 0000000180089f40     ta_libc_csr:table_c.obj
 0003:00000f88       TA_CDLSPINNINGTOP_Inputs   0000000180089f88     ta_libc_csr:table_c.obj
 0003:00000f98       TA_CDLSPINNINGTOP_Outputs  0000000180089f98     ta_libc_csr:table_c.obj
 0003:00000fe0       TA_CDLABANDONEDBABY_Inputs 0000000180089fe0     ta_libc_csr:table_c.obj
 0003:00000ff0       TA_CDLABANDONEDBABY_Outputs 0000000180089ff0     ta_libc_csr:table_c.obj
 0003:00001000       TA_CDLABANDONEDBABY_OptInputs 000000018008a000     ta_libc_csr:table_c.obj
 0003:00001048       TA_CDLSTALLEDPATTERN_Inputs 000000018008a048     ta_libc_csr:table_c.obj
 0003:00001058       TA_CDLSTALLEDPATTERN_Outputs 000000018008a058     ta_libc_csr:table_c.obj
 0003:000010a0       TA_CDLADVANCEBLOCK_Inputs  000000018008a0a0     ta_libc_csr:table_c.obj
 0003:000010b0       TA_CDLADVANCEBLOCK_Outputs 000000018008a0b0     ta_libc_csr:table_c.obj
 0003:000010f8       TA_CDLSTICKSANDWICH_Inputs 000000018008a0f8     ta_libc_csr:table_c.obj
 0003:00001108       TA_CDLSTICKSANDWICH_Outputs 000000018008a108     ta_libc_csr:table_c.obj
 0003:00001150       TA_CDLBELTHOLD_Inputs      000000018008a150     ta_libc_csr:table_c.obj
 0003:00001160       TA_CDLBELTHOLD_Outputs     000000018008a160     ta_libc_csr:table_c.obj
 0003:000011a8       TA_CDLTAKURI_Inputs        000000018008a1a8     ta_libc_csr:table_c.obj
 0003:000011b8       TA_CDLTAKURI_Outputs       000000018008a1b8     ta_libc_csr:table_c.obj
 0003:00001200       TA_CDLBREAKAWAY_Inputs     000000018008a200     ta_libc_csr:table_c.obj
 0003:00001210       TA_CDLBREAKAWAY_Outputs    000000018008a210     ta_libc_csr:table_c.obj
 0003:00001258       TA_CDLTASUKIGAP_Inputs     000000018008a258     ta_libc_csr:table_c.obj
 0003:00001268       TA_CDLTASUKIGAP_Outputs    000000018008a268     ta_libc_csr:table_c.obj
 0003:000012b0       TA_CDLCLOSINGMARUBOZU_Inputs 000000018008a2b0     ta_libc_csr:table_c.obj
 0003:000012c0       TA_CDLCLOSINGMARUBOZU_Outputs 000000018008a2c0     ta_libc_csr:table_c.obj
 0003:00001308       TA_CDLTHRUSTING_Inputs     000000018008a308     ta_libc_csr:table_c.obj
 0003:00001318       TA_CDLTHRUSTING_Outputs    000000018008a318     ta_libc_csr:table_c.obj
 0003:00001360       TA_CDLCONCEALBABYSWALL_Inputs 000000018008a360     ta_libc_csr:table_c.obj
 0003:00001370       TA_CDLCONCEALBABYSWALL_Outputs 000000018008a370     ta_libc_csr:table_c.obj
 0003:000013b8       TA_CDLTRISTAR_Inputs       000000018008a3b8     ta_libc_csr:table_c.obj
 0003:000013c8       TA_CDLTRISTAR_Outputs      000000018008a3c8     ta_libc_csr:table_c.obj
 0003:00001410       TA_CDLCOUNTERATTACK_Inputs 000000018008a410     ta_libc_csr:table_c.obj
 0003:00001420       TA_CDLCOUNTERATTACK_Outputs 000000018008a420     ta_libc_csr:table_c.obj
 0003:00001468       TA_CDLUNIQUE3RIVER_Inputs  000000018008a468     ta_libc_csr:table_c.obj
 0003:00001478       TA_CDLUNIQUE3RIVER_Outputs 000000018008a478     ta_libc_csr:table_c.obj
 0003:000014c0       TA_CDLDARKCLOUDCOVER_Inputs 000000018008a4c0     ta_libc_csr:table_c.obj
 0003:000014d0       TA_CDLDARKCLOUDCOVER_Outputs 000000018008a4d0     ta_libc_csr:table_c.obj
 0003:000014e0       TA_CDLDARKCLOUDCOVER_OptInputs 000000018008a4e0     ta_libc_csr:table_c.obj
 0003:00001528       TA_CDLUPSIDEGAP2CROWS_Inputs 000000018008a528     ta_libc_csr:table_c.obj
 0003:00001538       TA_CDLUPSIDEGAP2CROWS_Outputs 000000018008a538     ta_libc_csr:table_c.obj
 0003:00001580       TA_CDLDOJI_Inputs          000000018008a580     ta_libc_csr:table_c.obj
 0003:00001590       TA_CDLDOJI_Outputs         000000018008a590     ta_libc_csr:table_c.obj
 0003:000015d8       TA_CDLXSIDEGAP3METHODS_Inputs 000000018008a5d8     ta_libc_csr:table_c.obj
 0003:000015e8       TA_CDLXSIDEGAP3METHODS_Outputs 000000018008a5e8     ta_libc_csr:table_c.obj
 0003:00001630       TA_CDLDOJISTAR_Inputs      000000018008a630     ta_libc_csr:table_c.obj
 0003:00001640       TA_CDLDOJISTAR_Outputs     000000018008a640     ta_libc_csr:table_c.obj
 0003:00001688       TA_CEIL_Inputs             000000018008a688     ta_libc_csr:table_c.obj
 0003:00001698       TA_CEIL_Outputs            000000018008a698     ta_libc_csr:table_c.obj
 0003:000016e0       TA_CDLDRAGONFLYDOJI_Inputs 000000018008a6e0     ta_libc_csr:table_c.obj
 0003:000016f0       TA_CDLDRAGONFLYDOJI_Outputs 000000018008a6f0     ta_libc_csr:table_c.obj
 0003:00001738       TA_CMO_Inputs              000000018008a738     ta_libc_csr:table_c.obj
 0003:00001748       TA_CMO_Outputs             000000018008a748     ta_libc_csr:table_c.obj
 0003:00001758       TA_CMO_OptInputs           000000018008a758     ta_libc_csr:table_c.obj
 0003:000017a0       TA_CDLENGULFING_Inputs     000000018008a7a0     ta_libc_csr:table_c.obj
 0003:000017b0       TA_CDLENGULFING_Outputs    000000018008a7b0     ta_libc_csr:table_c.obj
 0003:000017f8       TA_CORREL_Inputs           000000018008a7f8     ta_libc_csr:table_c.obj
 0003:00001810       TA_CORREL_Outputs          000000018008a810     ta_libc_csr:table_c.obj
 0003:00001820       TA_CORREL_OptInputs        000000018008a820     ta_libc_csr:table_c.obj
 0003:00001868       TA_CDLEVENINGDOJISTAR_Inputs 000000018008a868     ta_libc_csr:table_c.obj
 0003:00001878       TA_CDLEVENINGDOJISTAR_Outputs 000000018008a878     ta_libc_csr:table_c.obj
 0003:00001888       TA_CDLEVENINGDOJISTAR_OptInputs 000000018008a888     ta_libc_csr:table_c.obj
 0003:000018d0       TA_COS_Inputs              000000018008a8d0     ta_libc_csr:table_c.obj
 0003:000018e0       TA_COS_Outputs             000000018008a8e0     ta_libc_csr:table_c.obj
 0003:00001928       TA_CDLEVENINGSTAR_Inputs   000000018008a928     ta_libc_csr:table_c.obj
 0003:00001938       TA_CDLEVENINGSTAR_Outputs  000000018008a938     ta_libc_csr:table_c.obj
 0003:00001948       TA_CDLEVENINGSTAR_OptInputs 000000018008a948     ta_libc_csr:table_c.obj
 0003:00001990       TA_COSH_Inputs             000000018008a990     ta_libc_csr:table_c.obj
 0003:000019a0       TA_COSH_Outputs            000000018008a9a0     ta_libc_csr:table_c.obj
 0003:000019e8       TA_CDLGAPSIDESIDEWHITE_Inputs 000000018008a9e8     ta_libc_csr:table_c.obj
 0003:000019f8       TA_CDLGAPSIDESIDEWHITE_Outputs 000000018008a9f8     ta_libc_csr:table_c.obj
 0003:00001c60       TA_CDLGRAVESTONEDOJI_Inputs 000000018008ac60     ta_libc_csr:table_c.obj
 0003:00001c70       TA_CDLGRAVESTONEDOJI_Outputs 000000018008ac70     ta_libc_csr:table_c.obj
 0003:00001cb8       TA_CDLHAMMER_Inputs        000000018008acb8     ta_libc_csr:table_c.obj
 0003:00001cc8       TA_CDLHAMMER_Outputs       000000018008acc8     ta_libc_csr:table_c.obj
 0003:00001d10       TA_CDLHANGINGMAN_Inputs    000000018008ad10     ta_libc_csr:table_c.obj
 0003:00001d20       TA_CDLHANGINGMAN_Outputs   000000018008ad20     ta_libc_csr:table_c.obj
 0003:00001d68       TA_CDLHARAMI_Inputs        000000018008ad68     ta_libc_csr:table_c.obj
 0003:00001d78       TA_CDLHARAMI_Outputs       000000018008ad78     ta_libc_csr:table_c.obj
 0003:00001dc0       TA_CDLHARAMICROSS_Inputs   000000018008adc0     ta_libc_csr:table_c.obj
 0003:00001dd0       TA_CDLHARAMICROSS_Outputs  000000018008add0     ta_libc_csr:table_c.obj
 0003:00001e18       TA_CDLHIGHWAVE_Inputs      000000018008ae18     ta_libc_csr:table_c.obj
 0003:00001e28       TA_CDLHIGHWAVE_Outputs     000000018008ae28     ta_libc_csr:table_c.obj
 0003:00001e70       TA_CDLHIKKAKE_Inputs       000000018008ae70     ta_libc_csr:table_c.obj
 0003:00001e80       TA_CDLHIKKAKE_Outputs      000000018008ae80     ta_libc_csr:table_c.obj
 0003:00001ec8       TA_CDLHIKKAKEMOD_Inputs    000000018008aec8     ta_libc_csr:table_c.obj
 0003:00001ed8       TA_CDLHIKKAKEMOD_Outputs   000000018008aed8     ta_libc_csr:table_c.obj
 0003:00001f20       TA_CDLHOMINGPIGEON_Inputs  000000018008af20     ta_libc_csr:table_c.obj
 0003:00001f30       TA_CDLHOMINGPIGEON_Outputs 000000018008af30     ta_libc_csr:table_c.obj
 0003:00001f78       TA_CDLIDENTICAL3CROWS_Inputs 000000018008af78     ta_libc_csr:table_c.obj
 0003:00001f88       TA_CDLIDENTICAL3CROWS_Outputs 000000018008af88     ta_libc_csr:table_c.obj
 0003:00001fd0       TA_CDLINNECK_Inputs        000000018008afd0     ta_libc_csr:table_c.obj
 0003:00001fe0       TA_CDLINNECK_Outputs       000000018008afe0     ta_libc_csr:table_c.obj
 0003:00002028       TA_CDLINVERTEDHAMMER_Inputs 000000018008b028     ta_libc_csr:table_c.obj
 0003:00002038       TA_CDLINVERTEDHAMMER_Outputs 000000018008b038     ta_libc_csr:table_c.obj
 0003:00002080       TA_CDLKICKING_Inputs       000000018008b080     ta_libc_csr:table_c.obj
 0003:00002090       TA_CDLKICKING_Outputs      000000018008b090     ta_libc_csr:table_c.obj
 0003:000020d8       TA_CDLKICKINGBYLENGTH_Inputs 000000018008b0d8     ta_libc_csr:table_c.obj
 0003:000020e8       TA_CDLKICKINGBYLENGTH_Outputs 000000018008b0e8     ta_libc_csr:table_c.obj
 0003:00002130       TA_CDLLADDERBOTTOM_Inputs  000000018008b130     ta_libc_csr:table_c.obj
 0003:00002140       TA_CDLLADDERBOTTOM_Outputs 000000018008b140     ta_libc_csr:table_c.obj
 0003:00002188       TA_CDLLONGLEGGEDDOJI_Inputs 000000018008b188     ta_libc_csr:table_c.obj
 0003:00002198       TA_CDLLONGLEGGEDDOJI_Outputs 000000018008b198     ta_libc_csr:table_c.obj
 0003:000021e0       TA_CDLLONGLINE_Inputs      000000018008b1e0     ta_libc_csr:table_c.obj
 0003:000021f0       TA_CDLLONGLINE_Outputs     000000018008b1f0     ta_libc_csr:table_c.obj
 0003:00002238       TA_CDLMARUBOZU_Inputs      000000018008b238     ta_libc_csr:table_c.obj
 0003:00002248       TA_CDLMARUBOZU_Outputs     000000018008b248     ta_libc_csr:table_c.obj
 0003:00002290       TA_CDLMATCHINGLOW_Inputs   000000018008b290     ta_libc_csr:table_c.obj
 0003:000022a0       TA_CDLMATCHINGLOW_Outputs  000000018008b2a0     ta_libc_csr:table_c.obj
 0003:000022e8       TA_CDLMATHOLD_Inputs       000000018008b2e8     ta_libc_csr:table_c.obj
 0003:000022f8       TA_CDLMATHOLD_Outputs      000000018008b2f8     ta_libc_csr:table_c.obj
 0003:00002308       TA_CDLMATHOLD_OptInputs    000000018008b308     ta_libc_csr:table_c.obj
 0003:00002350       TA_CDLMORNINGDOJISTAR_Inputs 000000018008b350     ta_libc_csr:table_c.obj
 0003:00002360       TA_CDLMORNINGDOJISTAR_Outputs 000000018008b360     ta_libc_csr:table_c.obj
 0003:00002370       TA_CDLMORNINGDOJISTAR_OptInputs 000000018008b370     ta_libc_csr:table_c.obj
 0003:000023b8       TA_CDLMORNINGSTAR_Inputs   000000018008b3b8     ta_libc_csr:table_c.obj
 0003:000023c8       TA_CDLMORNINGSTAR_Outputs  000000018008b3c8     ta_libc_csr:table_c.obj
 0003:000023d8       TA_CDLMORNINGSTAR_OptInputs 000000018008b3d8     ta_libc_csr:table_c.obj
 0003:00002420       TA_CCI_Inputs              000000018008b420     ta_libc_csr:table_c.obj
 0003:00002430       TA_CCI_Outputs             000000018008b430     ta_libc_csr:table_c.obj
 0003:00002440       TA_CCI_OptInputs           000000018008b440     ta_libc_csr:table_c.obj
 0003:00002488       TA_CDLONNECK_Inputs        000000018008b488     ta_libc_csr:table_c.obj
 0003:00002498       TA_CDLONNECK_Outputs       000000018008b498     ta_libc_csr:table_c.obj
 0003:000024e0       TA_CDL2CROWS_Inputs        000000018008b4e0     ta_libc_csr:table_c.obj
 0003:000024f0       TA_CDL2CROWS_Outputs       000000018008b4f0     ta_libc_csr:table_c.obj
 0003:00002538       TA_CDLPIERCING_Inputs      000000018008b538     ta_libc_csr:table_c.obj
 0003:00002548       TA_CDLPIERCING_Outputs     000000018008b548     ta_libc_csr:table_c.obj
 0003:00002590       TA_DX_Inputs               000000018008b590     ta_libc_csr:table_d.obj
 0003:000025a0       TA_DX_Outputs              000000018008b5a0     ta_libc_csr:table_d.obj
 0003:000025b0       TA_DX_OptInputs            000000018008b5b0     ta_libc_csr:table_d.obj
 0003:00002618       TA_DEMA_Inputs             000000018008b618     ta_libc_csr:table_d.obj
 0003:00002628       TA_DEMA_Outputs            000000018008b628     ta_libc_csr:table_d.obj
 0003:00002638       TA_DEMA_OptInputs          000000018008b638     ta_libc_csr:table_d.obj
 0003:00002680       TA_DIV_Inputs              000000018008b680     ta_libc_csr:table_d.obj
 0003:00002698       TA_DIV_Outputs             000000018008b698     ta_libc_csr:table_d.obj
 0003:000026f8       TA_EMA_Inputs              000000018008b6f8     ta_libc_csr:table_e.obj
 0003:00002708       TA_EMA_Outputs             000000018008b708     ta_libc_csr:table_e.obj
 0003:00002718       TA_EMA_OptInputs           000000018008b718     ta_libc_csr:table_e.obj
 0003:00002760       TA_EXP_Inputs              000000018008b760     ta_libc_csr:table_e.obj
 0003:00002770       TA_EXP_Outputs             000000018008b770     ta_libc_csr:table_e.obj
 0003:000027b8       TA_FLOOR_Inputs            000000018008b7b8     ta_libc_csr:table_f.obj
 0003:000027c8       TA_FLOOR_Outputs           000000018008b7c8     ta_libc_csr:table_f.obj
 0003:00002820       TA_HT_PHASOR_Inputs        000000018008b820     ta_libc_csr:table_h.obj
 0003:00002830       TA_HT_PHASOR_Outputs       000000018008b830     ta_libc_csr:table_h.obj
 0003:00002880       TA_HT_SINE_Inputs          000000018008b880     ta_libc_csr:table_h.obj
 0003:00002890       TA_HT_SINE_Outputs         000000018008b890     ta_libc_csr:table_h.obj
 0003:000028e0       TA_HT_TRENDLINE_Inputs     000000018008b8e0     ta_libc_csr:table_h.obj
 0003:000028f0       TA_HT_TRENDLINE_Outputs    000000018008b8f0     ta_libc_csr:table_h.obj
 0003:00002938       TA_HT_TRENDMODE_Inputs     000000018008b938     ta_libc_csr:table_h.obj
 0003:00002948       TA_HT_TRENDMODE_Outputs    000000018008b948     ta_libc_csr:table_h.obj
 0003:000029c8       TA_HT_DCPERIOD_Inputs      000000018008b9c8     ta_libc_csr:table_h.obj
 0003:000029d8       TA_HT_DCPERIOD_Outputs     000000018008b9d8     ta_libc_csr:table_h.obj
 0003:00002a20       TA_HT_DCPHASE_Inputs       000000018008ba20     ta_libc_csr:table_h.obj
 0003:00002a30       TA_HT_DCPHASE_Outputs      000000018008ba30     ta_libc_csr:table_h.obj
 0003:00002a78       TA_IMI_Inputs              000000018008ba78     ta_libc_csr:table_i.obj
 0003:00002a88       TA_IMI_Outputs             000000018008ba88     ta_libc_csr:table_i.obj
 0003:00002a98       TA_IMI_OptInputs           000000018008ba98     ta_libc_csr:table_i.obj
 0003:00002af0       TA_KAMA_Inputs             000000018008baf0     ta_libc_csr:table_k.obj
 0003:00002b00       TA_KAMA_Outputs            000000018008bb00     ta_libc_csr:table_k.obj
 0003:00002b10       TA_KAMA_OptInputs          000000018008bb10     ta_libc_csr:table_k.obj
 0003:00002b68       TA_LINEARREG_ANGLE_Inputs  000000018008bb68     ta_libc_csr:table_l.obj
 0003:00002b78       TA_LINEARREG_ANGLE_Outputs 000000018008bb78     ta_libc_csr:table_l.obj
 0003:00002b88       TA_LINEARREG_ANGLE_OptInputs 000000018008bb88     ta_libc_csr:table_l.obj
 0003:00002bd0       TA_LINEARREG_INTERCEPT_Inputs 000000018008bbd0     ta_libc_csr:table_l.obj
 0003:00002be0       TA_LINEARREG_INTERCEPT_Outputs 000000018008bbe0     ta_libc_csr:table_l.obj
 0003:00002bf0       TA_LINEARREG_INTERCEPT_OptInputs 000000018008bbf0     ta_libc_csr:table_l.obj
 0003:00002c38       TA_LN_Inputs               000000018008bc38     ta_libc_csr:table_l.obj
 0003:00002c48       TA_LN_Outputs              000000018008bc48     ta_libc_csr:table_l.obj
 0003:00002c90       TA_LOG10_Inputs            000000018008bc90     ta_libc_csr:table_l.obj
 0003:00002ca0       TA_LOG10_Outputs           000000018008bca0     ta_libc_csr:table_l.obj
 0003:00002d20       TA_LINEARREG_Inputs        000000018008bd20     ta_libc_csr:table_l.obj
 0003:00002d30       TA_LINEARREG_Outputs       000000018008bd30     ta_libc_csr:table_l.obj
 0003:00002d40       TA_LINEARREG_OptInputs     000000018008bd40     ta_libc_csr:table_l.obj
 0003:00002d88       TA_LINEARREG_SLOPE_Inputs  000000018008bd88     ta_libc_csr:table_l.obj
 0003:00002d98       TA_LINEARREG_SLOPE_Outputs 000000018008bd98     ta_libc_csr:table_l.obj
 0003:00002da8       TA_LINEARREG_SLOPE_OptInputs 000000018008bda8     ta_libc_csr:table_l.obj
 0003:00002df0       TA_MACD_Inputs             000000018008bdf0     ta_libc_csr:table_m.obj
 0003:00002e00       TA_MACD_Outputs            000000018008be00     ta_libc_csr:table_m.obj
 0003:00002e20       TA_MACD_OptInputs          000000018008be20     ta_libc_csr:table_m.obj
 0003:00002e78       TA_MACDEXT_Inputs          000000018008be78     ta_libc_csr:table_m.obj
 0003:00002e88       TA_MACDEXT_Outputs         000000018008be88     ta_libc_csr:table_m.obj
 0003:00002ea8       TA_MACDEXT_OptInputs       000000018008bea8     ta_libc_csr:table_m.obj
 0003:00002f18       TA_MACDFIX_Inputs          000000018008bf18     ta_libc_csr:table_m.obj
 0003:00002f28       TA_MACDFIX_Outputs         000000018008bf28     ta_libc_csr:table_m.obj
 0003:00002f48       TA_MACDFIX_OptInputs       000000018008bf48     ta_libc_csr:table_m.obj
 0003:00002f90       TA_MAMA_Inputs             000000018008bf90     ta_libc_csr:table_m.obj
 0003:00002fa0       TA_MAMA_Outputs            000000018008bfa0     ta_libc_csr:table_m.obj
 0003:00002fb8       TA_MAMA_OptInputs          000000018008bfb8     ta_libc_csr:table_m.obj
 0003:00003008       TA_MAVP_Inputs             000000018008c008     ta_libc_csr:table_m.obj
 0003:00003020       TA_MAVP_Outputs            000000018008c020     ta_libc_csr:table_m.obj
 0003:00003030       TA_MAVP_OptInputs          000000018008c030     ta_libc_csr:table_m.obj
 0003:00003088       TA_MAX_Inputs              000000018008c088     ta_libc_csr:table_m.obj
 0003:00003098       TA_MAX_Outputs             000000018008c098     ta_libc_csr:table_m.obj
 0003:000030a8       TA_MAX_OptInputs           000000018008c0a8     ta_libc_csr:table_m.obj
 0003:000030f0       TA_MAXINDEX_Inputs         000000018008c0f0     ta_libc_csr:table_m.obj
 0003:00003100       TA_MAXINDEX_Outputs        000000018008c100     ta_libc_csr:table_m.obj
 0003:00003110       TA_MAXINDEX_OptInputs      000000018008c110     ta_libc_csr:table_m.obj
 0003:00003158       TA_MEDPRICE_Inputs         000000018008c158     ta_libc_csr:table_m.obj
 0003:00003168       TA_MEDPRICE_Outputs        000000018008c168     ta_libc_csr:table_m.obj
 0003:000031b0       TA_MFI_Inputs              000000018008c1b0     ta_libc_csr:table_m.obj
 0003:000031c0       TA_MFI_Outputs             000000018008c1c0     ta_libc_csr:table_m.obj
 0003:000031d0       TA_MFI_OptInputs           000000018008c1d0     ta_libc_csr:table_m.obj
 0003:00003218       TA_MIDPRICE_Inputs         000000018008c218     ta_libc_csr:table_m.obj
 0003:00003228       TA_MIDPRICE_Outputs        000000018008c228     ta_libc_csr:table_m.obj
 0003:00003238       TA_MIDPRICE_OptInputs      000000018008c238     ta_libc_csr:table_m.obj
 0003:00003280       TA_MIDPOINT_Inputs         000000018008c280     ta_libc_csr:table_m.obj
 0003:00003290       TA_MIDPOINT_Outputs        000000018008c290     ta_libc_csr:table_m.obj
 0003:000032a0       TA_MIDPOINT_OptInputs      000000018008c2a0     ta_libc_csr:table_m.obj
 0003:000032e8       TA_MIN_Inputs              000000018008c2e8     ta_libc_csr:table_m.obj
 0003:000032f8       TA_MIN_Outputs             000000018008c2f8     ta_libc_csr:table_m.obj
 0003:00003308       TA_MIN_OptInputs           000000018008c308     ta_libc_csr:table_m.obj
 0003:00003350       TA_MININDEX_Inputs         000000018008c350     ta_libc_csr:table_m.obj
 0003:00003360       TA_MININDEX_Outputs        000000018008c360     ta_libc_csr:table_m.obj
 0003:00003370       TA_MININDEX_OptInputs      000000018008c370     ta_libc_csr:table_m.obj
 0003:000033b8       TA_MINMAX_Inputs           000000018008c3b8     ta_libc_csr:table_m.obj
 0003:000033c8       TA_MINMAX_Outputs          000000018008c3c8     ta_libc_csr:table_m.obj
 0003:000033e0       TA_MINMAX_OptInputs        000000018008c3e0     ta_libc_csr:table_m.obj
 0003:00003428       TA_MINMAXINDEX_Inputs      000000018008c428     ta_libc_csr:table_m.obj
 0003:00003438       TA_MINMAXINDEX_Outputs     000000018008c438     ta_libc_csr:table_m.obj
 0003:00003450       TA_MINMAXINDEX_OptInputs   000000018008c450     ta_libc_csr:table_m.obj
 0003:00003498       TA_MINUS_DI_Inputs         000000018008c498     ta_libc_csr:table_m.obj
 0003:000034a8       TA_MINUS_DI_Outputs        000000018008c4a8     ta_libc_csr:table_m.obj
 0003:000034b8       TA_MINUS_DI_OptInputs      000000018008c4b8     ta_libc_csr:table_m.obj
 0003:00003500       TA_MINUS_DM_Inputs         000000018008c500     ta_libc_csr:table_m.obj
 0003:00003510       TA_MINUS_DM_Outputs        000000018008c510     ta_libc_csr:table_m.obj
 0003:00003520       TA_MINUS_DM_OptInputs      000000018008c520     ta_libc_csr:table_m.obj
 0003:00003568       TA_MOM_Inputs              000000018008c568     ta_libc_csr:table_m.obj
 0003:00003578       TA_MOM_Outputs             000000018008c578     ta_libc_csr:table_m.obj
 0003:00003588       TA_MOM_OptInputs           000000018008c588     ta_libc_csr:table_m.obj
 0003:000035d0       TA_MULT_Inputs             000000018008c5d0     ta_libc_csr:table_m.obj
 0003:000035e8       TA_MULT_Outputs            000000018008c5e8     ta_libc_csr:table_m.obj
 0003:000036d8       TA_MA_Inputs               000000018008c6d8     ta_libc_csr:table_m.obj
 0003:000036e8       TA_MA_Outputs              000000018008c6e8     ta_libc_csr:table_m.obj
 0003:000036f8       TA_MA_OptInputs            000000018008c6f8     ta_libc_csr:table_m.obj
 0003:00003748       TA_NATR_Inputs             000000018008c748     ta_libc_csr:table_n.obj
 0003:00003758       TA_NATR_Outputs            000000018008c758     ta_libc_csr:table_n.obj
 0003:00003768       TA_NATR_OptInputs          000000018008c768     ta_libc_csr:table_n.obj
 0003:000037c0       TA_OBV_Inputs              000000018008c7c0     ta_libc_csr:table_o.obj
 0003:000037d8       TA_OBV_Outputs             000000018008c7d8     ta_libc_csr:table_o.obj
 0003:00003830       TA_PPO_Inputs              000000018008c830     ta_libc_csr:table_p.obj
 0003:00003840       TA_PPO_Outputs             000000018008c840     ta_libc_csr:table_p.obj
 0003:00003850       TA_PPO_OptInputs           000000018008c850     ta_libc_csr:table_p.obj
 0003:000038c8       TA_PLUS_DI_Inputs          000000018008c8c8     ta_libc_csr:table_p.obj
 0003:000038d8       TA_PLUS_DI_Outputs         000000018008c8d8     ta_libc_csr:table_p.obj
 0003:000038e8       TA_PLUS_DI_OptInputs       000000018008c8e8     ta_libc_csr:table_p.obj
 0003:00003930       TA_PLUS_DM_Inputs          000000018008c930     ta_libc_csr:table_p.obj
 0003:00003940       TA_PLUS_DM_Outputs         000000018008c940     ta_libc_csr:table_p.obj
 0003:00003950       TA_PLUS_DM_OptInputs       000000018008c950     ta_libc_csr:table_p.obj
 0003:00003998       TA_ROCR_Inputs             000000018008c998     ta_libc_csr:table_r.obj
 0003:000039a8       TA_ROCR_Outputs            000000018008c9a8     ta_libc_csr:table_r.obj
 0003:000039b8       TA_ROCR_OptInputs          000000018008c9b8     ta_libc_csr:table_r.obj
 0003:00003a00       TA_ROCR100_Inputs          000000018008ca00     ta_libc_csr:table_r.obj
 0003:00003a10       TA_ROCR100_Outputs         000000018008ca10     ta_libc_csr:table_r.obj
 0003:00003a20       TA_ROCR100_OptInputs       000000018008ca20     ta_libc_csr:table_r.obj
 0003:00003a68       TA_RSI_Inputs              000000018008ca68     ta_libc_csr:table_r.obj
 0003:00003a78       TA_RSI_Outputs             000000018008ca78     ta_libc_csr:table_r.obj
 0003:00003a88       TA_RSI_OptInputs           000000018008ca88     ta_libc_csr:table_r.obj
 0003:00003b00       TA_ROC_Inputs              000000018008cb00     ta_libc_csr:table_r.obj
 0003:00003b10       TA_ROC_Outputs             000000018008cb10     ta_libc_csr:table_r.obj
 0003:00003b20       TA_ROC_OptInputs           000000018008cb20     ta_libc_csr:table_r.obj
 0003:00003b68       TA_ROCP_Inputs             000000018008cb68     ta_libc_csr:table_r.obj
 0003:00003b78       TA_ROCP_Outputs            000000018008cb78     ta_libc_csr:table_r.obj
 0003:00003b88       TA_ROCP_OptInputs          000000018008cb88     ta_libc_csr:table_r.obj
 0003:00003bd0       TA_SAREXT_Inputs           000000018008cbd0     ta_libc_csr:table_s.obj
 0003:00003be0       TA_SAREXT_Outputs          000000018008cbe0     ta_libc_csr:table_s.obj
 0003:00003bf0       TA_SAREXT_OptInputs        000000018008cbf0     ta_libc_csr:table_s.obj
 0003:00003c70       TA_SIN_Inputs              000000018008cc70     ta_libc_csr:table_s.obj
 0003:00003c80       TA_SIN_Outputs             000000018008cc80     ta_libc_csr:table_s.obj
 0003:00003cc8       TA_SINH_Inputs             000000018008ccc8     ta_libc_csr:table_s.obj
 0003:00003cd8       TA_SINH_Outputs            000000018008ccd8     ta_libc_csr:table_s.obj
 0003:00003d20       TA_SMA_Inputs              000000018008cd20     ta_libc_csr:table_s.obj
 0003:00003d30       TA_SMA_Outputs             000000018008cd30     ta_libc_csr:table_s.obj
 0003:00003d40       TA_SMA_OptInputs           000000018008cd40     ta_libc_csr:table_s.obj
 0003:00003d88       TA_SQRT_Inputs             000000018008cd88     ta_libc_csr:table_s.obj
 0003:00003d98       TA_SQRT_Outputs            000000018008cd98     ta_libc_csr:table_s.obj
 0003:00003de0       TA_SUB_Inputs              000000018008cde0     ta_libc_csr:table_s.obj
 0003:00003df8       TA_SUB_Outputs             000000018008cdf8     ta_libc_csr:table_s.obj
 0003:00003e40       TA_SUM_Inputs              000000018008ce40     ta_libc_csr:table_s.obj
 0003:00003e50       TA_SUM_Outputs             000000018008ce50     ta_libc_csr:table_s.obj
 0003:00003e60       TA_SUM_OptInputs           000000018008ce60     ta_libc_csr:table_s.obj
 0003:00003ea8       TA_STDDEV_Inputs           000000018008cea8     ta_libc_csr:table_s.obj
 0003:00003eb8       TA_STDDEV_Outputs          000000018008ceb8     ta_libc_csr:table_s.obj
 0003:00003ec8       TA_STDDEV_OptInputs        000000018008cec8     ta_libc_csr:table_s.obj
 0003:00003f18       TA_STOCH_Inputs            000000018008cf18     ta_libc_csr:table_s.obj
 0003:00003f28       TA_STOCH_Outputs           000000018008cf28     ta_libc_csr:table_s.obj
 0003:00003f40       TA_STOCH_OptInputs         000000018008cf40     ta_libc_csr:table_s.obj
 0003:00003fa8       TA_STOCHF_Inputs           000000018008cfa8     ta_libc_csr:table_s.obj
 0003:00003fb8       TA_STOCHF_Outputs          000000018008cfb8     ta_libc_csr:table_s.obj
 0003:00003fd0       TA_STOCHF_OptInputs        000000018008cfd0     ta_libc_csr:table_s.obj
 0003:00004028       TA_STOCHRSI_Inputs         000000018008d028     ta_libc_csr:table_s.obj
 0003:00004038       TA_STOCHRSI_Outputs        000000018008d038     ta_libc_csr:table_s.obj
 0003:00004050       TA_STOCHRSI_OptInputs      000000018008d050     ta_libc_csr:table_s.obj
 0003:00004118       TA_SAR_Inputs              000000018008d118     ta_libc_csr:table_s.obj
 0003:00004128       TA_SAR_Outputs             000000018008d128     ta_libc_csr:table_s.obj
 0003:00004138       TA_SAR_OptInputs           000000018008d138     ta_libc_csr:table_s.obj
 0003:00004190       TA_TANH_Inputs             000000018008d190     ta_libc_csr:table_t.obj
 0003:000041a0       TA_TANH_Outputs            000000018008d1a0     ta_libc_csr:table_t.obj
 0003:000041e8       TA_TEMA_Inputs             000000018008d1e8     ta_libc_csr:table_t.obj
 0003:000041f8       TA_TEMA_Outputs            000000018008d1f8     ta_libc_csr:table_t.obj
 0003:00004208       TA_TEMA_OptInputs          000000018008d208     ta_libc_csr:table_t.obj
 0003:00004250       TA_TRANGE_Inputs           000000018008d250     ta_libc_csr:table_t.obj
 0003:00004260       TA_TRANGE_Outputs          000000018008d260     ta_libc_csr:table_t.obj
 0003:000042a8       TA_TRIMA_Inputs            000000018008d2a8     ta_libc_csr:table_t.obj
 0003:000042b8       TA_TRIMA_Outputs           000000018008d2b8     ta_libc_csr:table_t.obj
 0003:000042c8       TA_TRIMA_OptInputs         000000018008d2c8     ta_libc_csr:table_t.obj
 0003:00004310       TA_TRIX_Inputs             000000018008d310     ta_libc_csr:table_t.obj
 0003:00004320       TA_TRIX_Outputs            000000018008d320     ta_libc_csr:table_t.obj
 0003:00004330       TA_TRIX_OptInputs          000000018008d330     ta_libc_csr:table_t.obj
 0003:00004378       TA_TSF_Inputs              000000018008d378     ta_libc_csr:table_t.obj
 0003:00004388       TA_TSF_Outputs             000000018008d388     ta_libc_csr:table_t.obj
 0003:00004398       TA_TSF_OptInputs           000000018008d398     ta_libc_csr:table_t.obj
 0003:000043e0       TA_TYPPRICE_Inputs         000000018008d3e0     ta_libc_csr:table_t.obj
 0003:000043f0       TA_TYPPRICE_Outputs        000000018008d3f0     ta_libc_csr:table_t.obj
 0003:00004438       TA_T3_OptInputs            000000018008d438     ta_libc_csr:table_t.obj
 0003:000044a0       TA_T3_Inputs               000000018008d4a0     ta_libc_csr:table_t.obj
 0003:000044b0       TA_T3_Outputs              000000018008d4b0     ta_libc_csr:table_t.obj
 0003:000044f8       TA_TAN_Inputs              000000018008d4f8     ta_libc_csr:table_t.obj
 0003:00004508       TA_TAN_Outputs             000000018008d508     ta_libc_csr:table_t.obj
 0003:00004550       TA_ULTOSC_Inputs           000000018008d550     ta_libc_csr:table_u.obj
 0003:00004560       TA_ULTOSC_Outputs          000000018008d560     ta_libc_csr:table_u.obj
 0003:00004570       TA_ULTOSC_OptInputs        000000018008d570     ta_libc_csr:table_u.obj
 0003:000045d8       TA_VAR_Inputs              000000018008d5d8     ta_libc_csr:table_v.obj
 0003:000045e8       TA_VAR_Outputs             000000018008d5e8     ta_libc_csr:table_v.obj
 0003:000045f8       TA_VAR_OptInputs           000000018008d5f8     ta_libc_csr:table_v.obj
 0003:00004658       TA_WMA_Inputs              000000018008d658     ta_libc_csr:table_w.obj
 0003:00004668       TA_WMA_Outputs             000000018008d668     ta_libc_csr:table_w.obj
 0003:00004678       TA_WMA_OptInputs           000000018008d678     ta_libc_csr:table_w.obj
 0003:000046e0       TA_WCLPRICE_Inputs         000000018008d6e0     ta_libc_csr:table_w.obj
 0003:000046f0       TA_WCLPRICE_Outputs        000000018008d6f0     ta_libc_csr:table_w.obj
 0003:00004738       TA_WILLR_Inputs            000000018008d738     ta_libc_csr:table_w.obj
 0003:00004748       TA_WILLR_Outputs           000000018008d748     ta_libc_csr:table_w.obj
 0003:00004758       TA_WILLR_OptInputs         000000018008d758     ta_libc_csr:table_w.obj
 0003:00004d80       ?__vcrt_flsindex@@3KA      000000018008dd80     libvcruntime:per_thread_data.obj
 0003:00004da0       ?errno_no_memory@@3HA      000000018008dda0     libucrt:errno.obj
 0003:00004da4       ?doserrno_no_memory@@3KA   000000018008dda4     libucrt:errno.obj
 0003:00004eb8       ?__acrt_flsindex@@3KA      000000018008deb8     libucrt:per_thread_data.obj
 0003:00005038       ?dazSupported@?1??_ctrlfp@@9@9 000000018008e038     libucrt:fpctrl.obj
 0003:00005040       _mbctypes                  000000018008e040     libucrt:mbctype.obj
 0003:00005150       _mbcasemaps                000000018008e150     libucrt:mbctype.obj
 0003:00005250       ?__rgctypeflag@@3PADA      000000018008e250     libucrt:mbctype.obj
 0003:00005260       ?__rgcode_page_info@@3PAUcode_page_info@@A 000000018008e260     libucrt:mbctype.obj
 0003:00005770       ?__dcrt_lowio_console_output_handle@@3PEAXEA 000000018008e770     libucrt:initcon.obj
 0003:00005780       _module                    000000018008e780     talib.obj
 0003:00005c58       TA_AD_OptInputs            000000018008ec58     ta_libc_csr:table_a.obj
 0003:00005c60       TA_ADD_OptInputs           000000018008ec60     ta_libc_csr:table_a.obj
 0003:00005c68       TA_ASIN_OptInputs          000000018008ec68     ta_libc_csr:table_a.obj
 0003:00005c70       TA_ATAN_OptInputs          000000018008ec70     ta_libc_csr:table_a.obj
 0003:00005c78       TA_AVGPRICE_OptInputs      000000018008ec78     ta_libc_csr:table_a.obj
 0003:00005c80       TA_ACOS_OptInputs          000000018008ec80     ta_libc_csr:table_a.obj
 0003:00005c88       TA_BOP_OptInputs           000000018008ec88     ta_libc_csr:table_b.obj
 0003:00005c90       TA_CDL3BLACKCROWS_OptInputs 000000018008ec90     ta_libc_csr:table_c.obj
 0003:00005c98       TA_CDLRICKSHAWMAN_OptInputs 000000018008ec98     ta_libc_csr:table_c.obj
 0003:00005ca0       TA_CDL3INSIDE_OptInputs    000000018008eca0     ta_libc_csr:table_c.obj
 0003:00005ca8       TA_CDLRISEFALL3METHODS_OptInputs 000000018008eca8     ta_libc_csr:table_c.obj
 0003:00005cb0       TA_CDL3LINESTRIKE_OptInputs 000000018008ecb0     ta_libc_csr:table_c.obj
 0003:00005cb8       TA_CDLSEPARATINGLINES_OptInputs 000000018008ecb8     ta_libc_csr:table_c.obj
 0003:00005cc0       TA_CDL3OUTSIDE_OptInputs   000000018008ecc0     ta_libc_csr:table_c.obj
 0003:00005cc8       TA_CDLSHOOTINGSTAR_OptInputs 000000018008ecc8     ta_libc_csr:table_c.obj
 0003:00005cd0       TA_CDL3STARSINSOUTH_OptInputs 000000018008ecd0     ta_libc_csr:table_c.obj
 0003:00005cd8       TA_CDLSHORTLINE_OptInputs  000000018008ecd8     ta_libc_csr:table_c.obj
 0003:00005ce0       TA_CDL3WHITESOLDIERS_OptInputs 000000018008ece0     ta_libc_csr:table_c.obj
 0003:00005ce8       TA_CDLSPINNINGTOP_OptInputs 000000018008ece8     ta_libc_csr:table_c.obj
 0003:00005cf0       TA_CDLSTALLEDPATTERN_OptInputs 000000018008ecf0     ta_libc_csr:table_c.obj
 0003:00005cf8       TA_CDLADVANCEBLOCK_OptInputs 000000018008ecf8     ta_libc_csr:table_c.obj
 0003:00005d00       TA_CDLSTICKSANDWICH_OptInputs 000000018008ed00     ta_libc_csr:table_c.obj
 0003:00005d08       TA_CDLBELTHOLD_OptInputs   000000018008ed08     ta_libc_csr:table_c.obj
 0003:00005d10       TA_CDLTAKURI_OptInputs     000000018008ed10     ta_libc_csr:table_c.obj
 0003:00005d18       TA_CDLBREAKAWAY_OptInputs  000000018008ed18     ta_libc_csr:table_c.obj
 0003:00005d20       TA_CDLTASUKIGAP_OptInputs  000000018008ed20     ta_libc_csr:table_c.obj
 0003:00005d28       TA_CDLCLOSINGMARUBOZU_OptInputs 000000018008ed28     ta_libc_csr:table_c.obj
 0003:00005d30       TA_CDLTHRUSTING_OptInputs  000000018008ed30     ta_libc_csr:table_c.obj
 0003:00005d38       TA_CDLCONCEALBABYSWALL_OptInputs 000000018008ed38     ta_libc_csr:table_c.obj
 0003:00005d40       TA_CDLTRISTAR_OptInputs    000000018008ed40     ta_libc_csr:table_c.obj
 0003:00005d48       TA_CDLCOUNTERATTACK_OptInputs 000000018008ed48     ta_libc_csr:table_c.obj
 0003:00005d50       TA_CDLUNIQUE3RIVER_OptInputs 000000018008ed50     ta_libc_csr:table_c.obj
 0003:00005d58       TA_CDLUPSIDEGAP2CROWS_OptInputs 000000018008ed58     ta_libc_csr:table_c.obj
 0003:00005d60       TA_CDLDOJI_OptInputs       000000018008ed60     ta_libc_csr:table_c.obj
 0003:00005d68       TA_CDLXSIDEGAP3METHODS_OptInputs 000000018008ed68     ta_libc_csr:table_c.obj
 0003:00005d70       TA_CDLDOJISTAR_OptInputs   000000018008ed70     ta_libc_csr:table_c.obj
 0003:00005d78       TA_CEIL_OptInputs          000000018008ed78     ta_libc_csr:table_c.obj
 0003:00005d80       TA_CDLDRAGONFLYDOJI_OptInputs 000000018008ed80     ta_libc_csr:table_c.obj
 0003:00005d88       TA_CDLENGULFING_OptInputs  000000018008ed88     ta_libc_csr:table_c.obj
 0003:00005d90       TA_COS_OptInputs           000000018008ed90     ta_libc_csr:table_c.obj
 0003:00005d98       TA_COSH_OptInputs          000000018008ed98     ta_libc_csr:table_c.obj
 0003:00005da0       TA_CDLGAPSIDESIDEWHITE_OptInputs 000000018008eda0     ta_libc_csr:table_c.obj
 0003:00005da8       TA_CDLGRAVESTONEDOJI_OptInputs 000000018008eda8     ta_libc_csr:table_c.obj
 0003:00005db0       TA_CDLHAMMER_OptInputs     000000018008edb0     ta_libc_csr:table_c.obj
 0003:00005db8       TA_CDLHANGINGMAN_OptInputs 000000018008edb8     ta_libc_csr:table_c.obj
 0003:00005dc0       TA_CDLHARAMI_OptInputs     000000018008edc0     ta_libc_csr:table_c.obj
 0003:00005dc8       TA_CDLHARAMICROSS_OptInputs 000000018008edc8     ta_libc_csr:table_c.obj
 0003:00005dd0       TA_CDLHIGHWAVE_OptInputs   000000018008edd0     ta_libc_csr:table_c.obj
 0003:00005dd8       TA_CDLHIKKAKE_OptInputs    000000018008edd8     ta_libc_csr:table_c.obj
 0003:00005de0       TA_CDLHIKKAKEMOD_OptInputs 000000018008ede0     ta_libc_csr:table_c.obj
 0003:00005de8       TA_CDLHOMINGPIGEON_OptInputs 000000018008ede8     ta_libc_csr:table_c.obj
 0003:00005df0       TA_CDLIDENTICAL3CROWS_OptInputs 000000018008edf0     ta_libc_csr:table_c.obj
 0003:00005df8       TA_CDLINNECK_OptInputs     000000018008edf8     ta_libc_csr:table_c.obj
 0003:00005e00       TA_CDLINVERTEDHAMMER_OptInputs 000000018008ee00     ta_libc_csr:table_c.obj
 0003:00005e08       TA_CDLKICKING_OptInputs    000000018008ee08     ta_libc_csr:table_c.obj
 0003:00005e10       TA_CDLKICKINGBYLENGTH_OptInputs 000000018008ee10     ta_libc_csr:table_c.obj
 0003:00005e18       TA_CDLLADDERBOTTOM_OptInputs 000000018008ee18     ta_libc_csr:table_c.obj
 0003:00005e20       TA_CDLLONGLEGGEDDOJI_OptInputs 000000018008ee20     ta_libc_csr:table_c.obj
 0003:00005e28       TA_CDLLONGLINE_OptInputs   000000018008ee28     ta_libc_csr:table_c.obj
 0003:00005e30       TA_CDLMARUBOZU_OptInputs   000000018008ee30     ta_libc_csr:table_c.obj
 0003:00005e38       TA_CDLMATCHINGLOW_OptInputs 000000018008ee38     ta_libc_csr:table_c.obj
 0003:00005e40       TA_CDLONNECK_OptInputs     000000018008ee40     ta_libc_csr:table_c.obj
 0003:00005e48       TA_CDL2CROWS_OptInputs     000000018008ee48     ta_libc_csr:table_c.obj
 0003:00005e50       TA_CDLPIERCING_OptInputs   000000018008ee50     ta_libc_csr:table_c.obj
 0003:00005e58       TA_DIV_OptInputs           000000018008ee58     ta_libc_csr:table_d.obj
 0003:00005e60       TA_EXP_OptInputs           000000018008ee60     ta_libc_csr:table_e.obj
 0003:00005e68       TA_FLOOR_OptInputs         000000018008ee68     ta_libc_csr:table_f.obj
 0003:00005e78       TA_HT_PHASOR_OptInputs     000000018008ee78     ta_libc_csr:table_h.obj
 0003:00005e80       TA_HT_SINE_OptInputs       000000018008ee80     ta_libc_csr:table_h.obj
 0003:00005e88       TA_HT_TRENDLINE_OptInputs  000000018008ee88     ta_libc_csr:table_h.obj
 0003:00005e90       TA_HT_TRENDMODE_OptInputs  000000018008ee90     ta_libc_csr:table_h.obj
 0003:00005e98       TA_HT_DCPERIOD_OptInputs   000000018008ee98     ta_libc_csr:table_h.obj
 0003:00005ea0       TA_HT_DCPHASE_OptInputs    000000018008eea0     ta_libc_csr:table_h.obj
 0003:00005eb0       TA_LN_OptInputs            000000018008eeb0     ta_libc_csr:table_l.obj
 0003:00005eb8       TA_LOG10_OptInputs         000000018008eeb8     ta_libc_csr:table_l.obj
 0003:00005ec0       TA_MEDPRICE_OptInputs      000000018008eec0     ta_libc_csr:table_m.obj
 0003:00005ec8       TA_MULT_OptInputs          000000018008eec8     ta_libc_csr:table_m.obj
 0003:00005ed0       TA_OBV_OptInputs           000000018008eed0     ta_libc_csr:table_o.obj
 0003:00005ee0       TA_SIN_OptInputs           000000018008eee0     ta_libc_csr:table_s.obj
 0003:00005ee8       TA_SINH_OptInputs          000000018008eee8     ta_libc_csr:table_s.obj
 0003:00005ef0       TA_SQRT_OptInputs          000000018008eef0     ta_libc_csr:table_s.obj
 0003:00005ef8       TA_SUB_OptInputs           000000018008eef8     ta_libc_csr:table_s.obj
 0003:00005f00       TA_TANH_OptInputs          000000018008ef00     ta_libc_csr:table_t.obj
 0003:00005f08       TA_TRANGE_OptInputs        000000018008ef08     ta_libc_csr:table_t.obj
 0003:00005f10       TA_TYPPRICE_OptInputs      000000018008ef10     ta_libc_csr:table_t.obj
 0003:00005f18       TA_TAN_OptInputs           000000018008ef18     ta_libc_csr:table_t.obj
 0003:00005f20       TA_WCLPRICE_OptInputs      000000018008ef20     ta_libc_csr:table_w.obj
 0003:00005f40       ?__proc_attached@@3HA      000000018008ef40     LIBCMT:dll_dllmain.obj
 0003:00005f50       GS_ExceptionRecord         000000018008ef50     LIBCMT:gs_report.obj
 0003:00005ff0       GS_ContextRecord           000000018008eff0     LIBCMT:gs_report.obj
 0003:000064f0       ?is_initialized_as_dll@@3_NA 000000018008f4f0     LIBCMT:utility.obj
 0003:000064f1       ?module_local_atexit_table_initialized@@3_NA 000000018008f4f1     LIBCMT:utility.obj
 0003:000064f8       ?module_local_atexit_table@@3U_onexit_table_t@@A 000000018008f4f8     LIBCMT:utility.obj
 0003:00006510       ?module_local_at_quick_exit_table@@3U_onexit_table_t@@A 000000018008f510     LIBCMT:utility.obj
 0003:00006580       ?heap@@3V_HeapManager@@A   000000018008f580     libvcruntime:undname.obj
 0003:000065b0       ?__vcrt_startup_thread_ptd@@3U__vcrt_ptd@@A 000000018008f5b0     libvcruntime:per_thread_data.obj
 0003:00006640       __vcrt_lock_table          000000018008f640     libvcruntime:locks.obj
 0003:00006668       __vcrt_locks_initialized   000000018008f668     libvcruntime:locks.obj
 0003:00006670       ?module_handles@@3PAPEAUHINSTANCE__@@A 000000018008f670     libvcruntime:winapi_downlevel.obj
 0003:00006688       ?encoded_function_pointers@@3PAPEAXA 000000018008f688     libvcruntime:winapi_downlevel.obj
 0003:000066b0       ?__acrt_invalid_parameter_handler@@3V?$dual_state_global@P6AXPEB_W00I_K@Z@__crt_state_management@@A 000000018008f6b0     libucrt:invalid_parameter.obj
 0003:000066b8       ?__acrt_new_handler@@3V?$dual_state_global@P6AH_K@Z@__crt_state_management@@A 000000018008f6b8     libucrt:new_handler.obj
 0003:000066c0       ?c_termination_complete@@3JA 000000018008f6c0     libucrt:exit.obj
 0003:000066c8       ?thread_local_exit_callback_func@@3P6AXPEAXK0@ZEA 000000018008f6c8     libucrt:exit.obj
 0003:000066e0       ?program_name@?1???$common_configure_argv@D@@YAHW4_crt_argv_mode@@@Z@4PADA 000000018008f6e0     libucrt:argv_parsing.obj
 0003:00006838       ?__acrt_app_type@@3W4_crt_app_type@@A 000000018008f838     libucrt:report_runtime_error.obj
 0003:0000683c       __acrt_error_mode          000000018008f83c     libucrt:set_error_mode.obj
 0003:00006858       ?ctrlc_action@@3V?$dual_state_global@P6AXH@Z@__crt_state_management@@A 000000018008f858     libucrt:signal.obj
 0003:00006860       ?ctrlbreak_action@@3V?$dual_state_global@P6AXH@Z@__crt_state_management@@A 000000018008f860     libucrt:signal.obj
 0003:00006868       ?abort_action@@3V?$dual_state_global@P6AXH@Z@__crt_state_management@@A 000000018008f868     libucrt:signal.obj
 0003:00006870       ?term_action@@3V?$dual_state_global@P6AXH@Z@__crt_state_management@@A 000000018008f870     libucrt:signal.obj
 0003:00006890       ?__acrt_lock_table@@3PAU_RTL_CRITICAL_SECTION@@A 000000018008f890     libucrt:locks.obj
 0003:00006ac0       ?__acrt_locks_initialized@@3IA 000000018008fac0     libucrt:locks.obj
 0003:00006ac4       ?state_cache@?1???$get_cached_win_policy@Udeveloper_information_policy_properties@?1??__acrt_get_developer_information_policy@@YA?AW4developer_information_policy@@XZ@@@YA?AW4developer_information_policy@@W4AppPolicyShowDeveloperDiagnostic@@@Z@4JA 000000018008fac4     libucrt:win_policies.obj
 0003:00006ac8       ?state_cache@?1???$get_cached_win_policy@Uwindowing_model_policy_properties@?1??__acrt_get_windowing_model_policy@@YA?AW4windowing_model_policy@@XZ@@@YA?AW4windowing_model_policy@@W4AppPolicyWindowingModel@@@Z@4JA 000000018008fac8     libucrt:win_policies.obj
 0003:00006ae8       ?fSystemSet@@3HA           000000018008fae8     libucrt:mbctype.obj
 0003:00006aec       ?initialized@?1??__acrt_initialize_multibyte@@9@4_NA 000000018008faec     libucrt:mbctype.obj
 0003:00006b20       ?module_handles@@3PAPEAUHINSTANCE__@@A 000000018008fb20     libucrt:winapi_thunks.obj
 0003:00006bc0       ?encoded_function_pointers@@3PAPEAXA 000000018008fbc0     libucrt:winapi_thunks.obj
 0003:000070e8       ?user_matherr@@3V?$dual_state_global@P6AHPEAU_exception@@@Z@__crt_state_management@@A 00000001800900e8     libucrt:matherr.obj
 0003:00007100       ?internal_state@?1??_mbtowc_l@@9@4U_Mbstatet@@A 0000000180090100     libucrt:mbtowc.obj
 0003:00007108       ?enable_percent_n@@3_KA    0000000180090108     libucrt:printf_count_output.obj
 0003:00007110       ?__acrt_global_new_mode@@3V?$dual_state_global@J@__crt_state_management@@A 0000000180090110     libucrt:new_mode.obj
 0003:00007120       ?internal_pst@?1??__mbrtoc32_utf8@__crt_mbstring@@YA_KPEA_UPEBD_KPEAU_Mbstatet@@@Z@4U3@A 0000000180090120     libucrt:mbrtoc32.obj
 0004:00000000       $pdata$?FunctionCallbackWrapper@imp@Nan@@YAXAEBV?$FunctionCallbackInfo@VValue@v8@@@v8@@@Z 0000000180091000     talib.obj
 0004:0000000c       $pdata$?GetterCallbackWrapper@imp@Nan@@YAXV?$Local@VName@v8@@@v8@@AEBV?$PropertyCallbackInfo@VValue@v8@@@4@@Z 000000018009100c     talib.obj
 0004:00000018       $pdata$?Get@Nan@@YA?AV?$MaybeLocal@VValue@v8@@@v8@@V?$Local@VObject@v8@@@3@V?$Local@VValue@v8@@@3@@Z 0000000180091018     talib.obj
 0004:00000024       $pdata$?HasOwnProperty@Nan@@YA?AV?$Maybe@_N@1@V?$Local@VObject@v8@@@v8@@V?$Local@VString@v8@@@4@@Z 0000000180091024     talib.obj
 0004:00000030       $pdata$??0AsyncResource@Nan@@QEAA@PEBDV?$Local@VObject@v8@@@v8@@@Z 0000000180091030     talib.obj
 0004:0000003c       $pdata$?ThrowTypeError@Nan@@YAXPEBD@Z 000000018009103c     talib.obj
 0004:00000048       $pdata$??0Utf8String@Nan@@QEAA@V?$Local@VValue@v8@@@v8@@@Z 0000000180091048     talib.obj
 0004:00000054       $pdata$1$??0Utf8String@Nan@@QEAA@V?$Local@VValue@v8@@@v8@@@Z 0000000180091054     talib.obj
 0004:00000060       $pdata$2$??0Utf8String@Nan@@QEAA@V?$Local@VValue@v8@@@v8@@@Z 0000000180091060     talib.obj
 0004:0000006c       $pdata$?Call@Callback@Nan@@QEBA?AV?$Local@VValue@v8@@@v8@@HQEAV34@@Z 000000018009106c     talib.obj
 0004:00000078       $pdata$?Call_@Callback@Nan@@AEBA?AV?$MaybeLocal@VValue@v8@@@v8@@PEAVIsolate@4@V?$Local@VObject@v8@@@4@HQEAV?$Local@VValue@v8@@@4@PEAVAsyncResource@2@@Z 0000000180091078     talib.obj
 0004:00000084       $pdata$??1AsyncWorker@Nan@@UEAA@XZ 0000000180091084     talib.obj
 0004:00000090       $pdata$?WorkComplete@AsyncWorker@Nan@@UEAAXXZ 0000000180091090     talib.obj
 0004:0000009c       $pdata$?HandleOKCallback@AsyncWorker@Nan@@MEAAXXZ 000000018009109c     talib.obj
 0004:000000a8       $pdata$?HandleErrorCallback@AsyncWorker@Nan@@MEAAXXZ 00000001800910a8     talib.obj
 0004:000000b4       $pdata$??_GAsyncWorker@Nan@@UEAAPEAXI@Z 00000001800910b4     talib.obj
 0004:000000c0       $pdata$?AsyncExecuteComplete@Nan@@YAXPEAUuv_work_s@@@Z 00000001800910c0     talib.obj
 0004:000000cc       $pdata$?SetAccessor@Nan@@YA_NV?$Local@VObject@v8@@@v8@@V?$Local@VString@v8@@@3@P6AX1AEBV?$PropertyCallbackInfo@VValue@v8@@@1@@ZP6AX1V?$Local@VValue@v8@@@3@AEBV?$PropertyCallbackInfo@X@1@@Z4W4AccessControl@3@W4PropertyAttribute@3@@Z 00000001800910cc     talib.obj
 0004:000000d8       $pdata$?REPORT_TA_ERROR@@YAXPEAVCallback@Nan@@W4TA_RetCode@@@Z 00000001800910d8     talib.obj
 0004:000000e4       $pdata$?REPORT_INTERNAL_ERROR@@YAXPEAVCallback@Nan@@PEBD@Z 00000001800910e4     talib.obj
 0004:000000f0       $pdata$?V8_TO_DOUBLE_ARRAY@@YAPEANV?$Local@VArray@v8@@@v8@@@Z 00000001800910f0     talib.obj
 0004:000000fc       $pdata$1$?V8_TO_DOUBLE_ARRAY@@YAPEANV?$Local@VArray@v8@@@v8@@@Z 00000001800910fc     talib.obj
 0004:00000108       $pdata$2$?V8_TO_DOUBLE_ARRAY@@YAPEANV?$Local@VArray@v8@@@v8@@@Z 0000000180091108     talib.obj
 0004:00000114       $pdata$?generateResult@@YA?AV?$Local@VObject@v8@@@v8@@PEAUwork_object@@@Z 0000000180091114     talib.obj
 0004:00000120       $pdata$?TA_EXPLAIN_FUNCTION@@YA?AV?$Local@VValue@v8@@@v8@@PEBD@Z 0000000180091120     talib.obj
 0004:0000012c       $pdata$2$?TA_EXPLAIN_FUNCTION@@YA?AV?$Local@VValue@v8@@@v8@@PEBD@Z 000000018009112c     talib.obj
 0004:00000138       $pdata$3$?TA_EXPLAIN_FUNCTION@@YA?AV?$Local@VValue@v8@@@v8@@PEBD@Z 0000000180091138     talib.obj
 0004:00000144       $pdata$4$?TA_EXPLAIN_FUNCTION@@YA?AV?$Local@VValue@v8@@@v8@@PEBD@Z 0000000180091144     talib.obj
 0004:00000150       $pdata$5$?TA_EXPLAIN_FUNCTION@@YA?AV?$Local@VValue@v8@@@v8@@PEBD@Z 0000000180091150     talib.obj
 0004:0000015c       $pdata$6$?TA_EXPLAIN_FUNCTION@@YA?AV?$Local@VValue@v8@@@v8@@PEBD@Z 000000018009115c     talib.obj
 0004:00000168       $pdata$7$?TA_EXPLAIN_FUNCTION@@YA?AV?$Local@VValue@v8@@@v8@@PEBD@Z 0000000180091168     talib.obj
 0004:00000174       $pdata$?Functions@@YAXV?$Local@VString@v8@@@v8@@AEBV?$PropertyCallbackInfo@VValue@v8@@@Nan@@@Z 0000000180091174     talib.obj
 0004:00000180       $pdata$1$?Functions@@YAXV?$Local@VString@v8@@@v8@@AEBV?$PropertyCallbackInfo@VValue@v8@@@Nan@@@Z 0000000180091180     talib.obj
 0004:0000018c       $pdata$2$?Functions@@YAXV?$Local@VString@v8@@@v8@@AEBV?$PropertyCallbackInfo@VValue@v8@@@Nan@@@Z 000000018009118c     talib.obj
 0004:00000198       $pdata$6$?Functions@@YAXV?$Local@VString@v8@@@v8@@AEBV?$PropertyCallbackInfo@VValue@v8@@@Nan@@@Z 0000000180091198     talib.obj
 0004:000001a4       $pdata$7$?Functions@@YAXV?$Local@VString@v8@@@v8@@AEBV?$PropertyCallbackInfo@VValue@v8@@@Nan@@@Z 00000001800911a4     talib.obj
 0004:000001b0       $pdata$8$?Functions@@YAXV?$Local@VString@v8@@@v8@@AEBV?$PropertyCallbackInfo@VValue@v8@@@Nan@@@Z 00000001800911b0     talib.obj
 0004:000001bc       $pdata$9$?Functions@@YAXV?$Local@VString@v8@@@v8@@AEBV?$PropertyCallbackInfo@VValue@v8@@@Nan@@@Z 00000001800911bc     talib.obj
 0004:000001c8       $pdata$?Explain@@YAXAEBV?$FunctionCallbackInfo@VValue@v8@@@Nan@@@Z 00000001800911c8     talib.obj
 0004:000001d4       $pdata$?FunctionUnstIds@@YAXV?$Local@VString@v8@@@v8@@AEBV?$PropertyCallbackInfo@VValue@v8@@@Nan@@@Z 00000001800911d4     talib.obj
 0004:000001e0       $pdata$?SetUnstablePeriod@@YAXAEBV?$FunctionCallbackInfo@VValue@v8@@@Nan@@@Z 00000001800911e0     talib.obj
 0004:000001ec       $pdata$1$?SetUnstablePeriod@@YAXAEBV?$FunctionCallbackInfo@VValue@v8@@@Nan@@@Z 00000001800911ec     talib.obj
 0004:000001f8       $pdata$2$?SetUnstablePeriod@@YAXAEBV?$FunctionCallbackInfo@VValue@v8@@@Nan@@@Z 00000001800911f8     talib.obj
 0004:00000204       $pdata$?Execute@ExecuteWorker@@UEAAXXZ 0000000180091204     talib.obj
 0004:00000210       $pdata$?HandleOKCallback@ExecuteWorker@@UEAAXXZ 0000000180091210     talib.obj
 0004:0000021c       $pdata$??_GExecuteWorker@@UEAAPEAXI@Z 000000018009121c     talib.obj
 0004:00000228       $pdata$0$??_GExecuteWorker@@UEAAPEAXI@Z 0000000180091228     talib.obj
 0004:00000234       $pdata$3$??_GExecuteWorker@@UEAAPEAXI@Z 0000000180091234     talib.obj
 0004:00000240       $pdata$4$??_GExecuteWorker@@UEAAPEAXI@Z 0000000180091240     talib.obj
 0004:0000024c       $pdata$5$??_GExecuteWorker@@UEAAPEAXI@Z 000000018009124c     talib.obj
 0004:00000258       $pdata$?Execute@@YAXAEBV?$FunctionCallbackInfo@VValue@v8@@@Nan@@@Z 0000000180091258     talib.obj
 0004:00000264       $pdata$1$?Execute@@YAXAEBV?$FunctionCallbackInfo@VValue@v8@@@Nan@@@Z 0000000180091264     talib.obj
 0004:00000270       $pdata$2$?Execute@@YAXAEBV?$FunctionCallbackInfo@VValue@v8@@@Nan@@@Z 0000000180091270     talib.obj
 0004:0000027c       $pdata$3$?Execute@@YAXAEBV?$FunctionCallbackInfo@VValue@v8@@@Nan@@@Z 000000018009127c     talib.obj
 0004:00000288       $pdata$4$?Execute@@YAXAEBV?$FunctionCallbackInfo@VValue@v8@@@Nan@@@Z 0000000180091288     talib.obj
 0004:00000294       $pdata$5$?Execute@@YAXAEBV?$FunctionCallbackInfo@VValue@v8@@@Nan@@@Z 0000000180091294     talib.obj
 0004:000002a0       $pdata$?Init@@YAXV?$Local@VObject@v8@@@v8@@V?$Local@VContext@v8@@@2@@Z 00000001800912a0     talib.obj
 0004:000002ac       $pdata$??0?$basic_string@DU?$char_traits@D@std@@V?$allocator@D@2@@std@@QEAA@QEBD@Z 00000001800912ac     talib.obj
 0004:000002b8       $pdata$??$New@VFunctionTemplate@v8@@@Nan@@YA?AV?$Local@VFunctionTemplate@v8@@@v8@@P6AXAEBV?$FunctionCallbackInfo@VValue@v8@@@0@@ZV?$Local@VValue@v8@@@2@@Z 00000001800912b8     talib.obj
 0004:000002c4       $pdata$0$??$New@VFunctionTemplate@v8@@@Nan@@YA?AV?$Local@VFunctionTemplate@v8@@@v8@@P6AXAEBV?$FunctionCallbackInfo@VValue@v8@@@0@@ZV?$Local@VValue@v8@@@2@@Z 00000001800912c4     talib.obj
 0004:000002d0       $pdata$1$??$New@VFunctionTemplate@v8@@@Nan@@YA?AV?$Local@VFunctionTemplate@v8@@@v8@@P6AXAEBV?$FunctionCallbackInfo@VValue@v8@@@0@@ZV?$Local@VValue@v8@@@2@@Z 00000001800912d0     talib.obj
 0004:000002dc       $pdata$2$??$New@VFunctionTemplate@v8@@@Nan@@YA?AV?$Local@VFunctionTemplate@v8@@@v8@@P6AXAEBV?$FunctionCallbackInfo@VValue@v8@@@0@@ZV?$Local@VValue@v8@@@2@@Z 00000001800912dc     talib.obj
 0004:000002e8       $pdata$3$??$New@VFunctionTemplate@v8@@@Nan@@YA?AV?$Local@VFunctionTemplate@v8@@@v8@@P6AXAEBV?$FunctionCallbackInfo@VValue@v8@@@0@@ZV?$Local@VValue@v8@@@2@@Z 00000001800912e8     talib.obj
 0004:000002f4       $pdata$??$?HDU?$char_traits@D@std@@V?$allocator@D@1@@std@@YA?AV?$basic_string@DU?$char_traits@D@std@@V?$allocator@D@2@@0@$$QEAV10@0@Z 00000001800912f4     talib.obj
 0004:00000300       $pdata$1$??$?HDU?$char_traits@D@std@@V?$allocator@D@1@@std@@YA?AV?$basic_string@DU?$char_traits@D@std@@V?$allocator@D@2@@0@$$QEAV10@0@Z 0000000180091300     talib.obj
 0004:0000030c       $pdata$2$??$?HDU?$char_traits@D@std@@V?$allocator@D@1@@std@@YA?AV?$basic_string@DU?$char_traits@D@std@@V?$allocator@D@2@@0@$$QEAV10@0@Z 000000018009130c     talib.obj
 0004:00000318       $pdata$??$_Reallocate_grow_by@V<lambda_65e615be2a453ca0576c979606f46740>@@PEBD_K@?$basic_string@DU?$char_traits@D@std@@V?$allocator@D@2@@std@@QEAAAEAV01@_KV<lambda_65e615be2a453ca0576c979606f46740>@@PEBD_K@Z 0000000180091318     talib.obj
 0004:00000324       $pdata$3$??$_Reallocate_grow_by@V<lambda_65e615be2a453ca0576c979606f46740>@@PEBD_K@?$basic_string@DU?$char_traits@D@std@@V?$allocator@D@2@@std@@QEAAAEAV01@_KV<lambda_65e615be2a453ca0576c979606f46740>@@PEBD_K@Z 0000000180091324     talib.obj
 0004:00000330       $pdata$4$??$_Reallocate_grow_by@V<lambda_65e615be2a453ca0576c979606f46740>@@PEBD_K@?$basic_string@DU?$char_traits@D@std@@V?$allocator@D@2@@std@@QEAAAEAV01@_KV<lambda_65e615be2a453ca0576c979606f46740>@@PEBD_K@Z 0000000180091330     talib.obj
 0004:0000033c       $pdata$5$??$_Reallocate_grow_by@V<lambda_65e615be2a453ca0576c979606f46740>@@PEBD_K@?$basic_string@DU?$char_traits@D@std@@V?$allocator@D@2@@std@@QEAAAEAV01@_KV<lambda_65e615be2a453ca0576c979606f46740>@@PEBD_K@Z 000000018009133c     talib.obj
 0004:00000348       $pdata$?_Xlen@?$basic_string@DU?$char_traits@D@std@@V?$allocator@D@2@@std@@SAXXZ 0000000180091348     talib.obj
 0004:00000354       $pdata$??$_Reallocate_grow_by@V<lambda_f3a66ab6a0570788f31503db83886f49>@@_KPEBD_K@?$basic_string@DU?$char_traits@D@std@@V?$allocator@D@2@@std@@QEAAAEAV01@_KV<lambda_f3a66ab6a0570788f31503db83886f49>@@_KPEBD2@Z 0000000180091354     talib.obj
 0004:00000360       $pdata$2$??$_Reallocate_grow_by@V<lambda_f3a66ab6a0570788f31503db83886f49>@@_KPEBD_K@?$basic_string@DU?$char_traits@D@std@@V?$allocator@D@2@@std@@QEAAAEAV01@_KV<lambda_f3a66ab6a0570788f31503db83886f49>@@_KPEBD2@Z 0000000180091360     talib.obj
 0004:0000036c       $pdata$3$??$_Reallocate_grow_by@V<lambda_f3a66ab6a0570788f31503db83886f49>@@_KPEBD_K@?$basic_string@DU?$char_traits@D@std@@V?$allocator@D@2@@std@@QEAAAEAV01@_KV<lambda_f3a66ab6a0570788f31503db83886f49>@@_KPEBD2@Z 000000018009136c     talib.obj
 0004:00000378       $pdata$4$??$_Reallocate_grow_by@V<lambda_f3a66ab6a0570788f31503db83886f49>@@_KPEBD_K@?$basic_string@DU?$char_traits@D@std@@V?$allocator@D@2@@std@@QEAAAEAV01@_KV<lambda_f3a66ab6a0570788f31503db83886f49>@@_KPEBD2@Z 0000000180091378     talib.obj
 0004:00000384       $pdata$?load_exe_hook@@YAP6A_JXZIPEAUDelayLoadInfo@@@Z 0000000180091384     win_delay_load_hook.obj
 0004:0000039c       $pdata$TA_FuncTableAlloc   000000018009139c     ta_libc_csr:ta_abstract.obj
 0004:000003a8       $pdata$0$TA_FuncTableAlloc 00000001800913a8     ta_libc_csr:ta_abstract.obj
 0004:000003b4       $pdata$1$TA_FuncTableAlloc 00000001800913b4     ta_libc_csr:ta_abstract.obj
 0004:000003c0       $pdata$2$TA_FuncTableAlloc 00000001800913c0     ta_libc_csr:ta_abstract.obj
 0004:000003cc       $pdata$3$TA_FuncTableAlloc 00000001800913cc     ta_libc_csr:ta_abstract.obj
 0004:000003d8       $pdata$4$TA_FuncTableAlloc 00000001800913d8     ta_libc_csr:ta_abstract.obj
 0004:000003e4       $pdata$6$TA_FuncTableAlloc 00000001800913e4     ta_libc_csr:ta_abstract.obj
 0004:000003f0       $pdata$7$TA_FuncTableAlloc 00000001800913f0     ta_libc_csr:ta_abstract.obj
 0004:000003fc       $pdata$TA_FuncTableFree    00000001800913fc     ta_libc_csr:ta_abstract.obj
 0004:00000408       $pdata$TA_GetFuncHandle    0000000180091408     ta_libc_csr:ta_abstract.obj
 0004:00000414       $pdata$0$TA_GetFuncHandle  0000000180091414     ta_libc_csr:ta_abstract.obj
 0004:00000420       $pdata$2$TA_GetFuncHandle  0000000180091420     ta_libc_csr:ta_abstract.obj
 0004:0000042c       $pdata$4$TA_GetFuncHandle  000000018009142c     ta_libc_csr:ta_abstract.obj
 0004:00000438       $pdata$6$TA_GetFuncHandle  0000000180091438     ta_libc_csr:ta_abstract.obj
 0004:00000444       $pdata$7$TA_GetFuncHandle  0000000180091444     ta_libc_csr:ta_abstract.obj
 0004:00000450       $pdata$TA_GroupTableAlloc  0000000180091450     ta_libc_csr:ta_abstract.obj
 0004:0000045c       $pdata$TA_GroupTableFree   000000018009145c     ta_libc_csr:ta_abstract.obj
 0004:00000468       $pdata$TA_ParamHolderAlloc 0000000180091468     ta_libc_csr:ta_abstract.obj
 0004:00000474       $pdata$0$TA_ParamHolderAlloc 0000000180091474     ta_libc_csr:ta_abstract.obj
 0004:00000480       $pdata$3$TA_ParamHolderAlloc 0000000180091480     ta_libc_csr:ta_abstract.obj
 0004:0000048c       $pdata$6$TA_ParamHolderAlloc 000000018009148c     ta_libc_csr:ta_abstract.obj
 0004:00000498       $pdata$7$TA_ParamHolderAlloc 0000000180091498     ta_libc_csr:ta_abstract.obj
 0004:000004a4       $pdata$8$TA_ParamHolderAlloc 00000001800914a4     ta_libc_csr:ta_abstract.obj
 0004:000004b0       $pdata$9$TA_ParamHolderAlloc 00000001800914b0     ta_libc_csr:ta_abstract.obj
 0004:000004bc       $pdata$10$TA_ParamHolderAlloc 00000001800914bc     ta_libc_csr:ta_abstract.obj
 0004:000004c8       $pdata$11$TA_ParamHolderAlloc 00000001800914c8     ta_libc_csr:ta_abstract.obj
 0004:000004d4       $pdata$12$TA_ParamHolderAlloc 00000001800914d4     ta_libc_csr:ta_abstract.obj
 0004:000004e0       $pdata$14$TA_ParamHolderAlloc 00000001800914e0     ta_libc_csr:ta_abstract.obj
 0004:000004ec       $pdata$15$TA_ParamHolderAlloc 00000001800914ec     ta_libc_csr:ta_abstract.obj
 0004:000004f8       $pdata$TA_ParamHolderFree  00000001800914f8     ta_libc_csr:ta_abstract.obj
 0004:00000504       $pdata$0$TA_ParamHolderFree 0000000180091504     ta_libc_csr:ta_abstract.obj
 0004:00000510       $pdata$2$TA_ParamHolderFree 0000000180091510     ta_libc_csr:ta_abstract.obj
 0004:0000051c       $pdata$TA_SetInputParamPricePtr 000000018009151c     ta_libc_csr:ta_abstract.obj
 0004:00000528       $pdata$getGroupId          0000000180091528     ta_libc_csr:ta_abstract.obj
 0004:00000534       $pdata$TA_Initialize       0000000180091534     ta_libc_csr:ta_global.obj
 0004:00000540       $pdata$TA_RestoreCandleDefaultSettings 0000000180091540     ta_libc_csr:ta_global.obj
 0004:0000054c       $pdata$TA_ACCBANDS_FramePP 000000018009154c     ta_libc_csr:ta_frame.obj
 0004:00000558       $pdata$TA_ACOS_FramePP     0000000180091558     ta_libc_csr:ta_frame.obj
 0004:00000564       $pdata$TA_ADD_FramePP      0000000180091564     ta_libc_csr:ta_frame.obj
 0004:00000570       $pdata$TA_ADOSC_FramePP    0000000180091570     ta_libc_csr:ta_frame.obj
 0004:0000057c       $pdata$TA_ADXR_FramePP     000000018009157c     ta_libc_csr:ta_frame.obj
 0004:00000588       $pdata$TA_ADX_FramePP      0000000180091588     ta_libc_csr:ta_frame.obj
 0004:00000594       $pdata$TA_AD_FramePP       0000000180091594     ta_libc_csr:ta_frame.obj
 0004:000005a0       $pdata$TA_APO_FramePP      00000001800915a0     ta_libc_csr:ta_frame.obj
 0004:000005ac       $pdata$TA_AROONOSC_FramePP 00000001800915ac     ta_libc_csr:ta_frame.obj
 0004:000005b8       $pdata$TA_AROON_FramePP    00000001800915b8     ta_libc_csr:ta_frame.obj
 0004:000005c4       $pdata$TA_ASIN_FramePP     00000001800915c4     ta_libc_csr:ta_frame.obj
 0004:000005d0       $pdata$TA_ATAN_FramePP     00000001800915d0     ta_libc_csr:ta_frame.obj
 0004:000005dc       $pdata$TA_ATR_FramePP      00000001800915dc     ta_libc_csr:ta_frame.obj
 0004:000005e8       $pdata$TA_AVGDEV_FramePP   00000001800915e8     ta_libc_csr:ta_frame.obj
 0004:000005f4       $pdata$TA_AVGPRICE_FramePP 00000001800915f4     ta_libc_csr:ta_frame.obj
 0004:00000600       $pdata$TA_BBANDS_FramePP   0000000180091600     ta_libc_csr:ta_frame.obj
 0004:0000060c       $pdata$TA_BETA_FramePP     000000018009160c     ta_libc_csr:ta_frame.obj
 0004:00000618       $pdata$TA_BOP_FramePP      0000000180091618     ta_libc_csr:ta_frame.obj
 0004:00000624       $pdata$TA_CCI_FramePP      0000000180091624     ta_libc_csr:ta_frame.obj
 0004:00000630       $pdata$TA_CDL2CROWS_FramePP 0000000180091630     ta_libc_csr:ta_frame.obj
 0004:0000063c       $pdata$TA_CDL3BLACKCROWS_FramePP 000000018009163c     ta_libc_csr:ta_frame.obj
 0004:00000648       $pdata$TA_CDL3INSIDE_FramePP 0000000180091648     ta_libc_csr:ta_frame.obj
 0004:00000654       $pdata$TA_CDL3LINESTRIKE_FramePP 0000000180091654     ta_libc_csr:ta_frame.obj
 0004:00000660       $pdata$TA_CDL3OUTSIDE_FramePP 0000000180091660     ta_libc_csr:ta_frame.obj
 0004:0000066c       $pdata$TA_CDL3STARSINSOUTH_FramePP 000000018009166c     ta_libc_csr:ta_frame.obj
 0004:00000678       $pdata$TA_CDL3WHITESOLDIERS_FramePP 0000000180091678     ta_libc_csr:ta_frame.obj
 0004:00000684       $pdata$TA_CDLABANDONEDBABY_FramePP 0000000180091684     ta_libc_csr:ta_frame.obj
 0004:00000690       $pdata$TA_CDLADVANCEBLOCK_FramePP 0000000180091690     ta_libc_csr:ta_frame.obj
 0004:0000069c       $pdata$TA_CDLBELTHOLD_FramePP 000000018009169c     ta_libc_csr:ta_frame.obj
 0004:000006a8       $pdata$TA_CDLBREAKAWAY_FramePP 00000001800916a8     ta_libc_csr:ta_frame.obj
 0004:000006b4       $pdata$TA_CDLCLOSINGMARUBOZU_FramePP 00000001800916b4     ta_libc_csr:ta_frame.obj
 0004:000006c0       $pdata$TA_CDLCONCEALBABYSWALL_FramePP 00000001800916c0     ta_libc_csr:ta_frame.obj
 0004:000006cc       $pdata$TA_CDLCOUNTERATTACK_FramePP 00000001800916cc     ta_libc_csr:ta_frame.obj
 0004:000006d8       $pdata$TA_CDLDARKCLOUDCOVER_FramePP 00000001800916d8     ta_libc_csr:ta_frame.obj
 0004:000006e4       $pdata$TA_CDLDOJISTAR_FramePP 00000001800916e4     ta_libc_csr:ta_frame.obj
 0004:000006f0       $pdata$TA_CDLDOJI_FramePP  00000001800916f0     ta_libc_csr:ta_frame.obj
 0004:000006fc       $pdata$TA_CDLDRAGONFLYDOJI_FramePP 00000001800916fc     ta_libc_csr:ta_frame.obj
 0004:00000708       $pdata$TA_CDLENGULFING_FramePP 0000000180091708     ta_libc_csr:ta_frame.obj
 0004:00000714       $pdata$TA_CDLEVENINGDOJISTAR_FramePP 0000000180091714     ta_libc_csr:ta_frame.obj
 0004:00000720       $pdata$TA_CDLEVENINGSTAR_FramePP 0000000180091720     ta_libc_csr:ta_frame.obj
 0004:0000072c       $pdata$TA_CDLGAPSIDESIDEWHITE_FramePP 000000018009172c     ta_libc_csr:ta_frame.obj
 0004:00000738       $pdata$TA_CDLGRAVESTONEDOJI_FramePP 0000000180091738     ta_libc_csr:ta_frame.obj
 0004:00000744       $pdata$TA_CDLHAMMER_FramePP 0000000180091744     ta_libc_csr:ta_frame.obj
 0004:00000750       $pdata$TA_CDLHANGINGMAN_FramePP 0000000180091750     ta_libc_csr:ta_frame.obj
 0004:0000075c       $pdata$TA_CDLHARAMICROSS_FramePP 000000018009175c     ta_libc_csr:ta_frame.obj
 0004:00000768       $pdata$TA_CDLHARAMI_FramePP 0000000180091768     ta_libc_csr:ta_frame.obj
 0004:00000774       $pdata$TA_CDLHIGHWAVE_FramePP 0000000180091774     ta_libc_csr:ta_frame.obj
 0004:00000780       $pdata$TA_CDLHIKKAKEMOD_FramePP 0000000180091780     ta_libc_csr:ta_frame.obj
 0004:0000078c       $pdata$TA_CDLHIKKAKE_FramePP 000000018009178c     ta_libc_csr:ta_frame.obj
 0004:00000798       $pdata$TA_CDLHOMINGPIGEON_FramePP 0000000180091798     ta_libc_csr:ta_frame.obj
 0004:000007a4       $pdata$TA_CDLIDENTICAL3CROWS_FramePP 00000001800917a4     ta_libc_csr:ta_frame.obj
 0004:000007b0       $pdata$TA_CDLINNECK_FramePP 00000001800917b0     ta_libc_csr:ta_frame.obj
 0004:000007bc       $pdata$TA_CDLINVERTEDHAMMER_FramePP 00000001800917bc     ta_libc_csr:ta_frame.obj
 0004:000007c8       $pdata$TA_CDLKICKINGBYLENGTH_FramePP 00000001800917c8     ta_libc_csr:ta_frame.obj
 0004:000007d4       $pdata$TA_CDLKICKING_FramePP 00000001800917d4     ta_libc_csr:ta_frame.obj
 0004:000007e0       $pdata$TA_CDLLADDERBOTTOM_FramePP 00000001800917e0     ta_libc_csr:ta_frame.obj
 0004:000007ec       $pdata$TA_CDLLONGLEGGEDDOJI_FramePP 00000001800917ec     ta_libc_csr:ta_frame.obj
 0004:000007f8       $pdata$TA_CDLLONGLINE_FramePP 00000001800917f8     ta_libc_csr:ta_frame.obj
 0004:00000804       $pdata$TA_CDLMARUBOZU_FramePP 0000000180091804     ta_libc_csr:ta_frame.obj
 0004:00000810       $pdata$TA_CDLMATCHINGLOW_FramePP 0000000180091810     ta_libc_csr:ta_frame.obj
 0004:0000081c       $pdata$TA_CDLMATHOLD_FramePP 000000018009181c     ta_libc_csr:ta_frame.obj
 0004:00000828       $pdata$TA_CDLMORNINGDOJISTAR_FramePP 0000000180091828     ta_libc_csr:ta_frame.obj
 0004:00000834       $pdata$TA_CDLMORNINGSTAR_FramePP 0000000180091834     ta_libc_csr:ta_frame.obj
 0004:00000840       $pdata$TA_CDLONNECK_FramePP 0000000180091840     ta_libc_csr:ta_frame.obj
 0004:0000084c       $pdata$TA_CDLPIERCING_FramePP 000000018009184c     ta_libc_csr:ta_frame.obj
 0004:00000858       $pdata$TA_CDLRICKSHAWMAN_FramePP 0000000180091858     ta_libc_csr:ta_frame.obj
 0004:00000864       $pdata$TA_CDLRISEFALL3METHODS_FramePP 0000000180091864     ta_libc_csr:ta_frame.obj
 0004:00000870       $pdata$TA_CDLSEPARATINGLINES_FramePP 0000000180091870     ta_libc_csr:ta_frame.obj
 0004:0000087c       $pdata$TA_CDLSHOOTINGSTAR_FramePP 000000018009187c     ta_libc_csr:ta_frame.obj
 0004:00000888       $pdata$TA_CDLSHORTLINE_FramePP 0000000180091888     ta_libc_csr:ta_frame.obj
 0004:00000894       $pdata$TA_CDLSPINNINGTOP_FramePP 0000000180091894     ta_libc_csr:ta_frame.obj
 0004:000008a0       $pdata$TA_CDLSTALLEDPATTERN_FramePP 00000001800918a0     ta_libc_csr:ta_frame.obj
 0004:000008ac       $pdata$TA_CDLSTICKSANDWICH_FramePP 00000001800918ac     ta_libc_csr:ta_frame.obj
 0004:000008b8       $pdata$TA_CDLTAKURI_FramePP 00000001800918b8     ta_libc_csr:ta_frame.obj
 0004:000008c4       $pdata$TA_CDLTASUKIGAP_FramePP 00000001800918c4     ta_libc_csr:ta_frame.obj
 0004:000008d0       $pdata$TA_CDLTHRUSTING_FramePP 00000001800918d0     ta_libc_csr:ta_frame.obj
 0004:000008dc       $pdata$TA_CDLTRISTAR_FramePP 00000001800918dc     ta_libc_csr:ta_frame.obj
 0004:000008e8       $pdata$TA_CDLUNIQUE3RIVER_FramePP 00000001800918e8     ta_libc_csr:ta_frame.obj
 0004:000008f4       $pdata$TA_CDLUPSIDEGAP2CROWS_FramePP 00000001800918f4     ta_libc_csr:ta_frame.obj
 0004:00000900       $pdata$TA_CDLXSIDEGAP3METHODS_FramePP 0000000180091900     ta_libc_csr:ta_frame.obj
 0004:0000090c       $pdata$TA_CEIL_FramePP     000000018009190c     ta_libc_csr:ta_frame.obj
 0004:00000918       $pdata$TA_CMO_FramePP      0000000180091918     ta_libc_csr:ta_frame.obj
 0004:00000924       $pdata$TA_CORREL_FramePP   0000000180091924     ta_libc_csr:ta_frame.obj
 0004:00000930       $pdata$TA_COSH_FramePP     0000000180091930     ta_libc_csr:ta_frame.obj
 0004:0000093c       $pdata$TA_COS_FramePP      000000018009193c     ta_libc_csr:ta_frame.obj
 0004:00000948       $pdata$TA_DEMA_FramePP     0000000180091948     ta_libc_csr:ta_frame.obj
 0004:00000954       $pdata$TA_DIV_FramePP      0000000180091954     ta_libc_csr:ta_frame.obj
 0004:00000960       $pdata$TA_DX_FramePP       0000000180091960     ta_libc_csr:ta_frame.obj
 0004:0000096c       $pdata$TA_EMA_FramePP      000000018009196c     ta_libc_csr:ta_frame.obj
 0004:00000978       $pdata$TA_EXP_FramePP      0000000180091978     ta_libc_csr:ta_frame.obj
 0004:00000984       $pdata$TA_FLOOR_FramePP    0000000180091984     ta_libc_csr:ta_frame.obj
 0004:00000990       $pdata$TA_HT_DCPERIOD_FramePP 0000000180091990     ta_libc_csr:ta_frame.obj
 0004:0000099c       $pdata$TA_HT_DCPHASE_FramePP 000000018009199c     ta_libc_csr:ta_frame.obj
 0004:000009a8       $pdata$TA_HT_PHASOR_FramePP 00000001800919a8     ta_libc_csr:ta_frame.obj
 0004:000009b4       $pdata$TA_HT_SINE_FramePP  00000001800919b4     ta_libc_csr:ta_frame.obj
 0004:000009c0       $pdata$TA_HT_TRENDLINE_FramePP 00000001800919c0     ta_libc_csr:ta_frame.obj
 0004:000009cc       $pdata$TA_HT_TRENDMODE_FramePP 00000001800919cc     ta_libc_csr:ta_frame.obj
 0004:000009d8       $pdata$TA_IMI_FramePP      00000001800919d8     ta_libc_csr:ta_frame.obj
 0004:000009e4       $pdata$TA_KAMA_FramePP     00000001800919e4     ta_libc_csr:ta_frame.obj
 0004:000009f0       $pdata$TA_LINEARREG_ANGLE_FramePP 00000001800919f0     ta_libc_csr:ta_frame.obj
 0004:000009fc       $pdata$TA_LINEARREG_FramePP 00000001800919fc     ta_libc_csr:ta_frame.obj
 0004:00000a08       $pdata$TA_LINEARREG_INTERCEPT_FramePP 0000000180091a08     ta_libc_csr:ta_frame.obj
 0004:00000a14       $pdata$TA_LINEARREG_SLOPE_FramePP 0000000180091a14     ta_libc_csr:ta_frame.obj
 0004:00000a20       $pdata$TA_LN_FramePP       0000000180091a20     ta_libc_csr:ta_frame.obj
 0004:00000a2c       $pdata$TA_LOG10_FramePP    0000000180091a2c     ta_libc_csr:ta_frame.obj
 0004:00000a38       $pdata$TA_MACDEXT_FramePP  0000000180091a38     ta_libc_csr:ta_frame.obj
 0004:00000a44       $pdata$TA_MACDEXT_FramePPLB 0000000180091a44     ta_libc_csr:ta_frame.obj
 0004:00000a50       $pdata$TA_MACDFIX_FramePP  0000000180091a50     ta_libc_csr:ta_frame.obj
 0004:00000a5c       $pdata$TA_MACD_FramePP     0000000180091a5c     ta_libc_csr:ta_frame.obj
 0004:00000a68       $pdata$TA_MAMA_FramePP     0000000180091a68     ta_libc_csr:ta_frame.obj
 0004:00000a74       $pdata$TA_MAVP_FramePP     0000000180091a74     ta_libc_csr:ta_frame.obj
 0004:00000a80       $pdata$TA_MAXINDEX_FramePP 0000000180091a80     ta_libc_csr:ta_frame.obj
 0004:00000a8c       $pdata$TA_MAX_FramePP      0000000180091a8c     ta_libc_csr:ta_frame.obj
 0004:00000a98       $pdata$TA_MA_FramePP       0000000180091a98     ta_libc_csr:ta_frame.obj
 0004:00000aa4       $pdata$TA_MEDPRICE_FramePP 0000000180091aa4     ta_libc_csr:ta_frame.obj
 0004:00000ab0       $pdata$TA_MFI_FramePP      0000000180091ab0     ta_libc_csr:ta_frame.obj
 0004:00000abc       $pdata$TA_MIDPOINT_FramePP 0000000180091abc     ta_libc_csr:ta_frame.obj
 0004:00000ac8       $pdata$TA_MIDPRICE_FramePP 0000000180091ac8     ta_libc_csr:ta_frame.obj
 0004:00000ad4       $pdata$TA_MININDEX_FramePP 0000000180091ad4     ta_libc_csr:ta_frame.obj
 0004:00000ae0       $pdata$TA_MINMAXINDEX_FramePP 0000000180091ae0     ta_libc_csr:ta_frame.obj
 0004:00000aec       $pdata$TA_MINMAX_FramePP   0000000180091aec     ta_libc_csr:ta_frame.obj
 0004:00000af8       $pdata$TA_MINUS_DI_FramePP 0000000180091af8     ta_libc_csr:ta_frame.obj
 0004:00000b04       $pdata$TA_MINUS_DM_FramePP 0000000180091b04     ta_libc_csr:ta_frame.obj
 0004:00000b10       $pdata$TA_MIN_FramePP      0000000180091b10     ta_libc_csr:ta_frame.obj
 0004:00000b1c       $pdata$TA_MOM_FramePP      0000000180091b1c     ta_libc_csr:ta_frame.obj
 0004:00000b28       $pdata$TA_MULT_FramePP     0000000180091b28     ta_libc_csr:ta_frame.obj
 0004:00000b34       $pdata$TA_NATR_FramePP     0000000180091b34     ta_libc_csr:ta_frame.obj
 0004:00000b40       $pdata$TA_OBV_FramePP      0000000180091b40     ta_libc_csr:ta_frame.obj
 0004:00000b4c       $pdata$TA_PLUS_DI_FramePP  0000000180091b4c     ta_libc_csr:ta_frame.obj
 0004:00000b58       $pdata$TA_PLUS_DM_FramePP  0000000180091b58     ta_libc_csr:ta_frame.obj
 0004:00000b64       $pdata$TA_PPO_FramePP      0000000180091b64     ta_libc_csr:ta_frame.obj
 0004:00000b70       $pdata$TA_ROCP_FramePP     0000000180091b70     ta_libc_csr:ta_frame.obj
 0004:00000b7c       $pdata$TA_ROCR100_FramePP  0000000180091b7c     ta_libc_csr:ta_frame.obj
 0004:00000b88       $pdata$TA_ROCR_FramePP     0000000180091b88     ta_libc_csr:ta_frame.obj
 0004:00000b94       $pdata$TA_ROC_FramePP      0000000180091b94     ta_libc_csr:ta_frame.obj
 0004:00000ba0       $pdata$TA_RSI_FramePP      0000000180091ba0     ta_libc_csr:ta_frame.obj
 0004:00000bac       $pdata$TA_SAREXT_FramePP   0000000180091bac     ta_libc_csr:ta_frame.obj
 0004:00000bb8       $pdata$TA_SAREXT_FramePPLB 0000000180091bb8     ta_libc_csr:ta_frame.obj
 0004:00000bc4       $pdata$TA_SAR_FramePP      0000000180091bc4     ta_libc_csr:ta_frame.obj
 0004:00000bd0       $pdata$TA_SINH_FramePP     0000000180091bd0     ta_libc_csr:ta_frame.obj
 0004:00000bdc       $pdata$TA_SIN_FramePP      0000000180091bdc     ta_libc_csr:ta_frame.obj
 0004:00000be8       $pdata$TA_SMA_FramePP      0000000180091be8     ta_libc_csr:ta_frame.obj
 0004:00000bf4       $pdata$TA_SQRT_FramePP     0000000180091bf4     ta_libc_csr:ta_frame.obj
 0004:00000c00       $pdata$TA_STDDEV_FramePP   0000000180091c00     ta_libc_csr:ta_frame.obj
 0004:00000c0c       $pdata$TA_STOCHF_FramePP   0000000180091c0c     ta_libc_csr:ta_frame.obj
 0004:00000c18       $pdata$TA_STOCHRSI_FramePP 0000000180091c18     ta_libc_csr:ta_frame.obj
 0004:00000c24       $pdata$TA_STOCH_FramePP    0000000180091c24     ta_libc_csr:ta_frame.obj
 0004:00000c30       $pdata$TA_STOCH_FramePPLB  0000000180091c30     ta_libc_csr:ta_frame.obj
 0004:00000c3c       $pdata$TA_SUB_FramePP      0000000180091c3c     ta_libc_csr:ta_frame.obj
 0004:00000c48       $pdata$TA_SUM_FramePP      0000000180091c48     ta_libc_csr:ta_frame.obj
 0004:00000c54       $pdata$TA_T3_FramePP       0000000180091c54     ta_libc_csr:ta_frame.obj
 0004:00000c60       $pdata$TA_TANH_FramePP     0000000180091c60     ta_libc_csr:ta_frame.obj
 0004:00000c6c       $pdata$TA_TAN_FramePP      0000000180091c6c     ta_libc_csr:ta_frame.obj
 0004:00000c78       $pdata$TA_TEMA_FramePP     0000000180091c78     ta_libc_csr:ta_frame.obj
 0004:00000c84       $pdata$TA_TRANGE_FramePP   0000000180091c84     ta_libc_csr:ta_frame.obj
 0004:00000c90       $pdata$TA_TRIMA_FramePP    0000000180091c90     ta_libc_csr:ta_frame.obj
 0004:00000c9c       $pdata$TA_TRIX_FramePP     0000000180091c9c     ta_libc_csr:ta_frame.obj
 0004:00000ca8       $pdata$TA_TSF_FramePP      0000000180091ca8     ta_libc_csr:ta_frame.obj
 0004:00000cb4       $pdata$TA_TYPPRICE_FramePP 0000000180091cb4     ta_libc_csr:ta_frame.obj
 0004:00000cc0       $pdata$TA_ULTOSC_FramePP   0000000180091cc0     ta_libc_csr:ta_frame.obj
 0004:00000ccc       $pdata$TA_VAR_FramePP      0000000180091ccc     ta_libc_csr:ta_frame.obj
 0004:00000cd8       $pdata$TA_WCLPRICE_FramePP 0000000180091cd8     ta_libc_csr:ta_frame.obj
 0004:00000ce4       $pdata$TA_WILLR_FramePP    0000000180091ce4     ta_libc_csr:ta_frame.obj
 0004:00000cf0       $pdata$TA_WMA_FramePP      0000000180091cf0     ta_libc_csr:ta_frame.obj
 0004:00000cfc       $pdata$TA_ACCBANDS         0000000180091cfc     ta_libc_csr:ta_ACCBANDS.obj
 0004:00000d08       $pdata$2$TA_ACCBANDS       0000000180091d08     ta_libc_csr:ta_ACCBANDS.obj
 0004:00000d14       $pdata$4$TA_ACCBANDS       0000000180091d14     ta_libc_csr:ta_ACCBANDS.obj
 0004:00000d20       $pdata$5$TA_ACCBANDS       0000000180091d20     ta_libc_csr:ta_ACCBANDS.obj
 0004:00000d2c       $pdata$6$TA_ACCBANDS       0000000180091d2c     ta_libc_csr:ta_ACCBANDS.obj
 0004:00000d38       $pdata$7$TA_ACCBANDS       0000000180091d38     ta_libc_csr:ta_ACCBANDS.obj
 0004:00000d44       $pdata$9$TA_ACCBANDS       0000000180091d44     ta_libc_csr:ta_ACCBANDS.obj
 0004:00000d50       $pdata$11$TA_ACCBANDS      0000000180091d50     ta_libc_csr:ta_ACCBANDS.obj
 0004:00000d5c       $pdata$12$TA_ACCBANDS      0000000180091d5c     ta_libc_csr:ta_ACCBANDS.obj
 0004:00000d68       $pdata$13$TA_ACCBANDS      0000000180091d68     ta_libc_csr:ta_ACCBANDS.obj
 0004:00000d74       $pdata$14$TA_ACCBANDS      0000000180091d74     ta_libc_csr:ta_ACCBANDS.obj
 0004:00000d80       $pdata$TA_ACOS             0000000180091d80     ta_libc_csr:ta_ACOS.obj
 0004:00000d8c       $pdata$0$TA_ACOS           0000000180091d8c     ta_libc_csr:ta_ACOS.obj
 0004:00000d98       $pdata$3$TA_ACOS           0000000180091d98     ta_libc_csr:ta_ACOS.obj
 0004:00000da4       $pdata$5$TA_ACOS           0000000180091da4     ta_libc_csr:ta_ACOS.obj
 0004:00000db0       $pdata$6$TA_ACOS           0000000180091db0     ta_libc_csr:ta_ACOS.obj
 0004:00000dbc       $pdata$7$TA_ACOS           0000000180091dbc     ta_libc_csr:ta_ACOS.obj
 0004:00000dc8       $pdata$TA_AD               0000000180091dc8     ta_libc_csr:ta_AD.obj
 0004:00000dd4       $pdata$0$TA_AD             0000000180091dd4     ta_libc_csr:ta_AD.obj
 0004:00000de0       $pdata$1$TA_AD             0000000180091de0     ta_libc_csr:ta_AD.obj
 0004:00000dec       $pdata$TA_ADD              0000000180091dec     ta_libc_csr:ta_ADD.obj
 0004:00000df8       $pdata$0$TA_ADD            0000000180091df8     ta_libc_csr:ta_ADD.obj
 0004:00000e04       $pdata$3$TA_ADD            0000000180091e04     ta_libc_csr:ta_ADD.obj
 0004:00000e10       $pdata$5$TA_ADD            0000000180091e10     ta_libc_csr:ta_ADD.obj
 0004:00000e1c       $pdata$6$TA_ADD            0000000180091e1c     ta_libc_csr:ta_ADD.obj
 0004:00000e28       $pdata$7$TA_ADD            0000000180091e28     ta_libc_csr:ta_ADD.obj
 0004:00000e34       $pdata$TA_ADOSC            0000000180091e34     ta_libc_csr:ta_ADOSC.obj
 0004:00000e40       $pdata$1$TA_ADOSC          0000000180091e40     ta_libc_csr:ta_ADOSC.obj
 0004:00000e4c       $pdata$2$TA_ADOSC          0000000180091e4c     ta_libc_csr:ta_ADOSC.obj
 0004:00000e58       $pdata$3$TA_ADOSC          0000000180091e58     ta_libc_csr:ta_ADOSC.obj
 0004:00000e64       $pdata$4$TA_ADOSC          0000000180091e64     ta_libc_csr:ta_ADOSC.obj
 0004:00000e70       $pdata$5$TA_ADOSC          0000000180091e70     ta_libc_csr:ta_ADOSC.obj
 0004:00000e7c       $pdata$15$TA_ADOSC         0000000180091e7c     ta_libc_csr:ta_ADOSC.obj
 0004:00000e88       $pdata$7$TA_ADOSC          0000000180091e88     ta_libc_csr:ta_ADOSC.obj
 0004:00000e94       $pdata$16$TA_ADOSC         0000000180091e94     ta_libc_csr:ta_ADOSC.obj
 0004:00000ea0       $pdata$17$TA_ADOSC         0000000180091ea0     ta_libc_csr:ta_ADOSC.obj
 0004:00000eac       $pdata$18$TA_ADOSC         0000000180091eac     ta_libc_csr:ta_ADOSC.obj
 0004:00000eb8       $pdata$TA_ADX              0000000180091eb8     ta_libc_csr:ta_ADX.obj
 0004:00000ec4       $pdata$0$TA_ADX            0000000180091ec4     ta_libc_csr:ta_ADX.obj
 0004:00000ed0       $pdata$1$TA_ADX            0000000180091ed0     ta_libc_csr:ta_ADX.obj
 0004:00000edc       $pdata$2$TA_ADX            0000000180091edc     ta_libc_csr:ta_ADX.obj
 0004:00000ee8       $pdata$4$TA_ADX            0000000180091ee8     ta_libc_csr:ta_ADX.obj
 0004:00000ef4       $pdata$15$TA_ADX           0000000180091ef4     ta_libc_csr:ta_ADX.obj
 0004:00000f00       $pdata$17$TA_ADX           0000000180091f00     ta_libc_csr:ta_ADX.obj
 0004:00000f0c       $pdata$18$TA_ADX           0000000180091f0c     ta_libc_csr:ta_ADX.obj
 0004:00000f18       $pdata$TA_ADXR             0000000180091f18     ta_libc_csr:ta_ADXR.obj
 0004:00000f24       $pdata$1$TA_ADXR           0000000180091f24     ta_libc_csr:ta_ADXR.obj
 0004:00000f30       $pdata$2$TA_ADXR           0000000180091f30     ta_libc_csr:ta_ADXR.obj
 0004:00000f3c       $pdata$4$TA_ADXR           0000000180091f3c     ta_libc_csr:ta_ADXR.obj
 0004:00000f48       $pdata$5$TA_ADXR           0000000180091f48     ta_libc_csr:ta_ADXR.obj
 0004:00000f54       $pdata$6$TA_ADXR           0000000180091f54     ta_libc_csr:ta_ADXR.obj
 0004:00000f60       $pdata$8$TA_ADXR           0000000180091f60     ta_libc_csr:ta_ADXR.obj
 0004:00000f6c       $pdata$9$TA_ADXR           0000000180091f6c     ta_libc_csr:ta_ADXR.obj
 0004:00000f78       $pdata$10$TA_ADXR          0000000180091f78     ta_libc_csr:ta_ADXR.obj
 0004:00000f84       $pdata$11$TA_ADXR          0000000180091f84     ta_libc_csr:ta_ADXR.obj
 0004:00000f90       $pdata$TA_ADXR_Lookback    0000000180091f90     ta_libc_csr:ta_ADXR.obj
 0004:00000f9c       $pdata$TA_APO              0000000180091f9c     ta_libc_csr:ta_APO.obj
 0004:00000fa8       $pdata$0$TA_APO            0000000180091fa8     ta_libc_csr:ta_APO.obj
 0004:00000fb4       $pdata$1$TA_APO            0000000180091fb4     ta_libc_csr:ta_APO.obj
 0004:00000fc0       $pdata$2$TA_APO            0000000180091fc0     ta_libc_csr:ta_APO.obj
 0004:00000fcc       $pdata$3$TA_APO            0000000180091fcc     ta_libc_csr:ta_APO.obj
 0004:00000fd8       $pdata$4$TA_APO            0000000180091fd8     ta_libc_csr:ta_APO.obj
 0004:00000fe4       $pdata$5$TA_APO            0000000180091fe4     ta_libc_csr:ta_APO.obj
 0004:00000ff0       $pdata$6$TA_APO            0000000180091ff0     ta_libc_csr:ta_APO.obj
 0004:00000ffc       $pdata$8$TA_APO            0000000180091ffc     ta_libc_csr:ta_APO.obj
 0004:00001008       $pdata$9$TA_APO            0000000180092008     ta_libc_csr:ta_APO.obj
 0004:00001014       $pdata$10$TA_APO           0000000180092014     ta_libc_csr:ta_APO.obj
 0004:00001020       $pdata$11$TA_APO           0000000180092020     ta_libc_csr:ta_APO.obj
 0004:0000102c       $pdata$TA_INT_PO           000000018009202c     ta_libc_csr:ta_APO.obj
 0004:00001038       $pdata$TA_AROON            0000000180092038     ta_libc_csr:ta_AROON.obj
 0004:00001044       $pdata$0$TA_AROON          0000000180092044     ta_libc_csr:ta_AROON.obj
 0004:00001050       $pdata$2$TA_AROON          0000000180092050     ta_libc_csr:ta_AROON.obj
 0004:0000105c       $pdata$9$TA_AROON          000000018009205c     ta_libc_csr:ta_AROON.obj
 0004:00001068       $pdata$11$TA_AROON         0000000180092068     ta_libc_csr:ta_AROON.obj
 0004:00001074       $pdata$12$TA_AROON         0000000180092074     ta_libc_csr:ta_AROON.obj
 0004:00001080       $pdata$TA_AROONOSC         0000000180092080     ta_libc_csr:ta_AROONOSC.obj
 0004:0000108c       $pdata$5$TA_AROONOSC       000000018009208c     ta_libc_csr:ta_AROONOSC.obj
 0004:00001098       $pdata$7$TA_AROONOSC       0000000180092098     ta_libc_csr:ta_AROONOSC.obj
 0004:000010a4       $pdata$8$TA_AROONOSC       00000001800920a4     ta_libc_csr:ta_AROONOSC.obj
 0004:000010b0       $pdata$TA_ASIN             00000001800920b0     ta_libc_csr:ta_ASIN.obj
 0004:000010bc       $pdata$0$TA_ASIN           00000001800920bc     ta_libc_csr:ta_ASIN.obj
 0004:000010c8       $pdata$3$TA_ASIN           00000001800920c8     ta_libc_csr:ta_ASIN.obj
 0004:000010d4       $pdata$5$TA_ASIN           00000001800920d4     ta_libc_csr:ta_ASIN.obj
 0004:000010e0       $pdata$6$TA_ASIN           00000001800920e0     ta_libc_csr:ta_ASIN.obj
 0004:000010ec       $pdata$7$TA_ASIN           00000001800920ec     ta_libc_csr:ta_ASIN.obj
 0004:000010f8       $pdata$TA_ATAN             00000001800920f8     ta_libc_csr:ta_ATAN.obj
 0004:00001104       $pdata$0$TA_ATAN           0000000180092104     ta_libc_csr:ta_ATAN.obj
 0004:00001110       $pdata$3$TA_ATAN           0000000180092110     ta_libc_csr:ta_ATAN.obj
 0004:0000111c       $pdata$5$TA_ATAN           000000018009211c     ta_libc_csr:ta_ATAN.obj
 0004:00001128       $pdata$6$TA_ATAN           0000000180092128     ta_libc_csr:ta_ATAN.obj
 0004:00001134       $pdata$7$TA_ATAN           0000000180092134     ta_libc_csr:ta_ATAN.obj
 0004:00001140       $pdata$TA_ATR              0000000180092140     ta_libc_csr:ta_ATR.obj
 0004:0000114c       $pdata$1$TA_ATR            000000018009214c     ta_libc_csr:ta_ATR.obj
 0004:00001158       $pdata$2$TA_ATR            0000000180092158     ta_libc_csr:ta_ATR.obj
 0004:00001164       $pdata$3$TA_ATR            0000000180092164     ta_libc_csr:ta_ATR.obj
 0004:00001170       $pdata$4$TA_ATR            0000000180092170     ta_libc_csr:ta_ATR.obj
 0004:0000117c       $pdata$5$TA_ATR            000000018009217c     ta_libc_csr:ta_ATR.obj
 0004:00001188       $pdata$7$TA_ATR            0000000180092188     ta_libc_csr:ta_ATR.obj
 0004:00001194       $pdata$8$TA_ATR            0000000180092194     ta_libc_csr:ta_ATR.obj
 0004:000011a0       $pdata$9$TA_ATR            00000001800921a0     ta_libc_csr:ta_ATR.obj
 0004:000011ac       $pdata$10$TA_ATR           00000001800921ac     ta_libc_csr:ta_ATR.obj
 0004:000011b8       $pdata$TA_AVGPRICE         00000001800921b8     ta_libc_csr:ta_AVGPRICE.obj
 0004:000011c4       $pdata$1$TA_AVGPRICE       00000001800921c4     ta_libc_csr:ta_AVGPRICE.obj
 0004:000011d0       $pdata$4$TA_AVGPRICE       00000001800921d0     ta_libc_csr:ta_AVGPRICE.obj
 0004:000011dc       $pdata$8$TA_AVGPRICE       00000001800921dc     ta_libc_csr:ta_AVGPRICE.obj
 0004:000011e8       $pdata$9$TA_AVGPRICE       00000001800921e8     ta_libc_csr:ta_AVGPRICE.obj
 0004:000011f4       $pdata$11$TA_AVGPRICE      00000001800921f4     ta_libc_csr:ta_AVGPRICE.obj
 0004:00001200       $pdata$12$TA_AVGPRICE      0000000180092200     ta_libc_csr:ta_AVGPRICE.obj
 0004:0000120c       $pdata$TA_AVGDEV           000000018009220c     ta_libc_csr:ta_AVGDEV.obj
 0004:00001218       $pdata$0$TA_AVGDEV         0000000180092218     ta_libc_csr:ta_AVGDEV.obj
 0004:00001224       $pdata$2$TA_AVGDEV         0000000180092224     ta_libc_csr:ta_AVGDEV.obj
 0004:00001230       $pdata$3$TA_AVGDEV         0000000180092230     ta_libc_csr:ta_AVGDEV.obj
 0004:0000123c       $pdata$4$TA_AVGDEV         000000018009223c     ta_libc_csr:ta_AVGDEV.obj
 0004:00001248       $pdata$TA_BBANDS           0000000180092248     ta_libc_csr:ta_BBANDS.obj
 0004:00001254       $pdata$2$TA_BBANDS         0000000180092254     ta_libc_csr:ta_BBANDS.obj
 0004:00001260       $pdata$3$TA_BBANDS         0000000180092260     ta_libc_csr:ta_BBANDS.obj
 0004:0000126c       $pdata$4$TA_BBANDS         000000018009226c     ta_libc_csr:ta_BBANDS.obj
 0004:00001278       $pdata$5$TA_BBANDS         0000000180092278     ta_libc_csr:ta_BBANDS.obj
 0004:00001284       $pdata$7$TA_BBANDS         0000000180092284     ta_libc_csr:ta_BBANDS.obj
 0004:00001290       $pdata$8$TA_BBANDS         0000000180092290     ta_libc_csr:ta_BBANDS.obj
 0004:0000129c       $pdata$9$TA_BBANDS         000000018009229c     ta_libc_csr:ta_BBANDS.obj
 0004:000012a8       $pdata$10$TA_BBANDS        00000001800922a8     ta_libc_csr:ta_BBANDS.obj
 0004:000012b4       $pdata$11$TA_BBANDS        00000001800922b4     ta_libc_csr:ta_BBANDS.obj
 0004:000012c0       $pdata$12$TA_BBANDS        00000001800922c0     ta_libc_csr:ta_BBANDS.obj
 0004:000012cc       $pdata$13$TA_BBANDS        00000001800922cc     ta_libc_csr:ta_BBANDS.obj
 0004:000012d8       $pdata$14$TA_BBANDS        00000001800922d8     ta_libc_csr:ta_BBANDS.obj
 0004:000012e4       $pdata$15$TA_BBANDS        00000001800922e4     ta_libc_csr:ta_BBANDS.obj
 0004:000012f0       $pdata$17$TA_BBANDS        00000001800922f0     ta_libc_csr:ta_BBANDS.obj
 0004:000012fc       $pdata$18$TA_BBANDS        00000001800922fc     ta_libc_csr:ta_BBANDS.obj
 0004:00001308       $pdata$19$TA_BBANDS        0000000180092308     ta_libc_csr:ta_BBANDS.obj
 0004:00001314       $pdata$20$TA_BBANDS        0000000180092314     ta_libc_csr:ta_BBANDS.obj
 0004:00001320       $pdata$21$TA_BBANDS        0000000180092320     ta_libc_csr:ta_BBANDS.obj
 0004:0000132c       $pdata$23$TA_BBANDS        000000018009232c     ta_libc_csr:ta_BBANDS.obj
 0004:00001338       $pdata$24$TA_BBANDS        0000000180092338     ta_libc_csr:ta_BBANDS.obj
 0004:00001344       $pdata$TA_BETA             0000000180092344     ta_libc_csr:ta_BETA.obj
 0004:00001350       $pdata$0$TA_BETA           0000000180092350     ta_libc_csr:ta_BETA.obj
 0004:0000135c       $pdata$1$TA_BETA           000000018009235c     ta_libc_csr:ta_BETA.obj
 0004:00001368       $pdata$2$TA_BETA           0000000180092368     ta_libc_csr:ta_BETA.obj
 0004:00001374       $pdata$10$TA_BETA          0000000180092374     ta_libc_csr:ta_BETA.obj
 0004:00001380       $pdata$11$TA_BETA          0000000180092380     ta_libc_csr:ta_BETA.obj
 0004:0000138c       $pdata$13$TA_BETA          000000018009238c     ta_libc_csr:ta_BETA.obj
 0004:00001398       $pdata$TA_BOP              0000000180092398     ta_libc_csr:ta_BOP.obj
 0004:000013a4       $pdata$3$TA_BOP            00000001800923a4     ta_libc_csr:ta_BOP.obj
 0004:000013b0       $pdata$5$TA_BOP            00000001800923b0     ta_libc_csr:ta_BOP.obj
 0004:000013bc       $pdata$6$TA_BOP            00000001800923bc     ta_libc_csr:ta_BOP.obj
 0004:000013c8       $pdata$8$TA_BOP            00000001800923c8     ta_libc_csr:ta_BOP.obj
 0004:000013d4       $pdata$9$TA_BOP            00000001800923d4     ta_libc_csr:ta_BOP.obj
 0004:000013e0       $pdata$TA_CCI              00000001800923e0     ta_libc_csr:ta_CCI.obj
 0004:000013ec       $pdata$0$TA_CCI            00000001800923ec     ta_libc_csr:ta_CCI.obj
 0004:000013f8       $pdata$1$TA_CCI            00000001800923f8     ta_libc_csr:ta_CCI.obj
 0004:00001404       $pdata$2$TA_CCI            0000000180092404     ta_libc_csr:ta_CCI.obj
 0004:00001410       $pdata$3$TA_CCI            0000000180092410     ta_libc_csr:ta_CCI.obj
 0004:0000141c       $pdata$4$TA_CCI            000000018009241c     ta_libc_csr:ta_CCI.obj
 0004:00001428       $pdata$9$TA_CCI            0000000180092428     ta_libc_csr:ta_CCI.obj
 0004:00001434       $pdata$10$TA_CCI           0000000180092434     ta_libc_csr:ta_CCI.obj
 0004:00001440       $pdata$11$TA_CCI           0000000180092440     ta_libc_csr:ta_CCI.obj
 0004:0000144c       $pdata$12$TA_CCI           000000018009244c     ta_libc_csr:ta_CCI.obj
 0004:00001458       $pdata$TA_CDL2CROWS        0000000180092458     ta_libc_csr:ta_CDL2CROWS.obj
 0004:00001464       $pdata$1$TA_CDL2CROWS      0000000180092464     ta_libc_csr:ta_CDL2CROWS.obj
 0004:00001470       $pdata$2$TA_CDL2CROWS      0000000180092470     ta_libc_csr:ta_CDL2CROWS.obj
 0004:0000147c       $pdata$3$TA_CDL2CROWS      000000018009247c     ta_libc_csr:ta_CDL2CROWS.obj
 0004:00001488       $pdata$11$TA_CDL2CROWS     0000000180092488     ta_libc_csr:ta_CDL2CROWS.obj
 0004:00001494       $pdata$12$TA_CDL2CROWS     0000000180092494     ta_libc_csr:ta_CDL2CROWS.obj
 0004:000014a0       $pdata$13$TA_CDL2CROWS     00000001800924a0     ta_libc_csr:ta_CDL2CROWS.obj
 0004:000014ac       $pdata$TA_CDL3BLACKCROWS   00000001800924ac     ta_libc_csr:ta_CDL3BLACKCROWS.obj
 0004:000014b8       $pdata$1$TA_CDL3BLACKCROWS 00000001800924b8     ta_libc_csr:ta_CDL3BLACKCROWS.obj
 0004:000014c4       $pdata$2$TA_CDL3BLACKCROWS 00000001800924c4     ta_libc_csr:ta_CDL3BLACKCROWS.obj
 0004:000014d0       $pdata$3$TA_CDL3BLACKCROWS 00000001800924d0     ta_libc_csr:ta_CDL3BLACKCROWS.obj
 0004:000014dc       $pdata$4$TA_CDL3BLACKCROWS 00000001800924dc     ta_libc_csr:ta_CDL3BLACKCROWS.obj
 0004:000014e8       $pdata$5$TA_CDL3BLACKCROWS 00000001800924e8     ta_libc_csr:ta_CDL3BLACKCROWS.obj
 0004:000014f4       $pdata$9$TA_CDL3BLACKCROWS 00000001800924f4     ta_libc_csr:ta_CDL3BLACKCROWS.obj
 0004:00001500       $pdata$15$TA_CDL3BLACKCROWS 0000000180092500     ta_libc_csr:ta_CDL3BLACKCROWS.obj
 0004:0000150c       $pdata$17$TA_CDL3BLACKCROWS 000000018009250c     ta_libc_csr:ta_CDL3BLACKCROWS.obj
 0004:00001518       $pdata$18$TA_CDL3BLACKCROWS 0000000180092518     ta_libc_csr:ta_CDL3BLACKCROWS.obj
 0004:00001524       $pdata$TA_CDL3INSIDE       0000000180092524     ta_libc_csr:ta_CDL3INSIDE.obj
 0004:00001530       $pdata$1$TA_CDL3INSIDE     0000000180092530     ta_libc_csr:ta_CDL3INSIDE.obj
 0004:0000153c       $pdata$3$TA_CDL3INSIDE     000000018009253c     ta_libc_csr:ta_CDL3INSIDE.obj
 0004:00001548       $pdata$12$TA_CDL3INSIDE    0000000180092548     ta_libc_csr:ta_CDL3INSIDE.obj
 0004:00001554       $pdata$13$TA_CDL3INSIDE    0000000180092554     ta_libc_csr:ta_CDL3INSIDE.obj
 0004:00001560       $pdata$14$TA_CDL3INSIDE    0000000180092560     ta_libc_csr:ta_CDL3INSIDE.obj
 0004:0000156c       $pdata$TA_CDL3LINESTRIKE   000000018009256c     ta_libc_csr:ta_CDL3LINESTRIKE.obj
 0004:00001578       $pdata$1$TA_CDL3LINESTRIKE 0000000180092578     ta_libc_csr:ta_CDL3LINESTRIKE.obj
 0004:00001584       $pdata$2$TA_CDL3LINESTRIKE 0000000180092584     ta_libc_csr:ta_CDL3LINESTRIKE.obj
 0004:00001590       $pdata$3$TA_CDL3LINESTRIKE 0000000180092590     ta_libc_csr:ta_CDL3LINESTRIKE.obj
 0004:0000159c       $pdata$9$TA_CDL3LINESTRIKE 000000018009259c     ta_libc_csr:ta_CDL3LINESTRIKE.obj
 0004:000015a8       $pdata$13$TA_CDL3LINESTRIKE 00000001800925a8     ta_libc_csr:ta_CDL3LINESTRIKE.obj
 0004:000015b4       $pdata$14$TA_CDL3LINESTRIKE 00000001800925b4     ta_libc_csr:ta_CDL3LINESTRIKE.obj
 0004:000015c0       $pdata$15$TA_CDL3LINESTRIKE 00000001800925c0     ta_libc_csr:ta_CDL3LINESTRIKE.obj
 0004:000015cc       $pdata$TA_CDL3OUTSIDE      00000001800925cc     ta_libc_csr:ta_CDL3OUTSIDE.obj
 0004:000015d8       $pdata$1$TA_CDL3OUTSIDE    00000001800925d8     ta_libc_csr:ta_CDL3OUTSIDE.obj
 0004:000015e4       $pdata$3$TA_CDL3OUTSIDE    00000001800925e4     ta_libc_csr:ta_CDL3OUTSIDE.obj
 0004:000015f0       $pdata$5$TA_CDL3OUTSIDE    00000001800925f0     ta_libc_csr:ta_CDL3OUTSIDE.obj
 0004:000015fc       $pdata$7$TA_CDL3OUTSIDE    00000001800925fc     ta_libc_csr:ta_CDL3OUTSIDE.obj
 0004:00001608       $pdata$8$TA_CDL3OUTSIDE    0000000180092608     ta_libc_csr:ta_CDL3OUTSIDE.obj
 0004:00001614       $pdata$TA_CDL3STARSINSOUTH 0000000180092614     ta_libc_csr:ta_CDL3STARSINSOUTH.obj
 0004:00001620       $pdata$0$TA_CDL3STARSINSOUTH 0000000180092620     ta_libc_csr:ta_CDL3STARSINSOUTH.obj
 0004:0000162c       $pdata$13$TA_CDL3STARSINSOUTH 000000018009262c     ta_libc_csr:ta_CDL3STARSINSOUTH.obj
 0004:00001638       $pdata$15$TA_CDL3STARSINSOUTH 0000000180092638     ta_libc_csr:ta_CDL3STARSINSOUTH.obj
 0004:00001644       $pdata$2$TA_CDL3STARSINSOUTH 0000000180092644     ta_libc_csr:ta_CDL3STARSINSOUTH.obj
 0004:00001650       $pdata$16$TA_CDL3STARSINSOUTH 0000000180092650     ta_libc_csr:ta_CDL3STARSINSOUTH.obj
 0004:0000165c       $pdata$TA_CDL3WHITESOLDIERS 000000018009265c     ta_libc_csr:ta_CDL3WHITESOLDIERS.obj
 0004:00001668       $pdata$0$TA_CDL3WHITESOLDIERS 0000000180092668     ta_libc_csr:ta_CDL3WHITESOLDIERS.obj
 0004:00001674       $pdata$1$TA_CDL3WHITESOLDIERS 0000000180092674     ta_libc_csr:ta_CDL3WHITESOLDIERS.obj
 0004:00001680       $pdata$2$TA_CDL3WHITESOLDIERS 0000000180092680     ta_libc_csr:ta_CDL3WHITESOLDIERS.obj
 0004:0000168c       $pdata$12$TA_CDL3WHITESOLDIERS 000000018009268c     ta_libc_csr:ta_CDL3WHITESOLDIERS.obj
 0004:00001698       $pdata$13$TA_CDL3WHITESOLDIERS 0000000180092698     ta_libc_csr:ta_CDL3WHITESOLDIERS.obj
 0004:000016a4       $pdata$14$TA_CDL3WHITESOLDIERS 00000001800926a4     ta_libc_csr:ta_CDL3WHITESOLDIERS.obj
 0004:000016b0       $pdata$TA_CDLABANDONEDBABY 00000001800926b0     ta_libc_csr:ta_CDLABANDONEDBABY.obj
 0004:000016bc       $pdata$1$TA_CDLABANDONEDBABY 00000001800926bc     ta_libc_csr:ta_CDLABANDONEDBABY.obj
 0004:000016c8       $pdata$3$TA_CDLABANDONEDBABY 00000001800926c8     ta_libc_csr:ta_CDLABANDONEDBABY.obj
 0004:000016d4       $pdata$4$TA_CDLABANDONEDBABY 00000001800926d4     ta_libc_csr:ta_CDLABANDONEDBABY.obj
 0004:000016e0       $pdata$5$TA_CDLABANDONEDBABY 00000001800926e0     ta_libc_csr:ta_CDLABANDONEDBABY.obj
 0004:000016ec       $pdata$6$TA_CDLABANDONEDBABY 00000001800926ec     ta_libc_csr:ta_CDLABANDONEDBABY.obj
 0004:000016f8       $pdata$8$TA_CDLABANDONEDBABY 00000001800926f8     ta_libc_csr:ta_CDLABANDONEDBABY.obj
 0004:00001704       $pdata$18$TA_CDLABANDONEDBABY 0000000180092704     ta_libc_csr:ta_CDLABANDONEDBABY.obj
 0004:00001710       $pdata$20$TA_CDLABANDONEDBABY 0000000180092710     ta_libc_csr:ta_CDLABANDONEDBABY.obj
 0004:0000171c       $pdata$21$TA_CDLABANDONEDBABY 000000018009271c     ta_libc_csr:ta_CDLABANDONEDBABY.obj
 0004:00001728       $pdata$22$TA_CDLABANDONEDBABY 0000000180092728     ta_libc_csr:ta_CDLABANDONEDBABY.obj
 0004:00001734       $pdata$TA_CDLADVANCEBLOCK  0000000180092734     ta_libc_csr:ta_CDLADVANCEBLOCK.obj
 0004:00001740       $pdata$0$TA_CDLADVANCEBLOCK 0000000180092740     ta_libc_csr:ta_CDLADVANCEBLOCK.obj
 0004:0000174c       $pdata$1$TA_CDLADVANCEBLOCK 000000018009274c     ta_libc_csr:ta_CDLADVANCEBLOCK.obj
 0004:00001758       $pdata$12$TA_CDLADVANCEBLOCK 0000000180092758     ta_libc_csr:ta_CDLADVANCEBLOCK.obj
 0004:00001764       $pdata$13$TA_CDLADVANCEBLOCK 0000000180092764     ta_libc_csr:ta_CDLADVANCEBLOCK.obj
 0004:00001770       $pdata$2$TA_CDLADVANCEBLOCK 0000000180092770     ta_libc_csr:ta_CDLADVANCEBLOCK.obj
 0004:0000177c       $pdata$14$TA_CDLADVANCEBLOCK 000000018009277c     ta_libc_csr:ta_CDLADVANCEBLOCK.obj
 0004:00001788       $pdata$TA_CDLBELTHOLD      0000000180092788     ta_libc_csr:ta_CDLBELTHOLD.obj
 0004:00001794       $pdata$1$TA_CDLBELTHOLD    0000000180092794     ta_libc_csr:ta_CDLBELTHOLD.obj
 0004:000017a0       $pdata$12$TA_CDLBELTHOLD   00000001800927a0     ta_libc_csr:ta_CDLBELTHOLD.obj
 0004:000017ac       $pdata$3$TA_CDLBELTHOLD    00000001800927ac     ta_libc_csr:ta_CDLBELTHOLD.obj
 0004:000017b8       $pdata$13$TA_CDLBELTHOLD   00000001800927b8     ta_libc_csr:ta_CDLBELTHOLD.obj
 0004:000017c4       $pdata$TA_CDLBREAKAWAY     00000001800927c4     ta_libc_csr:ta_CDLBREAKAWAY.obj
 0004:000017d0       $pdata$1$TA_CDLBREAKAWAY   00000001800927d0     ta_libc_csr:ta_CDLBREAKAWAY.obj
 0004:000017dc       $pdata$10$TA_CDLBREAKAWAY  00000001800927dc     ta_libc_csr:ta_CDLBREAKAWAY.obj
 0004:000017e8       $pdata$13$TA_CDLBREAKAWAY  00000001800927e8     ta_libc_csr:ta_CDLBREAKAWAY.obj
 0004:000017f4       $pdata$3$TA_CDLBREAKAWAY   00000001800927f4     ta_libc_csr:ta_CDLBREAKAWAY.obj
 0004:00001800       $pdata$14$TA_CDLBREAKAWAY  0000000180092800     ta_libc_csr:ta_CDLBREAKAWAY.obj
 0004:0000180c       $pdata$TA_CDLCLOSINGMARUBOZU 000000018009280c     ta_libc_csr:ta_CDLCLOSINGMARUBOZU.obj
 0004:00001818       $pdata$1$TA_CDLCLOSINGMARUBOZU 0000000180092818     ta_libc_csr:ta_CDLCLOSINGMARUBOZU.obj
 0004:00001824       $pdata$12$TA_CDLCLOSINGMARUBOZU 0000000180092824     ta_libc_csr:ta_CDLCLOSINGMARUBOZU.obj
 0004:00001830       $pdata$3$TA_CDLCLOSINGMARUBOZU 0000000180092830     ta_libc_csr:ta_CDLCLOSINGMARUBOZU.obj
 0004:0000183c       $pdata$13$TA_CDLCLOSINGMARUBOZU 000000018009283c     ta_libc_csr:ta_CDLCLOSINGMARUBOZU.obj
 0004:00001848       $pdata$TA_CDLCONCEALBABYSWALL 0000000180092848     ta_libc_csr:ta_CDLCONCEALBABYSWALL.obj
 0004:00001854       $pdata$1$TA_CDLCONCEALBABYSWALL 0000000180092854     ta_libc_csr:ta_CDLCONCEALBABYSWALL.obj
 0004:00001860       $pdata$2$TA_CDLCONCEALBABYSWALL 0000000180092860     ta_libc_csr:ta_CDLCONCEALBABYSWALL.obj
 0004:0000186c       $pdata$3$TA_CDLCONCEALBABYSWALL 000000018009286c     ta_libc_csr:ta_CDLCONCEALBABYSWALL.obj
 0004:00001878       $pdata$8$TA_CDLCONCEALBABYSWALL 0000000180092878     ta_libc_csr:ta_CDLCONCEALBABYSWALL.obj
 0004:00001884       $pdata$13$TA_CDLCONCEALBABYSWALL 0000000180092884     ta_libc_csr:ta_CDLCONCEALBABYSWALL.obj
 0004:00001890       $pdata$14$TA_CDLCONCEALBABYSWALL 0000000180092890     ta_libc_csr:ta_CDLCONCEALBABYSWALL.obj
 0004:0000189c       $pdata$15$TA_CDLCONCEALBABYSWALL 000000018009289c     ta_libc_csr:ta_CDLCONCEALBABYSWALL.obj
 0004:000018a8       $pdata$TA_CDLCOUNTERATTACK 00000001800928a8     ta_libc_csr:ta_CDLCOUNTERATTACK.obj
 0004:000018b4       $pdata$1$TA_CDLCOUNTERATTACK 00000001800928b4     ta_libc_csr:ta_CDLCOUNTERATTACK.obj
 0004:000018c0       $pdata$15$TA_CDLCOUNTERATTACK 00000001800928c0     ta_libc_csr:ta_CDLCOUNTERATTACK.obj
 0004:000018cc       $pdata$16$TA_CDLCOUNTERATTACK 00000001800928cc     ta_libc_csr:ta_CDLCOUNTERATTACK.obj
 0004:000018d8       $pdata$3$TA_CDLCOUNTERATTACK 00000001800928d8     ta_libc_csr:ta_CDLCOUNTERATTACK.obj
 0004:000018e4       $pdata$17$TA_CDLCOUNTERATTACK 00000001800928e4     ta_libc_csr:ta_CDLCOUNTERATTACK.obj
 0004:000018f0       $pdata$TA_CDLDARKCLOUDCOVER 00000001800928f0     ta_libc_csr:ta_CDLDARKCLOUDCOVER.obj
 0004:000018fc       $pdata$1$TA_CDLDARKCLOUDCOVER 00000001800928fc     ta_libc_csr:ta_CDLDARKCLOUDCOVER.obj
 0004:00001908       $pdata$3$TA_CDLDARKCLOUDCOVER 0000000180092908     ta_libc_csr:ta_CDLDARKCLOUDCOVER.obj
 0004:00001914       $pdata$4$TA_CDLDARKCLOUDCOVER 0000000180092914     ta_libc_csr:ta_CDLDARKCLOUDCOVER.obj
 0004:00001920       $pdata$11$TA_CDLDARKCLOUDCOVER 0000000180092920     ta_libc_csr:ta_CDLDARKCLOUDCOVER.obj
 0004:0000192c       $pdata$6$TA_CDLDARKCLOUDCOVER 000000018009292c     ta_libc_csr:ta_CDLDARKCLOUDCOVER.obj
 0004:00001938       $pdata$12$TA_CDLDARKCLOUDCOVER 0000000180092938     ta_libc_csr:ta_CDLDARKCLOUDCOVER.obj
 0004:00001944       $pdata$13$TA_CDLDARKCLOUDCOVER 0000000180092944     ta_libc_csr:ta_CDLDARKCLOUDCOVER.obj
 0004:00001950       $pdata$TA_CDLDOJI          0000000180092950     ta_libc_csr:ta_CDLDOJI.obj
 0004:0000195c       $pdata$1$TA_CDLDOJI        000000018009295c     ta_libc_csr:ta_CDLDOJI.obj
 0004:00001968       $pdata$3$TA_CDLDOJI        0000000180092968     ta_libc_csr:ta_CDLDOJI.obj
 0004:00001974       $pdata$8$TA_CDLDOJI        0000000180092974     ta_libc_csr:ta_CDLDOJI.obj
 0004:00001980       $pdata$9$TA_CDLDOJI        0000000180092980     ta_libc_csr:ta_CDLDOJI.obj
 0004:0000198c       $pdata$10$TA_CDLDOJI       000000018009298c     ta_libc_csr:ta_CDLDOJI.obj
 0004:00001998       $pdata$11$TA_CDLDOJI       0000000180092998     ta_libc_csr:ta_CDLDOJI.obj
 0004:000019a4       $pdata$TA_CDLDOJISTAR      00000001800929a4     ta_libc_csr:ta_CDLDOJISTAR.obj
 0004:000019b0       $pdata$1$TA_CDLDOJISTAR    00000001800929b0     ta_libc_csr:ta_CDLDOJISTAR.obj
 0004:000019bc       $pdata$2$TA_CDLDOJISTAR    00000001800929bc     ta_libc_csr:ta_CDLDOJISTAR.obj
 0004:000019c8       $pdata$3$TA_CDLDOJISTAR    00000001800929c8     ta_libc_csr:ta_CDLDOJISTAR.obj
 0004:000019d4       $pdata$5$TA_CDLDOJISTAR    00000001800929d4     ta_libc_csr:ta_CDLDOJISTAR.obj
 0004:000019e0       $pdata$13$TA_CDLDOJISTAR   00000001800929e0     ta_libc_csr:ta_CDLDOJISTAR.obj
 0004:000019ec       $pdata$15$TA_CDLDOJISTAR   00000001800929ec     ta_libc_csr:ta_CDLDOJISTAR.obj
 0004:000019f8       $pdata$16$TA_CDLDOJISTAR   00000001800929f8     ta_libc_csr:ta_CDLDOJISTAR.obj
 0004:00001a04       $pdata$TA_CDLDRAGONFLYDOJI 0000000180092a04     ta_libc_csr:ta_CDLDRAGONFLYDOJI.obj
 0004:00001a10       $pdata$1$TA_CDLDRAGONFLYDOJI 0000000180092a10     ta_libc_csr:ta_CDLDRAGONFLYDOJI.obj
 0004:00001a1c       $pdata$12$TA_CDLDRAGONFLYDOJI 0000000180092a1c     ta_libc_csr:ta_CDLDRAGONFLYDOJI.obj
 0004:00001a28       $pdata$15$TA_CDLDRAGONFLYDOJI 0000000180092a28     ta_libc_csr:ta_CDLDRAGONFLYDOJI.obj
 0004:00001a34       $pdata$3$TA_CDLDRAGONFLYDOJI 0000000180092a34     ta_libc_csr:ta_CDLDRAGONFLYDOJI.obj
 0004:00001a40       $pdata$16$TA_CDLDRAGONFLYDOJI 0000000180092a40     ta_libc_csr:ta_CDLDRAGONFLYDOJI.obj
 0004:00001a4c       $pdata$TA_CDLENGULFING     0000000180092a4c     ta_libc_csr:ta_CDLENGULFING.obj
 0004:00001a58       $pdata$1$TA_CDLENGULFING   0000000180092a58     ta_libc_csr:ta_CDLENGULFING.obj
 0004:00001a64       $pdata$3$TA_CDLENGULFING   0000000180092a64     ta_libc_csr:ta_CDLENGULFING.obj
 0004:00001a70       $pdata$6$TA_CDLENGULFING   0000000180092a70     ta_libc_csr:ta_CDLENGULFING.obj
 0004:00001a7c       $pdata$8$TA_CDLENGULFING   0000000180092a7c     ta_libc_csr:ta_CDLENGULFING.obj
 0004:00001a88       $pdata$9$TA_CDLENGULFING   0000000180092a88     ta_libc_csr:ta_CDLENGULFING.obj
 0004:00001a94       $pdata$TA_CDLEVENINGDOJISTAR 0000000180092a94     ta_libc_csr:ta_CDLEVENINGDOJISTAR.obj
 0004:00001aa0       $pdata$1$TA_CDLEVENINGDOJISTAR 0000000180092aa0     ta_libc_csr:ta_CDLEVENINGDOJISTAR.obj
 0004:00001aac       $pdata$3$TA_CDLEVENINGDOJISTAR 0000000180092aac     ta_libc_csr:ta_CDLEVENINGDOJISTAR.obj
 0004:00001ab8       $pdata$4$TA_CDLEVENINGDOJISTAR 0000000180092ab8     ta_libc_csr:ta_CDLEVENINGDOJISTAR.obj
 0004:00001ac4       $pdata$5$TA_CDLEVENINGDOJISTAR 0000000180092ac4     ta_libc_csr:ta_CDLEVENINGDOJISTAR.obj
 0004:00001ad0       $pdata$6$TA_CDLEVENINGDOJISTAR 0000000180092ad0     ta_libc_csr:ta_CDLEVENINGDOJISTAR.obj
 0004:00001adc       $pdata$8$TA_CDLEVENINGDOJISTAR 0000000180092adc     ta_libc_csr:ta_CDLEVENINGDOJISTAR.obj
 0004:00001ae8       $pdata$18$TA_CDLEVENINGDOJISTAR 0000000180092ae8     ta_libc_csr:ta_CDLEVENINGDOJISTAR.obj
 0004:00001af4       $pdata$20$TA_CDLEVENINGDOJISTAR 0000000180092af4     ta_libc_csr:ta_CDLEVENINGDOJISTAR.obj
 0004:00001b00       $pdata$21$TA_CDLEVENINGDOJISTAR 0000000180092b00     ta_libc_csr:ta_CDLEVENINGDOJISTAR.obj
 0004:00001b0c       $pdata$22$TA_CDLEVENINGDOJISTAR 0000000180092b0c     ta_libc_csr:ta_CDLEVENINGDOJISTAR.obj
 0004:00001b18       $pdata$TA_CDLEVENINGSTAR   0000000180092b18     ta_libc_csr:ta_CDLEVENINGSTAR.obj
 0004:00001b24       $pdata$1$TA_CDLEVENINGSTAR 0000000180092b24     ta_libc_csr:ta_CDLEVENINGSTAR.obj
 0004:00001b30       $pdata$2$TA_CDLEVENINGSTAR 0000000180092b30     ta_libc_csr:ta_CDLEVENINGSTAR.obj
 0004:00001b3c       $pdata$3$TA_CDLEVENINGSTAR 0000000180092b3c     ta_libc_csr:ta_CDLEVENINGSTAR.obj
 0004:00001b48       $pdata$5$TA_CDLEVENINGSTAR 0000000180092b48     ta_libc_csr:ta_CDLEVENINGSTAR.obj
 0004:00001b54       $pdata$14$TA_CDLEVENINGSTAR 0000000180092b54     ta_libc_csr:ta_CDLEVENINGSTAR.obj
 0004:00001b60       $pdata$16$TA_CDLEVENINGSTAR 0000000180092b60     ta_libc_csr:ta_CDLEVENINGSTAR.obj
 0004:00001b6c       $pdata$17$TA_CDLEVENINGSTAR 0000000180092b6c     ta_libc_csr:ta_CDLEVENINGSTAR.obj
 0004:00001b78       $pdata$18$TA_CDLEVENINGSTAR 0000000180092b78     ta_libc_csr:ta_CDLEVENINGSTAR.obj
 0004:00001b84       $pdata$19$TA_CDLEVENINGSTAR 0000000180092b84     ta_libc_csr:ta_CDLEVENINGSTAR.obj
 0004:00001b90       $pdata$TA_CDLGAPSIDESIDEWHITE 0000000180092b90     ta_libc_csr:ta_CDLGAPSIDESIDEWHITE.obj
 0004:00001b9c       $pdata$1$TA_CDLGAPSIDESIDEWHITE 0000000180092b9c     ta_libc_csr:ta_CDLGAPSIDESIDEWHITE.obj
 0004:00001ba8       $pdata$14$TA_CDLGAPSIDESIDEWHITE 0000000180092ba8     ta_libc_csr:ta_CDLGAPSIDESIDEWHITE.obj
 0004:00001bb4       $pdata$15$TA_CDLGAPSIDESIDEWHITE 0000000180092bb4     ta_libc_csr:ta_CDLGAPSIDESIDEWHITE.obj
 0004:00001bc0       $pdata$3$TA_CDLGAPSIDESIDEWHITE 0000000180092bc0     ta_libc_csr:ta_CDLGAPSIDESIDEWHITE.obj
 0004:00001bcc       $pdata$16$TA_CDLGAPSIDESIDEWHITE 0000000180092bcc     ta_libc_csr:ta_CDLGAPSIDESIDEWHITE.obj
 0004:00001bd8       $pdata$TA_CDLGRAVESTONEDOJI 0000000180092bd8     ta_libc_csr:ta_CDLGRAVESTONEDOJI.obj
 0004:00001be4       $pdata$1$TA_CDLGRAVESTONEDOJI 0000000180092be4     ta_libc_csr:ta_CDLGRAVESTONEDOJI.obj
 0004:00001bf0       $pdata$13$TA_CDLGRAVESTONEDOJI 0000000180092bf0     ta_libc_csr:ta_CDLGRAVESTONEDOJI.obj
 0004:00001bfc       $pdata$15$TA_CDLGRAVESTONEDOJI 0000000180092bfc     ta_libc_csr:ta_CDLGRAVESTONEDOJI.obj
 0004:00001c08       $pdata$3$TA_CDLGRAVESTONEDOJI 0000000180092c08     ta_libc_csr:ta_CDLGRAVESTONEDOJI.obj
 0004:00001c14       $pdata$16$TA_CDLGRAVESTONEDOJI 0000000180092c14     ta_libc_csr:ta_CDLGRAVESTONEDOJI.obj
 0004:00001c20       $pdata$TA_CDLHAMMER        0000000180092c20     ta_libc_csr:ta_CDLHAMMER.obj
 0004:00001c2c       $pdata$0$TA_CDLHAMMER      0000000180092c2c     ta_libc_csr:ta_CDLHAMMER.obj
 0004:00001c38       $pdata$2$TA_CDLHAMMER      0000000180092c38     ta_libc_csr:ta_CDLHAMMER.obj
 0004:00001c44       $pdata$15$TA_CDLHAMMER     0000000180092c44     ta_libc_csr:ta_CDLHAMMER.obj
 0004:00001c50       $pdata$16$TA_CDLHAMMER     0000000180092c50     ta_libc_csr:ta_CDLHAMMER.obj
 0004:00001c5c       $pdata$17$TA_CDLHAMMER     0000000180092c5c     ta_libc_csr:ta_CDLHAMMER.obj
 0004:00001c68       $pdata$TA_CDLHANGINGMAN    0000000180092c68     ta_libc_csr:ta_CDLHANGINGMAN.obj
 0004:00001c74       $pdata$0$TA_CDLHANGINGMAN  0000000180092c74     ta_libc_csr:ta_CDLHANGINGMAN.obj
 0004:00001c80       $pdata$2$TA_CDLHANGINGMAN  0000000180092c80     ta_libc_csr:ta_CDLHANGINGMAN.obj
 0004:00001c8c       $pdata$15$TA_CDLHANGINGMAN 0000000180092c8c     ta_libc_csr:ta_CDLHANGINGMAN.obj
 0004:00001c98       $pdata$16$TA_CDLHANGINGMAN 0000000180092c98     ta_libc_csr:ta_CDLHANGINGMAN.obj
 0004:00001ca4       $pdata$17$TA_CDLHANGINGMAN 0000000180092ca4     ta_libc_csr:ta_CDLHANGINGMAN.obj
 0004:00001cb0       $pdata$TA_CDLHARAMI        0000000180092cb0     ta_libc_csr:ta_CDLHARAMI.obj
 0004:00001cbc       $pdata$1$TA_CDLHARAMI      0000000180092cbc     ta_libc_csr:ta_CDLHARAMI.obj
 0004:00001cc8       $pdata$2$TA_CDLHARAMI      0000000180092cc8     ta_libc_csr:ta_CDLHARAMI.obj
 0004:00001cd4       $pdata$3$TA_CDLHARAMI      0000000180092cd4     ta_libc_csr:ta_CDLHARAMI.obj
 0004:00001ce0       $pdata$5$TA_CDLHARAMI      0000000180092ce0     ta_libc_csr:ta_CDLHARAMI.obj
 0004:00001cec       $pdata$14$TA_CDLHARAMI     0000000180092cec     ta_libc_csr:ta_CDLHARAMI.obj
 0004:00001cf8       $pdata$16$TA_CDLHARAMI     0000000180092cf8     ta_libc_csr:ta_CDLHARAMI.obj
 0004:00001d04       $pdata$17$TA_CDLHARAMI     0000000180092d04     ta_libc_csr:ta_CDLHARAMI.obj
 0004:00001d10       $pdata$TA_CDLHARAMICROSS   0000000180092d10     ta_libc_csr:ta_CDLHARAMICROSS.obj
 0004:00001d1c       $pdata$1$TA_CDLHARAMICROSS 0000000180092d1c     ta_libc_csr:ta_CDLHARAMICROSS.obj
 0004:00001d28       $pdata$2$TA_CDLHARAMICROSS 0000000180092d28     ta_libc_csr:ta_CDLHARAMICROSS.obj
 0004:00001d34       $pdata$3$TA_CDLHARAMICROSS 0000000180092d34     ta_libc_csr:ta_CDLHARAMICROSS.obj
 0004:00001d40       $pdata$5$TA_CDLHARAMICROSS 0000000180092d40     ta_libc_csr:ta_CDLHARAMICROSS.obj
 0004:00001d4c       $pdata$14$TA_CDLHARAMICROSS 0000000180092d4c     ta_libc_csr:ta_CDLHARAMICROSS.obj
 0004:00001d58       $pdata$16$TA_CDLHARAMICROSS 0000000180092d58     ta_libc_csr:ta_CDLHARAMICROSS.obj
 0004:00001d64       $pdata$17$TA_CDLHARAMICROSS 0000000180092d64     ta_libc_csr:ta_CDLHARAMICROSS.obj
 0004:00001d70       $pdata$TA_CDLHIGHWAVE      0000000180092d70     ta_libc_csr:ta_CDLHIGHWAVE.obj
 0004:00001d7c       $pdata$1$TA_CDLHIGHWAVE    0000000180092d7c     ta_libc_csr:ta_CDLHIGHWAVE.obj
 0004:00001d88       $pdata$13$TA_CDLHIGHWAVE   0000000180092d88     ta_libc_csr:ta_CDLHIGHWAVE.obj
 0004:00001d94       $pdata$15$TA_CDLHIGHWAVE   0000000180092d94     ta_libc_csr:ta_CDLHIGHWAVE.obj
 0004:00001da0       $pdata$3$TA_CDLHIGHWAVE    0000000180092da0     ta_libc_csr:ta_CDLHIGHWAVE.obj
 0004:00001dac       $pdata$16$TA_CDLHIGHWAVE   0000000180092dac     ta_libc_csr:ta_CDLHIGHWAVE.obj
 0004:00001db8       $pdata$TA_CDLHIKKAKE       0000000180092db8     ta_libc_csr:ta_CDLHIKKAKE.obj
 0004:00001dc4       $pdata$1$TA_CDLHIKKAKE     0000000180092dc4     ta_libc_csr:ta_CDLHIKKAKE.obj
 0004:00001dd0       $pdata$2$TA_CDLHIKKAKE     0000000180092dd0     ta_libc_csr:ta_CDLHIKKAKE.obj
 0004:00001ddc       $pdata$3$TA_CDLHIKKAKE     0000000180092ddc     ta_libc_csr:ta_CDLHIKKAKE.obj
 0004:00001de8       $pdata$5$TA_CDLHIKKAKE     0000000180092de8     ta_libc_csr:ta_CDLHIKKAKE.obj
 0004:00001df4       $pdata$7$TA_CDLHIKKAKE     0000000180092df4     ta_libc_csr:ta_CDLHIKKAKE.obj
 0004:00001e00       $pdata$9$TA_CDLHIKKAKE     0000000180092e00     ta_libc_csr:ta_CDLHIKKAKE.obj
 0004:00001e0c       $pdata$10$TA_CDLHIKKAKE    0000000180092e0c     ta_libc_csr:ta_CDLHIKKAKE.obj
 0004:00001e18       $pdata$TA_CDLHIKKAKEMOD    0000000180092e18     ta_libc_csr:ta_CDLHIKKAKEMOD.obj
 0004:00001e24       $pdata$1$TA_CDLHIKKAKEMOD  0000000180092e24     ta_libc_csr:ta_CDLHIKKAKEMOD.obj
 0004:00001e30       $pdata$12$TA_CDLHIKKAKEMOD 0000000180092e30     ta_libc_csr:ta_CDLHIKKAKEMOD.obj
 0004:00001e3c       $pdata$14$TA_CDLHIKKAKEMOD 0000000180092e3c     ta_libc_csr:ta_CDLHIKKAKEMOD.obj
 0004:00001e48       $pdata$3$TA_CDLHIKKAKEMOD  0000000180092e48     ta_libc_csr:ta_CDLHIKKAKEMOD.obj
 0004:00001e54       $pdata$15$TA_CDLHIKKAKEMOD 0000000180092e54     ta_libc_csr:ta_CDLHIKKAKEMOD.obj
 0004:00001e60       $pdata$TA_CDLHOMINGPIGEON  0000000180092e60     ta_libc_csr:ta_CDLHOMINGPIGEON.obj
 0004:00001e6c       $pdata$1$TA_CDLHOMINGPIGEON 0000000180092e6c     ta_libc_csr:ta_CDLHOMINGPIGEON.obj
 0004:00001e78       $pdata$12$TA_CDLHOMINGPIGEON 0000000180092e78     ta_libc_csr:ta_CDLHOMINGPIGEON.obj
 0004:00001e84       $pdata$3$TA_CDLHOMINGPIGEON 0000000180092e84     ta_libc_csr:ta_CDLHOMINGPIGEON.obj
 0004:00001e90       $pdata$13$TA_CDLHOMINGPIGEON 0000000180092e90     ta_libc_csr:ta_CDLHOMINGPIGEON.obj
 0004:00001e9c       $pdata$TA_CDLIDENTICAL3CROWS 0000000180092e9c     ta_libc_csr:ta_CDLIDENTICAL3CROWS.obj
 0004:00001ea8       $pdata$1$TA_CDLIDENTICAL3CROWS 0000000180092ea8     ta_libc_csr:ta_CDLIDENTICAL3CROWS.obj
 0004:00001eb4       $pdata$2$TA_CDLIDENTICAL3CROWS 0000000180092eb4     ta_libc_csr:ta_CDLIDENTICAL3CROWS.obj
 0004:00001ec0       $pdata$3$TA_CDLIDENTICAL3CROWS 0000000180092ec0     ta_libc_csr:ta_CDLIDENTICAL3CROWS.obj
 0004:00001ecc       $pdata$10$TA_CDLIDENTICAL3CROWS 0000000180092ecc     ta_libc_csr:ta_CDLIDENTICAL3CROWS.obj
 0004:00001ed8       $pdata$13$TA_CDLIDENTICAL3CROWS 0000000180092ed8     ta_libc_csr:ta_CDLIDENTICAL3CROWS.obj
 0004:00001ee4       $pdata$14$TA_CDLIDENTICAL3CROWS 0000000180092ee4     ta_libc_csr:ta_CDLIDENTICAL3CROWS.obj
 0004:00001ef0       $pdata$15$TA_CDLIDENTICAL3CROWS 0000000180092ef0     ta_libc_csr:ta_CDLIDENTICAL3CROWS.obj
 0004:00001efc       $pdata$TA_CDLINNECK        0000000180092efc     ta_libc_csr:ta_CDLINNECK.obj
 0004:00001f08       $pdata$1$TA_CDLINNECK      0000000180092f08     ta_libc_csr:ta_CDLINNECK.obj
 0004:00001f14       $pdata$11$TA_CDLINNECK     0000000180092f14     ta_libc_csr:ta_CDLINNECK.obj
 0004:00001f20       $pdata$3$TA_CDLINNECK      0000000180092f20     ta_libc_csr:ta_CDLINNECK.obj
 0004:00001f2c       $pdata$12$TA_CDLINNECK     0000000180092f2c     ta_libc_csr:ta_CDLINNECK.obj
 0004:00001f38       $pdata$TA_CDLINVERTEDHAMMER 0000000180092f38     ta_libc_csr:ta_CDLINVERTEDHAMMER.obj
 0004:00001f44       $pdata$1$TA_CDLINVERTEDHAMMER 0000000180092f44     ta_libc_csr:ta_CDLINVERTEDHAMMER.obj
 0004:00001f50       $pdata$14$TA_CDLINVERTEDHAMMER 0000000180092f50     ta_libc_csr:ta_CDLINVERTEDHAMMER.obj
 0004:00001f5c       $pdata$3$TA_CDLINVERTEDHAMMER 0000000180092f5c     ta_libc_csr:ta_CDLINVERTEDHAMMER.obj
 0004:00001f68       $pdata$15$TA_CDLINVERTEDHAMMER 0000000180092f68     ta_libc_csr:ta_CDLINVERTEDHAMMER.obj
 0004:00001f74       $pdata$TA_CDLKICKING       0000000180092f74     ta_libc_csr:ta_CDLKICKING.obj
 0004:00001f80       $pdata$1$TA_CDLKICKING     0000000180092f80     ta_libc_csr:ta_CDLKICKING.obj
 0004:00001f8c       $pdata$11$TA_CDLKICKING    0000000180092f8c     ta_libc_csr:ta_CDLKICKING.obj
 0004:00001f98       $pdata$15$TA_CDLKICKING    0000000180092f98     ta_libc_csr:ta_CDLKICKING.obj
 0004:00001fa4       $pdata$3$TA_CDLKICKING     0000000180092fa4     ta_libc_csr:ta_CDLKICKING.obj
 0004:00001fb0       $pdata$16$TA_CDLKICKING    0000000180092fb0     ta_libc_csr:ta_CDLKICKING.obj
 0004:00001fbc       $pdata$TA_CDLKICKINGBYLENGTH 0000000180092fbc     ta_libc_csr:ta_CDLKICKINGBYLENGTH.obj
 0004:00001fc8       $pdata$1$TA_CDLKICKINGBYLENGTH 0000000180092fc8     ta_libc_csr:ta_CDLKICKINGBYLENGTH.obj
 0004:00001fd4       $pdata$12$TA_CDLKICKINGBYLENGTH 0000000180092fd4     ta_libc_csr:ta_CDLKICKINGBYLENGTH.obj
 0004:00001fe0       $pdata$15$TA_CDLKICKINGBYLENGTH 0000000180092fe0     ta_libc_csr:ta_CDLKICKINGBYLENGTH.obj
 0004:00001fec       $pdata$3$TA_CDLKICKINGBYLENGTH 0000000180092fec     ta_libc_csr:ta_CDLKICKINGBYLENGTH.obj
 0004:00001ff8       $pdata$16$TA_CDLKICKINGBYLENGTH 0000000180092ff8     ta_libc_csr:ta_CDLKICKINGBYLENGTH.obj
 0004:00002004       $pdata$TA_CDLLADDERBOTTOM  0000000180093004     ta_libc_csr:ta_CDLLADDERBOTTOM.obj
 0004:00002010       $pdata$1$TA_CDLLADDERBOTTOM 0000000180093010     ta_libc_csr:ta_CDLLADDERBOTTOM.obj
 0004:0000201c       $pdata$9$TA_CDLLADDERBOTTOM 000000018009301c     ta_libc_csr:ta_CDLLADDERBOTTOM.obj
 0004:00002028       $pdata$10$TA_CDLLADDERBOTTOM 0000000180093028     ta_libc_csr:ta_CDLLADDERBOTTOM.obj
 0004:00002034       $pdata$3$TA_CDLLADDERBOTTOM 0000000180093034     ta_libc_csr:ta_CDLLADDERBOTTOM.obj
 0004:00002040       $pdata$11$TA_CDLLADDERBOTTOM 0000000180093040     ta_libc_csr:ta_CDLLADDERBOTTOM.obj
 0004:0000204c       $pdata$TA_CDLLONGLEGGEDDOJI 000000018009304c     ta_libc_csr:ta_CDLLONGLEGGEDDOJI.obj
 0004:00002058       $pdata$1$TA_CDLLONGLEGGEDDOJI 0000000180093058     ta_libc_csr:ta_CDLLONGLEGGEDDOJI.obj
 0004:00002064       $pdata$13$TA_CDLLONGLEGGEDDOJI 0000000180093064     ta_libc_csr:ta_CDLLONGLEGGEDDOJI.obj
 0004:00002070       $pdata$15$TA_CDLLONGLEGGEDDOJI 0000000180093070     ta_libc_csr:ta_CDLLONGLEGGEDDOJI.obj
 0004:0000207c       $pdata$3$TA_CDLLONGLEGGEDDOJI 000000018009307c     ta_libc_csr:ta_CDLLONGLEGGEDDOJI.obj
 0004:00002088       $pdata$16$TA_CDLLONGLEGGEDDOJI 0000000180093088     ta_libc_csr:ta_CDLLONGLEGGEDDOJI.obj
 0004:00002094       $pdata$TA_CDLLONGLINE      0000000180093094     ta_libc_csr:ta_CDLLONGLINE.obj
 0004:000020a0       $pdata$1$TA_CDLLONGLINE    00000001800930a0     ta_libc_csr:ta_CDLLONGLINE.obj
 0004:000020ac       $pdata$13$TA_CDLLONGLINE   00000001800930ac     ta_libc_csr:ta_CDLLONGLINE.obj
 0004:000020b8       $pdata$15$TA_CDLLONGLINE   00000001800930b8     ta_libc_csr:ta_CDLLONGLINE.obj
 0004:000020c4       $pdata$3$TA_CDLLONGLINE    00000001800930c4     ta_libc_csr:ta_CDLLONGLINE.obj
 0004:000020d0       $pdata$16$TA_CDLLONGLINE   00000001800930d0     ta_libc_csr:ta_CDLLONGLINE.obj
 0004:000020dc       $pdata$TA_CDLMARUBOZU      00000001800930dc     ta_libc_csr:ta_CDLMARUBOZU.obj
 0004:000020e8       $pdata$1$TA_CDLMARUBOZU    00000001800930e8     ta_libc_csr:ta_CDLMARUBOZU.obj
 0004:000020f4       $pdata$13$TA_CDLMARUBOZU   00000001800930f4     ta_libc_csr:ta_CDLMARUBOZU.obj
 0004:00002100       $pdata$15$TA_CDLMARUBOZU   0000000180093100     ta_libc_csr:ta_CDLMARUBOZU.obj
 0004:0000210c       $pdata$3$TA_CDLMARUBOZU    000000018009310c     ta_libc_csr:ta_CDLMARUBOZU.obj
 0004:00002118       $pdata$16$TA_CDLMARUBOZU   0000000180093118     ta_libc_csr:ta_CDLMARUBOZU.obj
 0004:00002124       $pdata$TA_CDLMATCHINGLOW   0000000180093124     ta_libc_csr:ta_CDLMATCHINGLOW.obj
 0004:00002130       $pdata$1$TA_CDLMATCHINGLOW 0000000180093130     ta_libc_csr:ta_CDLMATCHINGLOW.obj
 0004:0000213c       $pdata$11$TA_CDLMATCHINGLOW 000000018009313c     ta_libc_csr:ta_CDLMATCHINGLOW.obj
 0004:00002148       $pdata$12$TA_CDLMATCHINGLOW 0000000180093148     ta_libc_csr:ta_CDLMATCHINGLOW.obj
 0004:00002154       $pdata$3$TA_CDLMATCHINGLOW 0000000180093154     ta_libc_csr:ta_CDLMATCHINGLOW.obj
 0004:00002160       $pdata$13$TA_CDLMATCHINGLOW 0000000180093160     ta_libc_csr:ta_CDLMATCHINGLOW.obj
 0004:0000216c       $pdata$TA_CDLMATHOLD       000000018009316c     ta_libc_csr:ta_CDLMATHOLD.obj
 0004:00002178       $pdata$1$TA_CDLMATHOLD     0000000180093178     ta_libc_csr:ta_CDLMATHOLD.obj
 0004:00002184       $pdata$2$TA_CDLMATHOLD     0000000180093184     ta_libc_csr:ta_CDLMATHOLD.obj
 0004:00002190       $pdata$3$TA_CDLMATHOLD     0000000180093190     ta_libc_csr:ta_CDLMATHOLD.obj
 0004:0000219c       $pdata$4$TA_CDLMATHOLD     000000018009319c     ta_libc_csr:ta_CDLMATHOLD.obj
 0004:000021a8       $pdata$5$TA_CDLMATHOLD     00000001800931a8     ta_libc_csr:ta_CDLMATHOLD.obj
 0004:000021b4       $pdata$12$TA_CDLMATHOLD    00000001800931b4     ta_libc_csr:ta_CDLMATHOLD.obj
 0004:000021c0       $pdata$14$TA_CDLMATHOLD    00000001800931c0     ta_libc_csr:ta_CDLMATHOLD.obj
 0004:000021cc       $pdata$15$TA_CDLMATHOLD    00000001800931cc     ta_libc_csr:ta_CDLMATHOLD.obj
 0004:000021d8       $pdata$16$TA_CDLMATHOLD    00000001800931d8     ta_libc_csr:ta_CDLMATHOLD.obj
 0004:000021e4       $pdata$17$TA_CDLMATHOLD    00000001800931e4     ta_libc_csr:ta_CDLMATHOLD.obj
 0004:000021f0       $pdata$TA_CDLMORNINGDOJISTAR 00000001800931f0     ta_libc_csr:ta_CDLMORNINGDOJISTAR.obj
 0004:000021fc       $pdata$1$TA_CDLMORNINGDOJISTAR 00000001800931fc     ta_libc_csr:ta_CDLMORNINGDOJISTAR.obj
 0004:00002208       $pdata$3$TA_CDLMORNINGDOJISTAR 0000000180093208     ta_libc_csr:ta_CDLMORNINGDOJISTAR.obj
 0004:00002214       $pdata$4$TA_CDLMORNINGDOJISTAR 0000000180093214     ta_libc_csr:ta_CDLMORNINGDOJISTAR.obj
 0004:00002220       $pdata$5$TA_CDLMORNINGDOJISTAR 0000000180093220     ta_libc_csr:ta_CDLMORNINGDOJISTAR.obj
 0004:0000222c       $pdata$6$TA_CDLMORNINGDOJISTAR 000000018009322c     ta_libc_csr:ta_CDLMORNINGDOJISTAR.obj
 0004:00002238       $pdata$8$TA_CDLMORNINGDOJISTAR 0000000180093238     ta_libc_csr:ta_CDLMORNINGDOJISTAR.obj
 0004:00002244       $pdata$18$TA_CDLMORNINGDOJISTAR 0000000180093244     ta_libc_csr:ta_CDLMORNINGDOJISTAR.obj
 0004:00002250       $pdata$20$TA_CDLMORNINGDOJISTAR 0000000180093250     ta_libc_csr:ta_CDLMORNINGDOJISTAR.obj
 0004:0000225c       $pdata$21$TA_CDLMORNINGDOJISTAR 000000018009325c     ta_libc_csr:ta_CDLMORNINGDOJISTAR.obj
 0004:00002268       $pdata$22$TA_CDLMORNINGDOJISTAR 0000000180093268     ta_libc_csr:ta_CDLMORNINGDOJISTAR.obj
 0004:00002274       $pdata$TA_CDLMORNINGSTAR   0000000180093274     ta_libc_csr:ta_CDLMORNINGSTAR.obj
 0004:00002280       $pdata$1$TA_CDLMORNINGSTAR 0000000180093280     ta_libc_csr:ta_CDLMORNINGSTAR.obj
 0004:0000228c       $pdata$2$TA_CDLMORNINGSTAR 000000018009328c     ta_libc_csr:ta_CDLMORNINGSTAR.obj
 0004:00002298       $pdata$3$TA_CDLMORNINGSTAR 0000000180093298     ta_libc_csr:ta_CDLMORNINGSTAR.obj
 0004:000022a4       $pdata$5$TA_CDLMORNINGSTAR 00000001800932a4     ta_libc_csr:ta_CDLMORNINGSTAR.obj
 0004:000022b0       $pdata$14$TA_CDLMORNINGSTAR 00000001800932b0     ta_libc_csr:ta_CDLMORNINGSTAR.obj
 0004:000022bc       $pdata$16$TA_CDLMORNINGSTAR 00000001800932bc     ta_libc_csr:ta_CDLMORNINGSTAR.obj
 0004:000022c8       $pdata$17$TA_CDLMORNINGSTAR 00000001800932c8     ta_libc_csr:ta_CDLMORNINGSTAR.obj
 0004:000022d4       $pdata$18$TA_CDLMORNINGSTAR 00000001800932d4     ta_libc_csr:ta_CDLMORNINGSTAR.obj
 0004:000022e0       $pdata$19$TA_CDLMORNINGSTAR 00000001800932e0     ta_libc_csr:ta_CDLMORNINGSTAR.obj
 0004:000022ec       $pdata$TA_CDLONNECK        00000001800932ec     ta_libc_csr:ta_CDLONNECK.obj
 0004:000022f8       $pdata$1$TA_CDLONNECK      00000001800932f8     ta_libc_csr:ta_CDLONNECK.obj
 0004:00002304       $pdata$13$TA_CDLONNECK     0000000180093304     ta_libc_csr:ta_CDLONNECK.obj
 0004:00002310       $pdata$15$TA_CDLONNECK     0000000180093310     ta_libc_csr:ta_CDLONNECK.obj
 0004:0000231c       $pdata$3$TA_CDLONNECK      000000018009331c     ta_libc_csr:ta_CDLONNECK.obj
 0004:00002328       $pdata$16$TA_CDLONNECK     0000000180093328     ta_libc_csr:ta_CDLONNECK.obj
 0004:00002334       $pdata$TA_CDLPIERCING      0000000180093334     ta_libc_csr:ta_CDLPIERCING.obj
 0004:00002340       $pdata$1$TA_CDLPIERCING    0000000180093340     ta_libc_csr:ta_CDLPIERCING.obj
 0004:0000234c       $pdata$2$TA_CDLPIERCING    000000018009334c     ta_libc_csr:ta_CDLPIERCING.obj
 0004:00002358       $pdata$3$TA_CDLPIERCING    0000000180093358     ta_libc_csr:ta_CDLPIERCING.obj
 0004:00002364       $pdata$5$TA_CDLPIERCING    0000000180093364     ta_libc_csr:ta_CDLPIERCING.obj
 0004:00002370       $pdata$13$TA_CDLPIERCING   0000000180093370     ta_libc_csr:ta_CDLPIERCING.obj
 0004:0000237c       $pdata$15$TA_CDLPIERCING   000000018009337c     ta_libc_csr:ta_CDLPIERCING.obj
 0004:00002388       $pdata$17$TA_CDLPIERCING   0000000180093388     ta_libc_csr:ta_CDLPIERCING.obj
 0004:00002394       $pdata$18$TA_CDLPIERCING   0000000180093394     ta_libc_csr:ta_CDLPIERCING.obj
 0004:000023a0       $pdata$TA_CDLRICKSHAWMAN   00000001800933a0     ta_libc_csr:ta_CDLRICKSHAWMAN.obj
 0004:000023ac       $pdata$1$TA_CDLRICKSHAWMAN 00000001800933ac     ta_libc_csr:ta_CDLRICKSHAWMAN.obj
 0004:000023b8       $pdata$3$TA_CDLRICKSHAWMAN 00000001800933b8     ta_libc_csr:ta_CDLRICKSHAWMAN.obj
 0004:000023c4       $pdata$13$TA_CDLRICKSHAWMAN 00000001800933c4     ta_libc_csr:ta_CDLRICKSHAWMAN.obj
 0004:000023d0       $pdata$15$TA_CDLRICKSHAWMAN 00000001800933d0     ta_libc_csr:ta_CDLRICKSHAWMAN.obj
 0004:000023dc       $pdata$16$TA_CDLRICKSHAWMAN 00000001800933dc     ta_libc_csr:ta_CDLRICKSHAWMAN.obj
 0004:000023e8       $pdata$17$TA_CDLRICKSHAWMAN 00000001800933e8     ta_libc_csr:ta_CDLRICKSHAWMAN.obj
 0004:000023f4       $pdata$TA_CDLRISEFALL3METHODS 00000001800933f4     ta_libc_csr:ta_CDLRISEFALL3METHODS.obj
 0004:00002400       $pdata$1$TA_CDLRISEFALL3METHODS 0000000180093400     ta_libc_csr:ta_CDLRISEFALL3METHODS.obj
 0004:0000240c       $pdata$2$TA_CDLRISEFALL3METHODS 000000018009340c     ta_libc_csr:ta_CDLRISEFALL3METHODS.obj
 0004:00002418       $pdata$3$TA_CDLRISEFALL3METHODS 0000000180093418     ta_libc_csr:ta_CDLRISEFALL3METHODS.obj
 0004:00002424       $pdata$13$TA_CDLRISEFALL3METHODS 0000000180093424     ta_libc_csr:ta_CDLRISEFALL3METHODS.obj
 0004:00002430       $pdata$14$TA_CDLRISEFALL3METHODS 0000000180093430     ta_libc_csr:ta_CDLRISEFALL3METHODS.obj
 0004:0000243c       $pdata$15$TA_CDLRISEFALL3METHODS 000000018009343c     ta_libc_csr:ta_CDLRISEFALL3METHODS.obj
 0004:00002448       $pdata$TA_CDLSEPARATINGLINES 0000000180093448     ta_libc_csr:ta_CDLSEPARATINGLINES.obj
 0004:00002454       $pdata$1$TA_CDLSEPARATINGLINES 0000000180093454     ta_libc_csr:ta_CDLSEPARATINGLINES.obj
 0004:00002460       $pdata$14$TA_CDLSEPARATINGLINES 0000000180093460     ta_libc_csr:ta_CDLSEPARATINGLINES.obj
 0004:0000246c       $pdata$15$TA_CDLSEPARATINGLINES 000000018009346c     ta_libc_csr:ta_CDLSEPARATINGLINES.obj
 0004:00002478       $pdata$3$TA_CDLSEPARATINGLINES 0000000180093478     ta_libc_csr:ta_CDLSEPARATINGLINES.obj
 0004:00002484       $pdata$16$TA_CDLSEPARATINGLINES 0000000180093484     ta_libc_csr:ta_CDLSEPARATINGLINES.obj
 0004:00002490       $pdata$TA_CDLSHOOTINGSTAR  0000000180093490     ta_libc_csr:ta_CDLSHOOTINGSTAR.obj
 0004:0000249c       $pdata$1$TA_CDLSHOOTINGSTAR 000000018009349c     ta_libc_csr:ta_CDLSHOOTINGSTAR.obj
 0004:000024a8       $pdata$13$TA_CDLSHOOTINGSTAR 00000001800934a8     ta_libc_csr:ta_CDLSHOOTINGSTAR.obj
 0004:000024b4       $pdata$14$TA_CDLSHOOTINGSTAR 00000001800934b4     ta_libc_csr:ta_CDLSHOOTINGSTAR.obj
 0004:000024c0       $pdata$3$TA_CDLSHOOTINGSTAR 00000001800934c0     ta_libc_csr:ta_CDLSHOOTINGSTAR.obj
 0004:000024cc       $pdata$15$TA_CDLSHOOTINGSTAR 00000001800934cc     ta_libc_csr:ta_CDLSHOOTINGSTAR.obj
 0004:000024d8       $pdata$TA_CDLSHORTLINE     00000001800934d8     ta_libc_csr:ta_CDLSHORTLINE.obj
 0004:000024e4       $pdata$1$TA_CDLSHORTLINE   00000001800934e4     ta_libc_csr:ta_CDLSHORTLINE.obj
 0004:000024f0       $pdata$13$TA_CDLSHORTLINE  00000001800934f0     ta_libc_csr:ta_CDLSHORTLINE.obj
 0004:000024fc       $pdata$15$TA_CDLSHORTLINE  00000001800934fc     ta_libc_csr:ta_CDLSHORTLINE.obj
 0004:00002508       $pdata$3$TA_CDLSHORTLINE   0000000180093508     ta_libc_csr:ta_CDLSHORTLINE.obj
 0004:00002514       $pdata$16$TA_CDLSHORTLINE  0000000180093514     ta_libc_csr:ta_CDLSHORTLINE.obj
 0004:00002520       $pdata$TA_CDLSPINNINGTOP   0000000180093520     ta_libc_csr:ta_CDLSPINNINGTOP.obj
 0004:0000252c       $pdata$1$TA_CDLSPINNINGTOP 000000018009352c     ta_libc_csr:ta_CDLSPINNINGTOP.obj
 0004:00002538       $pdata$3$TA_CDLSPINNINGTOP 0000000180093538     ta_libc_csr:ta_CDLSPINNINGTOP.obj
 0004:00002544       $pdata$10$TA_CDLSPINNINGTOP 0000000180093544     ta_libc_csr:ta_CDLSPINNINGTOP.obj
 0004:00002550       $pdata$11$TA_CDLSPINNINGTOP 0000000180093550     ta_libc_csr:ta_CDLSPINNINGTOP.obj
 0004:0000255c       $pdata$12$TA_CDLSPINNINGTOP 000000018009355c     ta_libc_csr:ta_CDLSPINNINGTOP.obj
 0004:00002568       $pdata$13$TA_CDLSPINNINGTOP 0000000180093568     ta_libc_csr:ta_CDLSPINNINGTOP.obj
 0004:00002574       $pdata$TA_CDLSTALLEDPATTERN 0000000180093574     ta_libc_csr:ta_CDLSTALLEDPATTERN.obj
 0004:00002580       $pdata$1$TA_CDLSTALLEDPATTERN 0000000180093580     ta_libc_csr:ta_CDLSTALLEDPATTERN.obj
 0004:0000258c       $pdata$2$TA_CDLSTALLEDPATTERN 000000018009358c     ta_libc_csr:ta_CDLSTALLEDPATTERN.obj
 0004:00002598       $pdata$3$TA_CDLSTALLEDPATTERN 0000000180093598     ta_libc_csr:ta_CDLSTALLEDPATTERN.obj
 0004:000025a4       $pdata$11$TA_CDLSTALLEDPATTERN 00000001800935a4     ta_libc_csr:ta_CDLSTALLEDPATTERN.obj
 0004:000025b0       $pdata$13$TA_CDLSTALLEDPATTERN 00000001800935b0     ta_libc_csr:ta_CDLSTALLEDPATTERN.obj
 0004:000025bc       $pdata$14$TA_CDLSTALLEDPATTERN 00000001800935bc     ta_libc_csr:ta_CDLSTALLEDPATTERN.obj
 0004:000025c8       $pdata$15$TA_CDLSTALLEDPATTERN 00000001800935c8     ta_libc_csr:ta_CDLSTALLEDPATTERN.obj
 0004:000025d4       $pdata$TA_CDLSTICKSANDWICH 00000001800935d4     ta_libc_csr:ta_CDLSTICKSANDWICH.obj
 0004:000025e0       $pdata$1$TA_CDLSTICKSANDWICH 00000001800935e0     ta_libc_csr:ta_CDLSTICKSANDWICH.obj
 0004:000025ec       $pdata$10$TA_CDLSTICKSANDWICH 00000001800935ec     ta_libc_csr:ta_CDLSTICKSANDWICH.obj
 0004:000025f8       $pdata$12$TA_CDLSTICKSANDWICH 00000001800935f8     ta_libc_csr:ta_CDLSTICKSANDWICH.obj
 0004:00002604       $pdata$3$TA_CDLSTICKSANDWICH 0000000180093604     ta_libc_csr:ta_CDLSTICKSANDWICH.obj
 0004:00002610       $pdata$13$TA_CDLSTICKSANDWICH 0000000180093610     ta_libc_csr:ta_CDLSTICKSANDWICH.obj
 0004:0000261c       $pdata$TA_CDLTAKURI        000000018009361c     ta_libc_csr:ta_CDLTAKURI.obj
 0004:00002628       $pdata$1$TA_CDLTAKURI      0000000180093628     ta_libc_csr:ta_CDLTAKURI.obj
 0004:00002634       $pdata$13$TA_CDLTAKURI     0000000180093634     ta_libc_csr:ta_CDLTAKURI.obj
 0004:00002640       $pdata$14$TA_CDLTAKURI     0000000180093640     ta_libc_csr:ta_CDLTAKURI.obj
 0004:0000264c       $pdata$3$TA_CDLTAKURI      000000018009364c     ta_libc_csr:ta_CDLTAKURI.obj
 0004:00002658       $pdata$15$TA_CDLTAKURI     0000000180093658     ta_libc_csr:ta_CDLTAKURI.obj
 0004:00002664       $pdata$TA_CDLTASUKIGAP     0000000180093664     ta_libc_csr:ta_CDLTASUKIGAP.obj
 0004:00002670       $pdata$1$TA_CDLTASUKIGAP   0000000180093670     ta_libc_csr:ta_CDLTASUKIGAP.obj
 0004:0000267c       $pdata$13$TA_CDLTASUKIGAP  000000018009367c     ta_libc_csr:ta_CDLTASUKIGAP.obj
 0004:00002688       $pdata$14$TA_CDLTASUKIGAP  0000000180093688     ta_libc_csr:ta_CDLTASUKIGAP.obj
 0004:00002694       $pdata$3$TA_CDLTASUKIGAP   0000000180093694     ta_libc_csr:ta_CDLTASUKIGAP.obj
 0004:000026a0       $pdata$15$TA_CDLTASUKIGAP  00000001800936a0     ta_libc_csr:ta_CDLTASUKIGAP.obj
 0004:000026ac       $pdata$TA_CDLTHRUSTING     00000001800936ac     ta_libc_csr:ta_CDLTHRUSTING.obj
 0004:000026b8       $pdata$1$TA_CDLTHRUSTING   00000001800936b8     ta_libc_csr:ta_CDLTHRUSTING.obj
 0004:000026c4       $pdata$12$TA_CDLTHRUSTING  00000001800936c4     ta_libc_csr:ta_CDLTHRUSTING.obj
 0004:000026d0       $pdata$13$TA_CDLTHRUSTING  00000001800936d0     ta_libc_csr:ta_CDLTHRUSTING.obj
 0004:000026dc       $pdata$3$TA_CDLTHRUSTING   00000001800936dc     ta_libc_csr:ta_CDLTHRUSTING.obj
 0004:000026e8       $pdata$14$TA_CDLTHRUSTING  00000001800936e8     ta_libc_csr:ta_CDLTHRUSTING.obj
 0004:000026f4       $pdata$TA_CDLTRISTAR       00000001800936f4     ta_libc_csr:ta_CDLTRISTAR.obj
 0004:00002700       $pdata$1$TA_CDLTRISTAR     0000000180093700     ta_libc_csr:ta_CDLTRISTAR.obj
 0004:0000270c       $pdata$3$TA_CDLTRISTAR     000000018009370c     ta_libc_csr:ta_CDLTRISTAR.obj
 0004:00002718       $pdata$13$TA_CDLTRISTAR    0000000180093718     ta_libc_csr:ta_CDLTRISTAR.obj
 0004:00002724       $pdata$14$TA_CDLTRISTAR    0000000180093724     ta_libc_csr:ta_CDLTRISTAR.obj
 0004:00002730       $pdata$15$TA_CDLTRISTAR    0000000180093730     ta_libc_csr:ta_CDLTRISTAR.obj
 0004:0000273c       $pdata$TA_CDLUNIQUE3RIVER  000000018009373c     ta_libc_csr:ta_CDLUNIQUE3RIVER.obj
 0004:00002748       $pdata$1$TA_CDLUNIQUE3RIVER 0000000180093748     ta_libc_csr:ta_CDLUNIQUE3RIVER.obj
 0004:00002754       $pdata$3$TA_CDLUNIQUE3RIVER 0000000180093754     ta_libc_csr:ta_CDLUNIQUE3RIVER.obj
 0004:00002760       $pdata$11$TA_CDLUNIQUE3RIVER 0000000180093760     ta_libc_csr:ta_CDLUNIQUE3RIVER.obj
 0004:0000276c       $pdata$12$TA_CDLUNIQUE3RIVER 000000018009376c     ta_libc_csr:ta_CDLUNIQUE3RIVER.obj
 0004:00002778       $pdata$13$TA_CDLUNIQUE3RIVER 0000000180093778     ta_libc_csr:ta_CDLUNIQUE3RIVER.obj
 0004:00002784       $pdata$TA_CDLUPSIDEGAP2CROWS 0000000180093784     ta_libc_csr:ta_CDLUPSIDEGAP2CROWS.obj
 0004:00002790       $pdata$1$TA_CDLUPSIDEGAP2CROWS 0000000180093790     ta_libc_csr:ta_CDLUPSIDEGAP2CROWS.obj
 0004:0000279c       $pdata$3$TA_CDLUPSIDEGAP2CROWS 000000018009379c     ta_libc_csr:ta_CDLUPSIDEGAP2CROWS.obj
 0004:000027a8       $pdata$12$TA_CDLUPSIDEGAP2CROWS 00000001800937a8     ta_libc_csr:ta_CDLUPSIDEGAP2CROWS.obj
 0004:000027b4       $pdata$13$TA_CDLUPSIDEGAP2CROWS 00000001800937b4     ta_libc_csr:ta_CDLUPSIDEGAP2CROWS.obj
 0004:000027c0       $pdata$14$TA_CDLUPSIDEGAP2CROWS 00000001800937c0     ta_libc_csr:ta_CDLUPSIDEGAP2CROWS.obj
 0004:000027cc       $pdata$TA_CDLXSIDEGAP3METHODS 00000001800937cc     ta_libc_csr:ta_CDLXSIDEGAP3METHODS.obj
 0004:000027d8       $pdata$1$TA_CDLXSIDEGAP3METHODS 00000001800937d8     ta_libc_csr:ta_CDLXSIDEGAP3METHODS.obj
 0004:000027e4       $pdata$3$TA_CDLXSIDEGAP3METHODS 00000001800937e4     ta_libc_csr:ta_CDLXSIDEGAP3METHODS.obj
 0004:000027f0       $pdata$7$TA_CDLXSIDEGAP3METHODS 00000001800937f0     ta_libc_csr:ta_CDLXSIDEGAP3METHODS.obj
 0004:000027fc       $pdata$9$TA_CDLXSIDEGAP3METHODS 00000001800937fc     ta_libc_csr:ta_CDLXSIDEGAP3METHODS.obj
 0004:00002808       $pdata$10$TA_CDLXSIDEGAP3METHODS 0000000180093808     ta_libc_csr:ta_CDLXSIDEGAP3METHODS.obj
 0004:00002814       $pdata$TA_CEIL             0000000180093814     ta_libc_csr:ta_CEIL.obj
 0004:00002820       $pdata$0$TA_CEIL           0000000180093820     ta_libc_csr:ta_CEIL.obj
 0004:0000282c       $pdata$3$TA_CEIL           000000018009382c     ta_libc_csr:ta_CEIL.obj
 0004:00002838       $pdata$5$TA_CEIL           0000000180093838     ta_libc_csr:ta_CEIL.obj
 0004:00002844       $pdata$6$TA_CEIL           0000000180093844     ta_libc_csr:ta_CEIL.obj
 0004:00002850       $pdata$7$TA_CEIL           0000000180093850     ta_libc_csr:ta_CEIL.obj
 0004:0000285c       $pdata$TA_CMO              000000018009385c     ta_libc_csr:ta_CMO.obj
 0004:00002868       $pdata$0$TA_CMO            0000000180093868     ta_libc_csr:ta_CMO.obj
 0004:00002874       $pdata$5$TA_CMO            0000000180093874     ta_libc_csr:ta_CMO.obj
 0004:00002880       $pdata$9$TA_CMO            0000000180093880     ta_libc_csr:ta_CMO.obj
 0004:0000288c       $pdata$10$TA_CMO           000000018009388c     ta_libc_csr:ta_CMO.obj
 0004:00002898       $pdata$12$TA_CMO           0000000180093898     ta_libc_csr:ta_CMO.obj
 0004:000028a4       $pdata$13$TA_CMO           00000001800938a4     ta_libc_csr:ta_CMO.obj
 0004:000028b0       $pdata$15$TA_CMO           00000001800938b0     ta_libc_csr:ta_CMO.obj
 0004:000028bc       $pdata$TA_CORREL           00000001800938bc     ta_libc_csr:ta_CORREL.obj
 0004:000028c8       $pdata$0$TA_CORREL         00000001800938c8     ta_libc_csr:ta_CORREL.obj
 0004:000028d4       $pdata$1$TA_CORREL         00000001800938d4     ta_libc_csr:ta_CORREL.obj
 0004:000028e0       $pdata$2$TA_CORREL         00000001800938e0     ta_libc_csr:ta_CORREL.obj
 0004:000028ec       $pdata$16$TA_CORREL        00000001800938ec     ta_libc_csr:ta_CORREL.obj
 0004:000028f8       $pdata$17$TA_CORREL        00000001800938f8     ta_libc_csr:ta_CORREL.obj
 0004:00002904       $pdata$18$TA_CORREL        0000000180093904     ta_libc_csr:ta_CORREL.obj
 0004:00002910       $pdata$TA_COS              0000000180093910     ta_libc_csr:ta_COS.obj
 0004:0000291c       $pdata$0$TA_COS            000000018009391c     ta_libc_csr:ta_COS.obj
 0004:00002928       $pdata$3$TA_COS            0000000180093928     ta_libc_csr:ta_COS.obj
 0004:00002934       $pdata$5$TA_COS            0000000180093934     ta_libc_csr:ta_COS.obj
 0004:00002940       $pdata$6$TA_COS            0000000180093940     ta_libc_csr:ta_COS.obj
 0004:0000294c       $pdata$7$TA_COS            000000018009394c     ta_libc_csr:ta_COS.obj
 0004:00002958       $pdata$TA_COSH             0000000180093958     ta_libc_csr:ta_COSH.obj
 0004:00002964       $pdata$0$TA_COSH           0000000180093964     ta_libc_csr:ta_COSH.obj
 0004:00002970       $pdata$3$TA_COSH           0000000180093970     ta_libc_csr:ta_COSH.obj
 0004:0000297c       $pdata$5$TA_COSH           000000018009397c     ta_libc_csr:ta_COSH.obj
 0004:00002988       $pdata$6$TA_COSH           0000000180093988     ta_libc_csr:ta_COSH.obj
 0004:00002994       $pdata$7$TA_COSH           0000000180093994     ta_libc_csr:ta_COSH.obj
 0004:000029a0       $pdata$TA_DEMA             00000001800939a0     ta_libc_csr:ta_DEMA.obj
 0004:000029ac       $pdata$0$TA_DEMA           00000001800939ac     ta_libc_csr:ta_DEMA.obj
 0004:000029b8       $pdata$2$TA_DEMA           00000001800939b8     ta_libc_csr:ta_DEMA.obj
 0004:000029c4       $pdata$3$TA_DEMA           00000001800939c4     ta_libc_csr:ta_DEMA.obj
 0004:000029d0       $pdata$4$TA_DEMA           00000001800939d0     ta_libc_csr:ta_DEMA.obj
 0004:000029dc       $pdata$5$TA_DEMA           00000001800939dc     ta_libc_csr:ta_DEMA.obj
 0004:000029e8       $pdata$6$TA_DEMA           00000001800939e8     ta_libc_csr:ta_DEMA.obj
 0004:000029f4       $pdata$7$TA_DEMA           00000001800939f4     ta_libc_csr:ta_DEMA.obj
 0004:00002a00       $pdata$9$TA_DEMA           0000000180093a00     ta_libc_csr:ta_DEMA.obj
 0004:00002a0c       $pdata$10$TA_DEMA          0000000180093a0c     ta_libc_csr:ta_DEMA.obj
 0004:00002a18       $pdata$11$TA_DEMA          0000000180093a18     ta_libc_csr:ta_DEMA.obj
 0004:00002a24       $pdata$TA_DEMA_Lookback    0000000180093a24     ta_libc_csr:ta_DEMA.obj
 0004:00002a30       $pdata$TA_DIV              0000000180093a30     ta_libc_csr:ta_DIV.obj
 0004:00002a3c       $pdata$0$TA_DIV            0000000180093a3c     ta_libc_csr:ta_DIV.obj
 0004:00002a48       $pdata$3$TA_DIV            0000000180093a48     ta_libc_csr:ta_DIV.obj
 0004:00002a54       $pdata$5$TA_DIV            0000000180093a54     ta_libc_csr:ta_DIV.obj
 0004:00002a60       $pdata$6$TA_DIV            0000000180093a60     ta_libc_csr:ta_DIV.obj
 0004:00002a6c       $pdata$7$TA_DIV            0000000180093a6c     ta_libc_csr:ta_DIV.obj
 0004:00002a78       $pdata$TA_DX               0000000180093a78     ta_libc_csr:ta_DX.obj
 0004:00002a84       $pdata$0$TA_DX             0000000180093a84     ta_libc_csr:ta_DX.obj
 0004:00002a90       $pdata$1$TA_DX             0000000180093a90     ta_libc_csr:ta_DX.obj
 0004:00002a9c       $pdata$2$TA_DX             0000000180093a9c     ta_libc_csr:ta_DX.obj
 0004:00002aa8       $pdata$4$TA_DX             0000000180093aa8     ta_libc_csr:ta_DX.obj
 0004:00002ab4       $pdata$12$TA_DX            0000000180093ab4     ta_libc_csr:ta_DX.obj
 0004:00002ac0       $pdata$13$TA_DX            0000000180093ac0     ta_libc_csr:ta_DX.obj
 0004:00002acc       $pdata$14$TA_DX            0000000180093acc     ta_libc_csr:ta_DX.obj
 0004:00002ad8       $pdata$15$TA_DX            0000000180093ad8     ta_libc_csr:ta_DX.obj
 0004:00002ae4       $pdata$17$TA_DX            0000000180093ae4     ta_libc_csr:ta_DX.obj
 0004:00002af0       $pdata$18$TA_DX            0000000180093af0     ta_libc_csr:ta_DX.obj
 0004:00002afc       $pdata$TA_EMA              0000000180093afc     ta_libc_csr:ta_EMA.obj
 0004:00002b08       $pdata$TA_INT_EMA          0000000180093b08     ta_libc_csr:ta_EMA.obj
 0004:00002b14       $pdata$TA_EXP              0000000180093b14     ta_libc_csr:ta_EXP.obj
 0004:00002b20       $pdata$0$TA_EXP            0000000180093b20     ta_libc_csr:ta_EXP.obj
 0004:00002b2c       $pdata$3$TA_EXP            0000000180093b2c     ta_libc_csr:ta_EXP.obj
 0004:00002b38       $pdata$5$TA_EXP            0000000180093b38     ta_libc_csr:ta_EXP.obj
 0004:00002b44       $pdata$6$TA_EXP            0000000180093b44     ta_libc_csr:ta_EXP.obj
 0004:00002b50       $pdata$7$TA_EXP            0000000180093b50     ta_libc_csr:ta_EXP.obj
 0004:00002b5c       $pdata$TA_FLOOR            0000000180093b5c     ta_libc_csr:ta_FLOOR.obj
 0004:00002b68       $pdata$0$TA_FLOOR          0000000180093b68     ta_libc_csr:ta_FLOOR.obj
 0004:00002b74       $pdata$3$TA_FLOOR          0000000180093b74     ta_libc_csr:ta_FLOOR.obj
 0004:00002b80       $pdata$5$TA_FLOOR          0000000180093b80     ta_libc_csr:ta_FLOOR.obj
 0004:00002b8c       $pdata$6$TA_FLOOR          0000000180093b8c     ta_libc_csr:ta_FLOOR.obj
 0004:00002b98       $pdata$7$TA_FLOOR          0000000180093b98     ta_libc_csr:ta_FLOOR.obj
 0004:00002ba4       $pdata$TA_HT_DCPERIOD      0000000180093ba4     ta_libc_csr:ta_HT_DCPERIOD.obj
 0004:00002bb0       $pdata$7$TA_HT_DCPERIOD    0000000180093bb0     ta_libc_csr:ta_HT_DCPERIOD.obj
 0004:00002bbc       $pdata$10$TA_HT_DCPERIOD   0000000180093bbc     ta_libc_csr:ta_HT_DCPERIOD.obj
 0004:00002bc8       $pdata$11$TA_HT_DCPERIOD   0000000180093bc8     ta_libc_csr:ta_HT_DCPERIOD.obj
 0004:00002bd4       $pdata$12$TA_HT_DCPERIOD   0000000180093bd4     ta_libc_csr:ta_HT_DCPERIOD.obj
 0004:00002be0       $pdata$TA_HT_DCPHASE       0000000180093be0     ta_libc_csr:ta_HT_DCPHASE.obj
 0004:00002bec       $pdata$0$TA_HT_DCPHASE     0000000180093bec     ta_libc_csr:ta_HT_DCPHASE.obj
 0004:00002bf8       $pdata$1$TA_HT_DCPHASE     0000000180093bf8     ta_libc_csr:ta_HT_DCPHASE.obj
 0004:00002c04       $pdata$2$TA_HT_DCPHASE     0000000180093c04     ta_libc_csr:ta_HT_DCPHASE.obj
 0004:00002c10       $pdata$10$TA_HT_DCPHASE    0000000180093c10     ta_libc_csr:ta_HT_DCPHASE.obj
 0004:00002c1c       $pdata$13$TA_HT_DCPHASE    0000000180093c1c     ta_libc_csr:ta_HT_DCPHASE.obj
 0004:00002c28       $pdata$14$TA_HT_DCPHASE    0000000180093c28     ta_libc_csr:ta_HT_DCPHASE.obj
 0004:00002c34       $pdata$16$TA_HT_DCPHASE    0000000180093c34     ta_libc_csr:ta_HT_DCPHASE.obj
 0004:00002c40       $pdata$17$TA_HT_DCPHASE    0000000180093c40     ta_libc_csr:ta_HT_DCPHASE.obj
 0004:00002c4c       $pdata$TA_HT_PHASOR        0000000180093c4c     ta_libc_csr:ta_HT_PHASOR.obj
 0004:00002c58       $pdata$6$TA_HT_PHASOR      0000000180093c58     ta_libc_csr:ta_HT_PHASOR.obj
 0004:00002c64       $pdata$10$TA_HT_PHASOR     0000000180093c64     ta_libc_csr:ta_HT_PHASOR.obj
 0004:00002c70       $pdata$11$TA_HT_PHASOR     0000000180093c70     ta_libc_csr:ta_HT_PHASOR.obj
 0004:00002c7c       $pdata$12$TA_HT_PHASOR     0000000180093c7c     ta_libc_csr:ta_HT_PHASOR.obj
 0004:00002c88       $pdata$TA_HT_SINE          0000000180093c88     ta_libc_csr:ta_HT_SINE.obj
 0004:00002c94       $pdata$1$TA_HT_SINE        0000000180093c94     ta_libc_csr:ta_HT_SINE.obj
 0004:00002ca0       $pdata$2$TA_HT_SINE        0000000180093ca0     ta_libc_csr:ta_HT_SINE.obj
 0004:00002cac       $pdata$3$TA_HT_SINE        0000000180093cac     ta_libc_csr:ta_HT_SINE.obj
 0004:00002cb8       $pdata$11$TA_HT_SINE       0000000180093cb8     ta_libc_csr:ta_HT_SINE.obj
 0004:00002cc4       $pdata$12$TA_HT_SINE       0000000180093cc4     ta_libc_csr:ta_HT_SINE.obj
 0004:00002cd0       $pdata$13$TA_HT_SINE       0000000180093cd0     ta_libc_csr:ta_HT_SINE.obj
 0004:00002cdc       $pdata$15$TA_HT_SINE       0000000180093cdc     ta_libc_csr:ta_HT_SINE.obj
 0004:00002ce8       $pdata$TA_HT_TRENDLINE     0000000180093ce8     ta_libc_csr:ta_HT_TRENDLINE.obj
 0004:00002cf4       $pdata$3$TA_HT_TRENDLINE   0000000180093cf4     ta_libc_csr:ta_HT_TRENDLINE.obj
 0004:00002d00       $pdata$4$TA_HT_TRENDLINE   0000000180093d00     ta_libc_csr:ta_HT_TRENDLINE.obj
 0004:00002d0c       $pdata$5$TA_HT_TRENDLINE   0000000180093d0c     ta_libc_csr:ta_HT_TRENDLINE.obj
 0004:00002d18       $pdata$11$TA_HT_TRENDLINE  0000000180093d18     ta_libc_csr:ta_HT_TRENDLINE.obj
 0004:00002d24       $pdata$13$TA_HT_TRENDLINE  0000000180093d24     ta_libc_csr:ta_HT_TRENDLINE.obj
 0004:00002d30       $pdata$14$TA_HT_TRENDLINE  0000000180093d30     ta_libc_csr:ta_HT_TRENDLINE.obj
 0004:00002d3c       $pdata$16$TA_HT_TRENDLINE  0000000180093d3c     ta_libc_csr:ta_HT_TRENDLINE.obj
 0004:00002d48       $pdata$TA_HT_TRENDMODE     0000000180093d48     ta_libc_csr:ta_HT_TRENDMODE.obj
 0004:00002d54       $pdata$1$TA_HT_TRENDMODE   0000000180093d54     ta_libc_csr:ta_HT_TRENDMODE.obj
 0004:00002d60       $pdata$2$TA_HT_TRENDMODE   0000000180093d60     ta_libc_csr:ta_HT_TRENDMODE.obj
 0004:00002d6c       $pdata$3$TA_HT_TRENDMODE   0000000180093d6c     ta_libc_csr:ta_HT_TRENDMODE.obj
 0004:00002d78       $pdata$11$TA_HT_TRENDMODE  0000000180093d78     ta_libc_csr:ta_HT_TRENDMODE.obj
 0004:00002d84       $pdata$12$TA_HT_TRENDMODE  0000000180093d84     ta_libc_csr:ta_HT_TRENDMODE.obj
 0004:00002d90       $pdata$13$TA_HT_TRENDMODE  0000000180093d90     ta_libc_csr:ta_HT_TRENDMODE.obj
 0004:00002d9c       $pdata$15$TA_HT_TRENDMODE  0000000180093d9c     ta_libc_csr:ta_HT_TRENDMODE.obj
 0004:00002da8       $pdata$TA_IMI              0000000180093da8     ta_libc_csr:ta_IMI.obj
 0004:00002db4       $pdata$0$TA_IMI            0000000180093db4     ta_libc_csr:ta_IMI.obj
 0004:00002dc0       $pdata$1$TA_IMI            0000000180093dc0     ta_libc_csr:ta_IMI.obj
 0004:00002dcc       $pdata$2$TA_IMI            0000000180093dcc     ta_libc_csr:ta_IMI.obj
 0004:00002dd8       $pdata$3$TA_IMI            0000000180093dd8     ta_libc_csr:ta_IMI.obj
 0004:00002de4       $pdata$4$TA_IMI            0000000180093de4     ta_libc_csr:ta_IMI.obj
 0004:00002df0       $pdata$5$TA_IMI            0000000180093df0     ta_libc_csr:ta_IMI.obj
 0004:00002dfc       $pdata$TA_KAMA             0000000180093dfc     ta_libc_csr:ta_KAMA.obj
 0004:00002e08       $pdata$0$TA_KAMA           0000000180093e08     ta_libc_csr:ta_KAMA.obj
 0004:00002e14       $pdata$4$TA_KAMA           0000000180093e14     ta_libc_csr:ta_KAMA.obj
 0004:00002e20       $pdata$6$TA_KAMA           0000000180093e20     ta_libc_csr:ta_KAMA.obj
 0004:00002e2c       $pdata$15$TA_KAMA          0000000180093e2c     ta_libc_csr:ta_KAMA.obj
 0004:00002e38       $pdata$16$TA_KAMA          0000000180093e38     ta_libc_csr:ta_KAMA.obj
 0004:00002e44       $pdata$17$TA_KAMA          0000000180093e44     ta_libc_csr:ta_KAMA.obj
 0004:00002e50       $pdata$18$TA_KAMA          0000000180093e50     ta_libc_csr:ta_KAMA.obj
 0004:00002e5c       $pdata$19$TA_KAMA          0000000180093e5c     ta_libc_csr:ta_KAMA.obj
 0004:00002e68       $pdata$21$TA_KAMA          0000000180093e68     ta_libc_csr:ta_KAMA.obj
 0004:00002e74       $pdata$TA_LINEARREG        0000000180093e74     ta_libc_csr:ta_LINEARREG.obj
 0004:00002e80       $pdata$0$TA_LINEARREG      0000000180093e80     ta_libc_csr:ta_LINEARREG.obj
 0004:00002e8c       $pdata$1$TA_LINEARREG      0000000180093e8c     ta_libc_csr:ta_LINEARREG.obj
 0004:00002e98       $pdata$2$TA_LINEARREG      0000000180093e98     ta_libc_csr:ta_LINEARREG.obj
 0004:00002ea4       $pdata$3$TA_LINEARREG      0000000180093ea4     ta_libc_csr:ta_LINEARREG.obj
 0004:00002eb0       $pdata$4$TA_LINEARREG      0000000180093eb0     ta_libc_csr:ta_LINEARREG.obj
 0004:00002ebc       $pdata$5$TA_LINEARREG      0000000180093ebc     ta_libc_csr:ta_LINEARREG.obj
 0004:00002ec8       $pdata$7$TA_LINEARREG      0000000180093ec8     ta_libc_csr:ta_LINEARREG.obj
 0004:00002ed4       $pdata$TA_LINEARREG_ANGLE  0000000180093ed4     ta_libc_csr:ta_LINEARREG_ANGLE.obj
 0004:00002ee0       $pdata$0$TA_LINEARREG_ANGLE 0000000180093ee0     ta_libc_csr:ta_LINEARREG_ANGLE.obj
 0004:00002eec       $pdata$1$TA_LINEARREG_ANGLE 0000000180093eec     ta_libc_csr:ta_LINEARREG_ANGLE.obj
 0004:00002ef8       $pdata$2$TA_LINEARREG_ANGLE 0000000180093ef8     ta_libc_csr:ta_LINEARREG_ANGLE.obj
 0004:00002f04       $pdata$7$TA_LINEARREG_ANGLE 0000000180093f04     ta_libc_csr:ta_LINEARREG_ANGLE.obj
 0004:00002f10       $pdata$8$TA_LINEARREG_ANGLE 0000000180093f10     ta_libc_csr:ta_LINEARREG_ANGLE.obj
 0004:00002f1c       $pdata$9$TA_LINEARREG_ANGLE 0000000180093f1c     ta_libc_csr:ta_LINEARREG_ANGLE.obj
 0004:00002f28       $pdata$10$TA_LINEARREG_ANGLE 0000000180093f28     ta_libc_csr:ta_LINEARREG_ANGLE.obj
 0004:00002f34       $pdata$TA_LINEARREG_INTERCEPT 0000000180093f34     ta_libc_csr:ta_LINEARREG_INTERCEPT.obj
 0004:00002f40       $pdata$0$TA_LINEARREG_INTERCEPT 0000000180093f40     ta_libc_csr:ta_LINEARREG_INTERCEPT.obj
 0004:00002f4c       $pdata$1$TA_LINEARREG_INTERCEPT 0000000180093f4c     ta_libc_csr:ta_LINEARREG_INTERCEPT.obj
 0004:00002f58       $pdata$2$TA_LINEARREG_INTERCEPT 0000000180093f58     ta_libc_csr:ta_LINEARREG_INTERCEPT.obj
 0004:00002f64       $pdata$3$TA_LINEARREG_INTERCEPT 0000000180093f64     ta_libc_csr:ta_LINEARREG_INTERCEPT.obj
 0004:00002f70       $pdata$5$TA_LINEARREG_INTERCEPT 0000000180093f70     ta_libc_csr:ta_LINEARREG_INTERCEPT.obj
 0004:00002f7c       $pdata$TA_LINEARREG_SLOPE  0000000180093f7c     ta_libc_csr:ta_LINEARREG_SLOPE.obj
 0004:00002f88       $pdata$0$TA_LINEARREG_SLOPE 0000000180093f88     ta_libc_csr:ta_LINEARREG_SLOPE.obj
 0004:00002f94       $pdata$1$TA_LINEARREG_SLOPE 0000000180093f94     ta_libc_csr:ta_LINEARREG_SLOPE.obj
 0004:00002fa0       $pdata$2$TA_LINEARREG_SLOPE 0000000180093fa0     ta_libc_csr:ta_LINEARREG_SLOPE.obj
 0004:00002fac       $pdata$3$TA_LINEARREG_SLOPE 0000000180093fac     ta_libc_csr:ta_LINEARREG_SLOPE.obj
 0004:00002fb8       $pdata$5$TA_LINEARREG_SLOPE 0000000180093fb8     ta_libc_csr:ta_LINEARREG_SLOPE.obj
 0004:00002fc4       $pdata$TA_LN               0000000180093fc4     ta_libc_csr:ta_LN.obj
 0004:00002fd0       $pdata$0$TA_LN             0000000180093fd0     ta_libc_csr:ta_LN.obj
 0004:00002fdc       $pdata$3$TA_LN             0000000180093fdc     ta_libc_csr:ta_LN.obj
 0004:00002fe8       $pdata$5$TA_LN             0000000180093fe8     ta_libc_csr:ta_LN.obj
 0004:00002ff4       $pdata$6$TA_LN             0000000180093ff4     ta_libc_csr:ta_LN.obj
 0004:00003000       $pdata$7$TA_LN             0000000180094000     ta_libc_csr:ta_LN.obj
 0004:0000300c       $pdata$TA_LOG10            000000018009400c     ta_libc_csr:ta_LOG10.obj
 0004:00003018       $pdata$0$TA_LOG10          0000000180094018     ta_libc_csr:ta_LOG10.obj
 0004:00003024       $pdata$3$TA_LOG10          0000000180094024     ta_libc_csr:ta_LOG10.obj
 0004:00003030       $pdata$5$TA_LOG10          0000000180094030     ta_libc_csr:ta_LOG10.obj
 0004:0000303c       $pdata$6$TA_LOG10          000000018009403c     ta_libc_csr:ta_LOG10.obj
 0004:00003048       $pdata$7$TA_LOG10          0000000180094048     ta_libc_csr:ta_LOG10.obj
 0004:00003054       $pdata$TA_MA               0000000180094054     ta_libc_csr:ta_MA.obj
 0004:00003060       $pdata$0$TA_MA             0000000180094060     ta_libc_csr:ta_MA.obj
 0004:0000306c       $pdata$1$TA_MA             000000018009406c     ta_libc_csr:ta_MA.obj
 0004:00003078       $pdata$2$TA_MA             0000000180094078     ta_libc_csr:ta_MA.obj
 0004:00003084       $pdata$4$TA_MA             0000000180094084     ta_libc_csr:ta_MA.obj
 0004:00003090       $pdata$5$TA_MA             0000000180094090     ta_libc_csr:ta_MA.obj
 0004:0000309c       $pdata$TA_MA_Lookback      000000018009409c     ta_libc_csr:ta_MA.obj
 0004:000030a8       $pdata$TA_INT_MACD         00000001800940a8     ta_libc_csr:ta_MACD.obj
 0004:000030b4       $pdata$3$TA_INT_MACD       00000001800940b4     ta_libc_csr:ta_MACD.obj
 0004:000030c0       $pdata$4$TA_INT_MACD       00000001800940c0     ta_libc_csr:ta_MACD.obj
 0004:000030cc       $pdata$5$TA_INT_MACD       00000001800940cc     ta_libc_csr:ta_MACD.obj
 0004:000030d8       $pdata$6$TA_INT_MACD       00000001800940d8     ta_libc_csr:ta_MACD.obj
 0004:000030e4       $pdata$TA_MACD             00000001800940e4     ta_libc_csr:ta_MACD.obj
 0004:000030f0       $pdata$0$TA_MACD           00000001800940f0     ta_libc_csr:ta_MACD.obj
 0004:000030fc       $pdata$2$TA_MACD           00000001800940fc     ta_libc_csr:ta_MACD.obj
 0004:00003108       $pdata$3$TA_MACD           0000000180094108     ta_libc_csr:ta_MACD.obj
 0004:00003114       $pdata$TA_MACD_Lookback    0000000180094114     ta_libc_csr:ta_MACD.obj
 0004:00003120       $pdata$0$TA_MACD_Lookback  0000000180094120     ta_libc_csr:ta_MACD.obj
 0004:0000312c       $pdata$1$TA_MACD_Lookback  000000018009412c     ta_libc_csr:ta_MACD.obj
 0004:00003138       $pdata$TA_MACDEXT          0000000180094138     ta_libc_csr:ta_MACDEXT.obj
 0004:00003144       $pdata$1$TA_MACDEXT        0000000180094144     ta_libc_csr:ta_MACDEXT.obj
 0004:00003150       $pdata$2$TA_MACDEXT        0000000180094150     ta_libc_csr:ta_MACDEXT.obj
 0004:0000315c       $pdata$3$TA_MACDEXT        000000018009415c     ta_libc_csr:ta_MACDEXT.obj
 0004:00003168       $pdata$4$TA_MACDEXT        0000000180094168     ta_libc_csr:ta_MACDEXT.obj
 0004:00003174       $pdata$5$TA_MACDEXT        0000000180094174     ta_libc_csr:ta_MACDEXT.obj
 0004:00003180       $pdata$6$TA_MACDEXT        0000000180094180     ta_libc_csr:ta_MACDEXT.obj
 0004:0000318c       $pdata$7$TA_MACDEXT        000000018009418c     ta_libc_csr:ta_MACDEXT.obj
 0004:00003198       $pdata$8$TA_MACDEXT        0000000180094198     ta_libc_csr:ta_MACDEXT.obj
 0004:000031a4       $pdata$9$TA_MACDEXT        00000001800941a4     ta_libc_csr:ta_MACDEXT.obj
 0004:000031b0       $pdata$10$TA_MACDEXT       00000001800941b0     ta_libc_csr:ta_MACDEXT.obj
 0004:000031bc       $pdata$11$TA_MACDEXT       00000001800941bc     ta_libc_csr:ta_MACDEXT.obj
 0004:000031c8       $pdata$13$TA_MACDEXT       00000001800941c8     ta_libc_csr:ta_MACDEXT.obj
 0004:000031d4       $pdata$14$TA_MACDEXT       00000001800941d4     ta_libc_csr:ta_MACDEXT.obj
 0004:000031e0       $pdata$15$TA_MACDEXT       00000001800941e0     ta_libc_csr:ta_MACDEXT.obj
 0004:000031ec       $pdata$16$TA_MACDEXT       00000001800941ec     ta_libc_csr:ta_MACDEXT.obj
 0004:000031f8       $pdata$17$TA_MACDEXT       00000001800941f8     ta_libc_csr:ta_MACDEXT.obj
 0004:00003204       $pdata$TA_MACDEXT_Lookback 0000000180094204     ta_libc_csr:ta_MACDEXT.obj
 0004:00003210       $pdata$1$TA_MACDEXT_Lookback 0000000180094210     ta_libc_csr:ta_MACDEXT.obj
 0004:0000321c       $pdata$2$TA_MACDEXT_Lookback 000000018009421c     ta_libc_csr:ta_MACDEXT.obj
 0004:00003228       $pdata$3$TA_MACDEXT_Lookback 0000000180094228     ta_libc_csr:ta_MACDEXT.obj
 0004:00003234       $pdata$5$TA_MACDEXT_Lookback 0000000180094234     ta_libc_csr:ta_MACDEXT.obj
 0004:00003240       $pdata$6$TA_MACDEXT_Lookback 0000000180094240     ta_libc_csr:ta_MACDEXT.obj
 0004:0000324c       $pdata$7$TA_MACDEXT_Lookback 000000018009424c     ta_libc_csr:ta_MACDEXT.obj
 0004:00003258       $pdata$TA_MACDFIX          0000000180094258     ta_libc_csr:ta_MACDFIX.obj
 0004:00003264       $pdata$TA_MACDFIX_Lookback 0000000180094264     ta_libc_csr:ta_MACDFIX.obj
 0004:00003270       $pdata$0$TA_MACDFIX_Lookback 0000000180094270     ta_libc_csr:ta_MACDFIX.obj
 0004:0000327c       $pdata$1$TA_MACDFIX_Lookback 000000018009427c     ta_libc_csr:ta_MACDFIX.obj
 0004:00003288       $pdata$TA_MAMA             0000000180094288     ta_libc_csr:ta_MAMA.obj
 0004:00003294       $pdata$7$TA_MAMA           0000000180094294     ta_libc_csr:ta_MAMA.obj
 0004:000032a0       $pdata$10$TA_MAMA          00000001800942a0     ta_libc_csr:ta_MAMA.obj
 0004:000032ac       $pdata$11$TA_MAMA          00000001800942ac     ta_libc_csr:ta_MAMA.obj
 0004:000032b8       $pdata$12$TA_MAMA          00000001800942b8     ta_libc_csr:ta_MAMA.obj
 0004:000032c4       $pdata$TA_MAVP             00000001800942c4     ta_libc_csr:ta_MAVP.obj
 0004:000032d0       $pdata$0$TA_MAVP           00000001800942d0     ta_libc_csr:ta_MAVP.obj
 0004:000032dc       $pdata$2$TA_MAVP           00000001800942dc     ta_libc_csr:ta_MAVP.obj
 0004:000032e8       $pdata$4$TA_MAVP           00000001800942e8     ta_libc_csr:ta_MAVP.obj
 0004:000032f4       $pdata$6$TA_MAVP           00000001800942f4     ta_libc_csr:ta_MAVP.obj
 0004:00003300       $pdata$7$TA_MAVP           0000000180094300     ta_libc_csr:ta_MAVP.obj
 0004:0000330c       $pdata$8$TA_MAVP           000000018009430c     ta_libc_csr:ta_MAVP.obj
 0004:00003318       $pdata$9$TA_MAVP           0000000180094318     ta_libc_csr:ta_MAVP.obj
 0004:00003324       $pdata$11$TA_MAVP          0000000180094324     ta_libc_csr:ta_MAVP.obj
 0004:00003330       $pdata$12$TA_MAVP          0000000180094330     ta_libc_csr:ta_MAVP.obj
 0004:0000333c       $pdata$13$TA_MAVP          000000018009433c     ta_libc_csr:ta_MAVP.obj
 0004:00003348       $pdata$14$TA_MAVP          0000000180094348     ta_libc_csr:ta_MAVP.obj
 0004:00003354       $pdata$15$TA_MAVP          0000000180094354     ta_libc_csr:ta_MAVP.obj
 0004:00003360       $pdata$TA_MAX              0000000180094360     ta_libc_csr:ta_MAX.obj
 0004:0000336c       $pdata$4$TA_MAX            000000018009436c     ta_libc_csr:ta_MAX.obj
 0004:00003378       $pdata$6$TA_MAX            0000000180094378     ta_libc_csr:ta_MAX.obj
 0004:00003384       $pdata$7$TA_MAX            0000000180094384     ta_libc_csr:ta_MAX.obj
 0004:00003390       $pdata$TA_MAXINDEX         0000000180094390     ta_libc_csr:ta_MAXINDEX.obj
 0004:0000339c       $pdata$0$TA_MAXINDEX       000000018009439c     ta_libc_csr:ta_MAXINDEX.obj
 0004:000033a8       $pdata$2$TA_MAXINDEX       00000001800943a8     ta_libc_csr:ta_MAXINDEX.obj
 0004:000033b4       $pdata$8$TA_MAXINDEX       00000001800943b4     ta_libc_csr:ta_MAXINDEX.obj
 0004:000033c0       $pdata$10$TA_MAXINDEX      00000001800943c0     ta_libc_csr:ta_MAXINDEX.obj
 0004:000033cc       $pdata$11$TA_MAXINDEX      00000001800943cc     ta_libc_csr:ta_MAXINDEX.obj
 0004:000033d8       $pdata$TA_MEDPRICE         00000001800943d8     ta_libc_csr:ta_MEDPRICE.obj
 0004:000033e4       $pdata$0$TA_MEDPRICE       00000001800943e4     ta_libc_csr:ta_MEDPRICE.obj
 0004:000033f0       $pdata$2$TA_MEDPRICE       00000001800943f0     ta_libc_csr:ta_MEDPRICE.obj
 0004:000033fc       $pdata$6$TA_MEDPRICE       00000001800943fc     ta_libc_csr:ta_MEDPRICE.obj
 0004:00003408       $pdata$7$TA_MEDPRICE       0000000180094408     ta_libc_csr:ta_MEDPRICE.obj
 0004:00003414       $pdata$8$TA_MEDPRICE       0000000180094414     ta_libc_csr:ta_MEDPRICE.obj
 0004:00003420       $pdata$TA_MFI              0000000180094420     ta_libc_csr:ta_MFI.obj
 0004:0000342c       $pdata$1$TA_MFI            000000018009442c     ta_libc_csr:ta_MFI.obj
 0004:00003438       $pdata$2$TA_MFI            0000000180094438     ta_libc_csr:ta_MFI.obj
 0004:00003444       $pdata$6$TA_MFI            0000000180094444     ta_libc_csr:ta_MFI.obj
 0004:00003450       $pdata$3$TA_MFI            0000000180094450     ta_libc_csr:ta_MFI.obj
 0004:0000345c       $pdata$7$TA_MFI            000000018009445c     ta_libc_csr:ta_MFI.obj
 0004:00003468       $pdata$TA_MIDPOINT         0000000180094468     ta_libc_csr:ta_MIDPOINT.obj
 0004:00003474       $pdata$1$TA_MIDPOINT       0000000180094474     ta_libc_csr:ta_MIDPOINT.obj
 0004:00003480       $pdata$2$TA_MIDPOINT       0000000180094480     ta_libc_csr:ta_MIDPOINT.obj
 0004:0000348c       $pdata$TA_MIDPRICE         000000018009448c     ta_libc_csr:ta_MIDPRICE.obj
 0004:00003498       $pdata$0$TA_MIDPRICE       0000000180094498     ta_libc_csr:ta_MIDPRICE.obj
 0004:000034a4       $pdata$2$TA_MIDPRICE       00000001800944a4     ta_libc_csr:ta_MIDPRICE.obj
 0004:000034b0       $pdata$7$TA_MIDPRICE       00000001800944b0     ta_libc_csr:ta_MIDPRICE.obj
 0004:000034bc       $pdata$8$TA_MIDPRICE       00000001800944bc     ta_libc_csr:ta_MIDPRICE.obj
 0004:000034c8       $pdata$TA_MIN              00000001800944c8     ta_libc_csr:ta_MIN.obj
 0004:000034d4       $pdata$4$TA_MIN            00000001800944d4     ta_libc_csr:ta_MIN.obj
 0004:000034e0       $pdata$6$TA_MIN            00000001800944e0     ta_libc_csr:ta_MIN.obj
 0004:000034ec       $pdata$7$TA_MIN            00000001800944ec     ta_libc_csr:ta_MIN.obj
 0004:000034f8       $pdata$TA_MININDEX         00000001800944f8     ta_libc_csr:ta_MININDEX.obj
 0004:00003504       $pdata$0$TA_MININDEX       0000000180094504     ta_libc_csr:ta_MININDEX.obj
 0004:00003510       $pdata$2$TA_MININDEX       0000000180094510     ta_libc_csr:ta_MININDEX.obj
 0004:0000351c       $pdata$8$TA_MININDEX       000000018009451c     ta_libc_csr:ta_MININDEX.obj
 0004:00003528       $pdata$10$TA_MININDEX      0000000180094528     ta_libc_csr:ta_MININDEX.obj
 0004:00003534       $pdata$11$TA_MININDEX      0000000180094534     ta_libc_csr:ta_MININDEX.obj
 0004:00003540       $pdata$TA_MINMAX           0000000180094540     ta_libc_csr:ta_MINMAX.obj
 0004:0000354c       $pdata$0$TA_MINMAX         000000018009454c     ta_libc_csr:ta_MINMAX.obj
 0004:00003558       $pdata$2$TA_MINMAX         0000000180094558     ta_libc_csr:ta_MINMAX.obj
 0004:00003564       $pdata$9$TA_MINMAX         0000000180094564     ta_libc_csr:ta_MINMAX.obj
 0004:00003570       $pdata$11$TA_MINMAX        0000000180094570     ta_libc_csr:ta_MINMAX.obj
 0004:0000357c       $pdata$12$TA_MINMAX        000000018009457c     ta_libc_csr:ta_MINMAX.obj
 0004:00003588       $pdata$TA_MINMAXINDEX      0000000180094588     ta_libc_csr:ta_MINMAXINDEX.obj
 0004:00003594       $pdata$0$TA_MINMAXINDEX    0000000180094594     ta_libc_csr:ta_MINMAXINDEX.obj
 0004:000035a0       $pdata$2$TA_MINMAXINDEX    00000001800945a0     ta_libc_csr:ta_MINMAXINDEX.obj
 0004:000035ac       $pdata$10$TA_MINMAXINDEX   00000001800945ac     ta_libc_csr:ta_MINMAXINDEX.obj
 0004:000035b8       $pdata$12$TA_MINMAXINDEX   00000001800945b8     ta_libc_csr:ta_MINMAXINDEX.obj
 0004:000035c4       $pdata$13$TA_MINMAXINDEX   00000001800945c4     ta_libc_csr:ta_MINMAXINDEX.obj
 0004:000035d0       $pdata$TA_MINUS_DI         00000001800945d0     ta_libc_csr:ta_MINUS_DI.obj
 0004:000035dc       $pdata$1$TA_MINUS_DI       00000001800945dc     ta_libc_csr:ta_MINUS_DI.obj
 0004:000035e8       $pdata$2$TA_MINUS_DI       00000001800945e8     ta_libc_csr:ta_MINUS_DI.obj
 0004:000035f4       $pdata$8$TA_MINUS_DI       00000001800945f4     ta_libc_csr:ta_MINUS_DI.obj
 0004:00003600       $pdata$9$TA_MINUS_DI       0000000180094600     ta_libc_csr:ta_MINUS_DI.obj
 0004:0000360c       $pdata$10$TA_MINUS_DI      000000018009460c     ta_libc_csr:ta_MINUS_DI.obj
 0004:00003618       $pdata$16$TA_MINUS_DI      0000000180094618     ta_libc_csr:ta_MINUS_DI.obj
 0004:00003624       $pdata$17$TA_MINUS_DI      0000000180094624     ta_libc_csr:ta_MINUS_DI.obj
 0004:00003630       $pdata$18$TA_MINUS_DI      0000000180094630     ta_libc_csr:ta_MINUS_DI.obj
 0004:0000363c       $pdata$19$TA_MINUS_DI      000000018009463c     ta_libc_csr:ta_MINUS_DI.obj
 0004:00003648       $pdata$TA_MINUS_DM         0000000180094648     ta_libc_csr:ta_MINUS_DM.obj
 0004:00003654       $pdata$1$TA_MINUS_DM       0000000180094654     ta_libc_csr:ta_MINUS_DM.obj
 0004:00003660       $pdata$2$TA_MINUS_DM       0000000180094660     ta_libc_csr:ta_MINUS_DM.obj
 0004:0000366c       $pdata$3$TA_MINUS_DM       000000018009466c     ta_libc_csr:ta_MINUS_DM.obj
 0004:00003678       $pdata$5$TA_MINUS_DM       0000000180094678     ta_libc_csr:ta_MINUS_DM.obj
 0004:00003684       $pdata$8$TA_MINUS_DM       0000000180094684     ta_libc_csr:ta_MINUS_DM.obj
 0004:00003690       $pdata$10$TA_MINUS_DM      0000000180094690     ta_libc_csr:ta_MINUS_DM.obj
 0004:0000369c       $pdata$TA_MOM              000000018009469c     ta_libc_csr:ta_MOM.obj
 0004:000036a8       $pdata$0$TA_MOM            00000001800946a8     ta_libc_csr:ta_MOM.obj
 0004:000036b4       $pdata$3$TA_MOM            00000001800946b4     ta_libc_csr:ta_MOM.obj
 0004:000036c0       $pdata$6$TA_MOM            00000001800946c0     ta_libc_csr:ta_MOM.obj
 0004:000036cc       $pdata$7$TA_MOM            00000001800946cc     ta_libc_csr:ta_MOM.obj
 0004:000036d8       $pdata$8$TA_MOM            00000001800946d8     ta_libc_csr:ta_MOM.obj
 0004:000036e4       $pdata$9$TA_MOM            00000001800946e4     ta_libc_csr:ta_MOM.obj
 0004:000036f0       $pdata$TA_MULT             00000001800946f0     ta_libc_csr:ta_MULT.obj
 0004:000036fc       $pdata$0$TA_MULT           00000001800946fc     ta_libc_csr:ta_MULT.obj
 0004:00003708       $pdata$3$TA_MULT           0000000180094708     ta_libc_csr:ta_MULT.obj
 0004:00003714       $pdata$5$TA_MULT           0000000180094714     ta_libc_csr:ta_MULT.obj
 0004:00003720       $pdata$6$TA_MULT           0000000180094720     ta_libc_csr:ta_MULT.obj
 0004:0000372c       $pdata$7$TA_MULT           000000018009472c     ta_libc_csr:ta_MULT.obj
 0004:00003738       $pdata$TA_NATR             0000000180094738     ta_libc_csr:ta_NATR.obj
 0004:00003744       $pdata$1$TA_NATR           0000000180094744     ta_libc_csr:ta_NATR.obj
 0004:00003750       $pdata$2$TA_NATR           0000000180094750     ta_libc_csr:ta_NATR.obj
 0004:0000375c       $pdata$3$TA_NATR           000000018009475c     ta_libc_csr:ta_NATR.obj
 0004:00003768       $pdata$4$TA_NATR           0000000180094768     ta_libc_csr:ta_NATR.obj
 0004:00003774       $pdata$5$TA_NATR           0000000180094774     ta_libc_csr:ta_NATR.obj
 0004:00003780       $pdata$7$TA_NATR           0000000180094780     ta_libc_csr:ta_NATR.obj
 0004:0000378c       $pdata$9$TA_NATR           000000018009478c     ta_libc_csr:ta_NATR.obj
 0004:00003798       $pdata$10$TA_NATR          0000000180094798     ta_libc_csr:ta_NATR.obj
 0004:000037a4       $pdata$11$TA_NATR          00000001800947a4     ta_libc_csr:ta_NATR.obj
 0004:000037b0       $pdata$12$TA_NATR          00000001800947b0     ta_libc_csr:ta_NATR.obj
 0004:000037bc       $pdata$13$TA_NATR          00000001800947bc     ta_libc_csr:ta_NATR.obj
 0004:000037c8       $pdata$TA_OBV              00000001800947c8     ta_libc_csr:ta_OBV.obj
 0004:000037d4       $pdata$0$TA_OBV            00000001800947d4     ta_libc_csr:ta_OBV.obj
 0004:000037e0       $pdata$3$TA_OBV            00000001800947e0     ta_libc_csr:ta_OBV.obj
 0004:000037ec       $pdata$4$TA_OBV            00000001800947ec     ta_libc_csr:ta_OBV.obj
 0004:000037f8       $pdata$TA_PLUS_DI          00000001800947f8     ta_libc_csr:ta_PLUS_DI.obj
 0004:00003804       $pdata$1$TA_PLUS_DI        0000000180094804     ta_libc_csr:ta_PLUS_DI.obj
 0004:00003810       $pdata$2$TA_PLUS_DI        0000000180094810     ta_libc_csr:ta_PLUS_DI.obj
 0004:0000381c       $pdata$8$TA_PLUS_DI        000000018009481c     ta_libc_csr:ta_PLUS_DI.obj
 0004:00003828       $pdata$9$TA_PLUS_DI        0000000180094828     ta_libc_csr:ta_PLUS_DI.obj
 0004:00003834       $pdata$10$TA_PLUS_DI       0000000180094834     ta_libc_csr:ta_PLUS_DI.obj
 0004:00003840       $pdata$12$TA_PLUS_DI       0000000180094840     ta_libc_csr:ta_PLUS_DI.obj
 0004:0000384c       $pdata$15$TA_PLUS_DI       000000018009484c     ta_libc_csr:ta_PLUS_DI.obj
 0004:00003858       $pdata$17$TA_PLUS_DI       0000000180094858     ta_libc_csr:ta_PLUS_DI.obj
 0004:00003864       $pdata$18$TA_PLUS_DI       0000000180094864     ta_libc_csr:ta_PLUS_DI.obj
 0004:00003870       $pdata$19$TA_PLUS_DI       0000000180094870     ta_libc_csr:ta_PLUS_DI.obj
 0004:0000387c       $pdata$TA_PLUS_DM          000000018009487c     ta_libc_csr:ta_PLUS_DM.obj
 0004:00003888       $pdata$1$TA_PLUS_DM        0000000180094888     ta_libc_csr:ta_PLUS_DM.obj
 0004:00003894       $pdata$2$TA_PLUS_DM        0000000180094894     ta_libc_csr:ta_PLUS_DM.obj
 0004:000038a0       $pdata$3$TA_PLUS_DM        00000001800948a0     ta_libc_csr:ta_PLUS_DM.obj
 0004:000038ac       $pdata$5$TA_PLUS_DM        00000001800948ac     ta_libc_csr:ta_PLUS_DM.obj
 0004:000038b8       $pdata$7$TA_PLUS_DM        00000001800948b8     ta_libc_csr:ta_PLUS_DM.obj
 0004:000038c4       $pdata$9$TA_PLUS_DM        00000001800948c4     ta_libc_csr:ta_PLUS_DM.obj
 0004:000038d0       $pdata$TA_PPO              00000001800948d0     ta_libc_csr:ta_PPO.obj
 0004:000038dc       $pdata$0$TA_PPO            00000001800948dc     ta_libc_csr:ta_PPO.obj
 0004:000038e8       $pdata$1$TA_PPO            00000001800948e8     ta_libc_csr:ta_PPO.obj
 0004:000038f4       $pdata$2$TA_PPO            00000001800948f4     ta_libc_csr:ta_PPO.obj
 0004:00003900       $pdata$3$TA_PPO            0000000180094900     ta_libc_csr:ta_PPO.obj
 0004:0000390c       $pdata$4$TA_PPO            000000018009490c     ta_libc_csr:ta_PPO.obj
 0004:00003918       $pdata$5$TA_PPO            0000000180094918     ta_libc_csr:ta_PPO.obj
 0004:00003924       $pdata$6$TA_PPO            0000000180094924     ta_libc_csr:ta_PPO.obj
 0004:00003930       $pdata$8$TA_PPO            0000000180094930     ta_libc_csr:ta_PPO.obj
 0004:0000393c       $pdata$9$TA_PPO            000000018009493c     ta_libc_csr:ta_PPO.obj
 0004:00003948       $pdata$10$TA_PPO           0000000180094948     ta_libc_csr:ta_PPO.obj
 0004:00003954       $pdata$11$TA_PPO           0000000180094954     ta_libc_csr:ta_PPO.obj
 0004:00003960       $pdata$TA_ROC              0000000180094960     ta_libc_csr:ta_ROC.obj
 0004:0000396c       $pdata$2$TA_ROC            000000018009496c     ta_libc_csr:ta_ROC.obj
 0004:00003978       $pdata$3$TA_ROC            0000000180094978     ta_libc_csr:ta_ROC.obj
 0004:00003984       $pdata$4$TA_ROC            0000000180094984     ta_libc_csr:ta_ROC.obj
 0004:00003990       $pdata$5$TA_ROC            0000000180094990     ta_libc_csr:ta_ROC.obj
 0004:0000399c       $pdata$TA_ROCP             000000018009499c     ta_libc_csr:ta_ROCP.obj
 0004:000039a8       $pdata$2$TA_ROCP           00000001800949a8     ta_libc_csr:ta_ROCP.obj
 0004:000039b4       $pdata$3$TA_ROCP           00000001800949b4     ta_libc_csr:ta_ROCP.obj
 0004:000039c0       $pdata$4$TA_ROCP           00000001800949c0     ta_libc_csr:ta_ROCP.obj
 0004:000039cc       $pdata$5$TA_ROCP           00000001800949cc     ta_libc_csr:ta_ROCP.obj
 0004:000039d8       $pdata$TA_ROCR             00000001800949d8     ta_libc_csr:ta_ROCR.obj
 0004:000039e4       $pdata$2$TA_ROCR           00000001800949e4     ta_libc_csr:ta_ROCR.obj
 0004:000039f0       $pdata$3$TA_ROCR           00000001800949f0     ta_libc_csr:ta_ROCR.obj
 0004:000039fc       $pdata$4$TA_ROCR           00000001800949fc     ta_libc_csr:ta_ROCR.obj
 0004:00003a08       $pdata$5$TA_ROCR           0000000180094a08     ta_libc_csr:ta_ROCR.obj
 0004:00003a14       $pdata$TA_ROCR100          0000000180094a14     ta_libc_csr:ta_ROCR100.obj
 0004:00003a20       $pdata$2$TA_ROCR100        0000000180094a20     ta_libc_csr:ta_ROCR100.obj
 0004:00003a2c       $pdata$3$TA_ROCR100        0000000180094a2c     ta_libc_csr:ta_ROCR100.obj
 0004:00003a38       $pdata$4$TA_ROCR100        0000000180094a38     ta_libc_csr:ta_ROCR100.obj
 0004:00003a44       $pdata$5$TA_ROCR100        0000000180094a44     ta_libc_csr:ta_ROCR100.obj
 0004:00003a50       $pdata$TA_RSI              0000000180094a50     ta_libc_csr:ta_RSI.obj
 0004:00003a5c       $pdata$0$TA_RSI            0000000180094a5c     ta_libc_csr:ta_RSI.obj
 0004:00003a68       $pdata$5$TA_RSI            0000000180094a68     ta_libc_csr:ta_RSI.obj
 0004:00003a74       $pdata$9$TA_RSI            0000000180094a74     ta_libc_csr:ta_RSI.obj
 0004:00003a80       $pdata$10$TA_RSI           0000000180094a80     ta_libc_csr:ta_RSI.obj
 0004:00003a8c       $pdata$12$TA_RSI           0000000180094a8c     ta_libc_csr:ta_RSI.obj
 0004:00003a98       $pdata$13$TA_RSI           0000000180094a98     ta_libc_csr:ta_RSI.obj
 0004:00003aa4       $pdata$15$TA_RSI           0000000180094aa4     ta_libc_csr:ta_RSI.obj
 0004:00003ab0       $pdata$TA_SAR              0000000180094ab0     ta_libc_csr:ta_SAR.obj
 0004:00003abc       $pdata$1$TA_SAR            0000000180094abc     ta_libc_csr:ta_SAR.obj
 0004:00003ac8       $pdata$2$TA_SAR            0000000180094ac8     ta_libc_csr:ta_SAR.obj
 0004:00003ad4       $pdata$3$TA_SAR            0000000180094ad4     ta_libc_csr:ta_SAR.obj
 0004:00003ae0       $pdata$4$TA_SAR            0000000180094ae0     ta_libc_csr:ta_SAR.obj
 0004:00003aec       $pdata$5$TA_SAR            0000000180094aec     ta_libc_csr:ta_SAR.obj
 0004:00003af8       $pdata$6$TA_SAR            0000000180094af8     ta_libc_csr:ta_SAR.obj
 0004:00003b04       $pdata$7$TA_SAR            0000000180094b04     ta_libc_csr:ta_SAR.obj
 0004:00003b10       $pdata$8$TA_SAR            0000000180094b10     ta_libc_csr:ta_SAR.obj
 0004:00003b1c       $pdata$9$TA_SAR            0000000180094b1c     ta_libc_csr:ta_SAR.obj
 0004:00003b28       $pdata$11$TA_SAR           0000000180094b28     ta_libc_csr:ta_SAR.obj
 0004:00003b34       $pdata$12$TA_SAR           0000000180094b34     ta_libc_csr:ta_SAR.obj
 0004:00003b40       $pdata$13$TA_SAR           0000000180094b40     ta_libc_csr:ta_SAR.obj
 0004:00003b4c       $pdata$14$TA_SAR           0000000180094b4c     ta_libc_csr:ta_SAR.obj
 0004:00003b58       $pdata$TA_SAREXT           0000000180094b58     ta_libc_csr:ta_SAREXT.obj
 0004:00003b64       $pdata$1$TA_SAREXT         0000000180094b64     ta_libc_csr:ta_SAREXT.obj
 0004:00003b70       $pdata$2$TA_SAREXT         0000000180094b70     ta_libc_csr:ta_SAREXT.obj
 0004:00003b7c       $pdata$3$TA_SAREXT         0000000180094b7c     ta_libc_csr:ta_SAREXT.obj
 0004:00003b88       $pdata$4$TA_SAREXT         0000000180094b88     ta_libc_csr:ta_SAREXT.obj
 0004:00003b94       $pdata$5$TA_SAREXT         0000000180094b94     ta_libc_csr:ta_SAREXT.obj
 0004:00003ba0       $pdata$6$TA_SAREXT         0000000180094ba0     ta_libc_csr:ta_SAREXT.obj
 0004:00003bac       $pdata$7$TA_SAREXT         0000000180094bac     ta_libc_csr:ta_SAREXT.obj
 0004:00003bb8       $pdata$8$TA_SAREXT         0000000180094bb8     ta_libc_csr:ta_SAREXT.obj
 0004:00003bc4       $pdata$10$TA_SAREXT        0000000180094bc4     ta_libc_csr:ta_SAREXT.obj
 0004:00003bd0       $pdata$11$TA_SAREXT        0000000180094bd0     ta_libc_csr:ta_SAREXT.obj
 0004:00003bdc       $pdata$12$TA_SAREXT        0000000180094bdc     ta_libc_csr:ta_SAREXT.obj
 0004:00003be8       $pdata$13$TA_SAREXT        0000000180094be8     ta_libc_csr:ta_SAREXT.obj
 0004:00003bf4       $pdata$14$TA_SAREXT        0000000180094bf4     ta_libc_csr:ta_SAREXT.obj
 0004:00003c00       $pdata$15$TA_SAREXT        0000000180094c00     ta_libc_csr:ta_SAREXT.obj
 0004:00003c0c       $pdata$16$TA_SAREXT        0000000180094c0c     ta_libc_csr:ta_SAREXT.obj
 0004:00003c18       $pdata$17$TA_SAREXT        0000000180094c18     ta_libc_csr:ta_SAREXT.obj
 0004:00003c24       $pdata$18$TA_SAREXT        0000000180094c24     ta_libc_csr:ta_SAREXT.obj
 0004:00003c30       $pdata$20$TA_SAREXT        0000000180094c30     ta_libc_csr:ta_SAREXT.obj
 0004:00003c3c       $pdata$21$TA_SAREXT        0000000180094c3c     ta_libc_csr:ta_SAREXT.obj
 0004:00003c48       $pdata$22$TA_SAREXT        0000000180094c48     ta_libc_csr:ta_SAREXT.obj
 0004:00003c54       $pdata$23$TA_SAREXT        0000000180094c54     ta_libc_csr:ta_SAREXT.obj
 0004:00003c60       $pdata$24$TA_SAREXT        0000000180094c60     ta_libc_csr:ta_SAREXT.obj
 0004:00003c6c       $pdata$25$TA_SAREXT        0000000180094c6c     ta_libc_csr:ta_SAREXT.obj
 0004:00003c78       $pdata$26$TA_SAREXT        0000000180094c78     ta_libc_csr:ta_SAREXT.obj
 0004:00003c84       $pdata$27$TA_SAREXT        0000000180094c84     ta_libc_csr:ta_SAREXT.obj
 0004:00003c90       $pdata$28$TA_SAREXT        0000000180094c90     ta_libc_csr:ta_SAREXT.obj
 0004:00003c9c       $pdata$29$TA_SAREXT        0000000180094c9c     ta_libc_csr:ta_SAREXT.obj
 0004:00003ca8       $pdata$TA_SAREXT_Lookback  0000000180094ca8     ta_libc_csr:ta_SAREXT.obj
 0004:00003cb4       $pdata$TA_SIN              0000000180094cb4     ta_libc_csr:ta_SIN.obj
 0004:00003cc0       $pdata$0$TA_SIN            0000000180094cc0     ta_libc_csr:ta_SIN.obj
 0004:00003ccc       $pdata$3$TA_SIN            0000000180094ccc     ta_libc_csr:ta_SIN.obj
 0004:00003cd8       $pdata$5$TA_SIN            0000000180094cd8     ta_libc_csr:ta_SIN.obj
 0004:00003ce4       $pdata$6$TA_SIN            0000000180094ce4     ta_libc_csr:ta_SIN.obj
 0004:00003cf0       $pdata$7$TA_SIN            0000000180094cf0     ta_libc_csr:ta_SIN.obj
 0004:00003cfc       $pdata$TA_SINH             0000000180094cfc     ta_libc_csr:ta_SINH.obj
 0004:00003d08       $pdata$0$TA_SINH           0000000180094d08     ta_libc_csr:ta_SINH.obj
 0004:00003d14       $pdata$3$TA_SINH           0000000180094d14     ta_libc_csr:ta_SINH.obj
 0004:00003d20       $pdata$5$TA_SINH           0000000180094d20     ta_libc_csr:ta_SINH.obj
 0004:00003d2c       $pdata$6$TA_SINH           0000000180094d2c     ta_libc_csr:ta_SINH.obj
 0004:00003d38       $pdata$7$TA_SINH           0000000180094d38     ta_libc_csr:ta_SINH.obj
 0004:00003d44       $pdata$TA_INT_SMA          0000000180094d44     ta_libc_csr:ta_SMA.obj
 0004:00003d50       $pdata$TA_SQRT             0000000180094d50     ta_libc_csr:ta_SQRT.obj
 0004:00003d5c       $pdata$0$TA_SQRT           0000000180094d5c     ta_libc_csr:ta_SQRT.obj
 0004:00003d68       $pdata$5$TA_SQRT           0000000180094d68     ta_libc_csr:ta_SQRT.obj
 0004:00003d74       $pdata$6$TA_SQRT           0000000180094d74     ta_libc_csr:ta_SQRT.obj
 0004:00003d80       $pdata$7$TA_SQRT           0000000180094d80     ta_libc_csr:ta_SQRT.obj
 0004:00003d8c       $pdata$8$TA_SQRT           0000000180094d8c     ta_libc_csr:ta_SQRT.obj
 0004:00003d98       $pdata$TA_INT_stddev_using_precalc_ma 0000000180094d98     ta_libc_csr:ta_STDDEV.obj
 0004:00003da4       $pdata$3$TA_INT_stddev_using_precalc_ma 0000000180094da4     ta_libc_csr:ta_STDDEV.obj
 0004:00003db0       $pdata$4$TA_INT_stddev_using_precalc_ma 0000000180094db0     ta_libc_csr:ta_STDDEV.obj
 0004:00003dbc       $pdata$TA_STDDEV           0000000180094dbc     ta_libc_csr:ta_STDDEV.obj
 0004:00003dc8       $pdata$2$TA_STDDEV         0000000180094dc8     ta_libc_csr:ta_STDDEV.obj
 0004:00003dd4       $pdata$5$TA_STDDEV         0000000180094dd4     ta_libc_csr:ta_STDDEV.obj
 0004:00003de0       $pdata$7$TA_STDDEV         0000000180094de0     ta_libc_csr:ta_STDDEV.obj
 0004:00003dec       $pdata$8$TA_STDDEV         0000000180094dec     ta_libc_csr:ta_STDDEV.obj
 0004:00003df8       $pdata$10$TA_STDDEV        0000000180094df8     ta_libc_csr:ta_STDDEV.obj
 0004:00003e04       $pdata$11$TA_STDDEV        0000000180094e04     ta_libc_csr:ta_STDDEV.obj
 0004:00003e10       $pdata$TA_STOCH            0000000180094e10     ta_libc_csr:ta_STOCH.obj
 0004:00003e1c       $pdata$0$TA_STOCH          0000000180094e1c     ta_libc_csr:ta_STOCH.obj
 0004:00003e28       $pdata$1$TA_STOCH          0000000180094e28     ta_libc_csr:ta_STOCH.obj
 0004:00003e34       $pdata$3$TA_STOCH          0000000180094e34     ta_libc_csr:ta_STOCH.obj
 0004:00003e40       $pdata$4$TA_STOCH          0000000180094e40     ta_libc_csr:ta_STOCH.obj
 0004:00003e4c       $pdata$5$TA_STOCH          0000000180094e4c     ta_libc_csr:ta_STOCH.obj
 0004:00003e58       $pdata$11$TA_STOCH         0000000180094e58     ta_libc_csr:ta_STOCH.obj
 0004:00003e64       $pdata$7$TA_STOCH          0000000180094e64     ta_libc_csr:ta_STOCH.obj
 0004:00003e70       $pdata$12$TA_STOCH         0000000180094e70     ta_libc_csr:ta_STOCH.obj
 0004:00003e7c       $pdata$13$TA_STOCH         0000000180094e7c     ta_libc_csr:ta_STOCH.obj
 0004:00003e88       $pdata$TA_STOCH_Lookback   0000000180094e88     ta_libc_csr:ta_STOCH.obj
 0004:00003e94       $pdata$0$TA_STOCH_Lookback 0000000180094e94     ta_libc_csr:ta_STOCH.obj
 0004:00003ea0       $pdata$2$TA_STOCH_Lookback 0000000180094ea0     ta_libc_csr:ta_STOCH.obj
 0004:00003eac       $pdata$3$TA_STOCH_Lookback 0000000180094eac     ta_libc_csr:ta_STOCH.obj
 0004:00003eb8       $pdata$TA_STOCHF           0000000180094eb8     ta_libc_csr:ta_STOCHF.obj
 0004:00003ec4       $pdata$0$TA_STOCHF         0000000180094ec4     ta_libc_csr:ta_STOCHF.obj
 0004:00003ed0       $pdata$1$TA_STOCHF         0000000180094ed0     ta_libc_csr:ta_STOCHF.obj
 0004:00003edc       $pdata$7$TA_STOCHF         0000000180094edc     ta_libc_csr:ta_STOCHF.obj
 0004:00003ee8       $pdata$8$TA_STOCHF         0000000180094ee8     ta_libc_csr:ta_STOCHF.obj
 0004:00003ef4       $pdata$9$TA_STOCHF         0000000180094ef4     ta_libc_csr:ta_STOCHF.obj
 0004:00003f00       $pdata$10$TA_STOCHF        0000000180094f00     ta_libc_csr:ta_STOCHF.obj
 0004:00003f0c       $pdata$12$TA_STOCHF        0000000180094f0c     ta_libc_csr:ta_STOCHF.obj
 0004:00003f18       $pdata$13$TA_STOCHF        0000000180094f18     ta_libc_csr:ta_STOCHF.obj
 0004:00003f24       $pdata$14$TA_STOCHF        0000000180094f24     ta_libc_csr:ta_STOCHF.obj
 0004:00003f30       $pdata$TA_STOCHF_Lookback  0000000180094f30     ta_libc_csr:ta_STOCHF.obj
 0004:00003f3c       $pdata$TA_STOCHRSI         0000000180094f3c     ta_libc_csr:ta_STOCHRSI.obj
 0004:00003f48       $pdata$0$TA_STOCHRSI       0000000180094f48     ta_libc_csr:ta_STOCHRSI.obj
 0004:00003f54       $pdata$1$TA_STOCHRSI       0000000180094f54     ta_libc_csr:ta_STOCHRSI.obj
 0004:00003f60       $pdata$2$TA_STOCHRSI       0000000180094f60     ta_libc_csr:ta_STOCHRSI.obj
 0004:00003f6c       $pdata$4$TA_STOCHRSI       0000000180094f6c     ta_libc_csr:ta_STOCHRSI.obj
 0004:00003f78       $pdata$5$TA_STOCHRSI       0000000180094f78     ta_libc_csr:ta_STOCHRSI.obj
 0004:00003f84       $pdata$6$TA_STOCHRSI       0000000180094f84     ta_libc_csr:ta_STOCHRSI.obj
 0004:00003f90       $pdata$7$TA_STOCHRSI       0000000180094f90     ta_libc_csr:ta_STOCHRSI.obj
 0004:00003f9c       $pdata$9$TA_STOCHRSI       0000000180094f9c     ta_libc_csr:ta_STOCHRSI.obj
 0004:00003fa8       $pdata$10$TA_STOCHRSI      0000000180094fa8     ta_libc_csr:ta_STOCHRSI.obj
 0004:00003fb4       $pdata$11$TA_STOCHRSI      0000000180094fb4     ta_libc_csr:ta_STOCHRSI.obj
 0004:00003fc0       $pdata$12$TA_STOCHRSI      0000000180094fc0     ta_libc_csr:ta_STOCHRSI.obj
 0004:00003fcc       $pdata$13$TA_STOCHRSI      0000000180094fcc     ta_libc_csr:ta_STOCHRSI.obj
 0004:00003fd8       $pdata$TA_STOCHRSI_Lookback 0000000180094fd8     ta_libc_csr:ta_STOCHRSI.obj
 0004:00003fe4       $pdata$0$TA_STOCHRSI_Lookback 0000000180094fe4     ta_libc_csr:ta_STOCHRSI.obj
 0004:00003ff0       $pdata$1$TA_STOCHRSI_Lookback 0000000180094ff0     ta_libc_csr:ta_STOCHRSI.obj
 0004:00003ffc       $pdata$TA_SUB              0000000180094ffc     ta_libc_csr:ta_SUB.obj
 0004:00004008       $pdata$0$TA_SUB            0000000180095008     ta_libc_csr:ta_SUB.obj
 0004:00004014       $pdata$3$TA_SUB            0000000180095014     ta_libc_csr:ta_SUB.obj
 0004:00004020       $pdata$5$TA_SUB            0000000180095020     ta_libc_csr:ta_SUB.obj
 0004:0000402c       $pdata$6$TA_SUB            000000018009502c     ta_libc_csr:ta_SUB.obj
 0004:00004038       $pdata$7$TA_SUB            0000000180095038     ta_libc_csr:ta_SUB.obj
 0004:00004044       $pdata$TA_SUM              0000000180095044     ta_libc_csr:ta_SUM.obj
 0004:00004050       $pdata$1$TA_SUM            0000000180095050     ta_libc_csr:ta_SUM.obj
 0004:0000405c       $pdata$2$TA_SUM            000000018009505c     ta_libc_csr:ta_SUM.obj
 0004:00004068       $pdata$3$TA_SUM            0000000180095068     ta_libc_csr:ta_SUM.obj
 0004:00004074       $pdata$TA_T3               0000000180095074     ta_libc_csr:ta_T3.obj
 0004:00004080       $pdata$0$TA_T3             0000000180095080     ta_libc_csr:ta_T3.obj
 0004:0000408c       $pdata$1$TA_T3             000000018009508c     ta_libc_csr:ta_T3.obj
 0004:00004098       $pdata$2$TA_T3             0000000180095098     ta_libc_csr:ta_T3.obj
 0004:000040a4       $pdata$4$TA_T3             00000001800950a4     ta_libc_csr:ta_T3.obj
 0004:000040b0       $pdata$13$TA_T3            00000001800950b0     ta_libc_csr:ta_T3.obj
 0004:000040bc       $pdata$15$TA_T3            00000001800950bc     ta_libc_csr:ta_T3.obj
 0004:000040c8       $pdata$16$TA_T3            00000001800950c8     ta_libc_csr:ta_T3.obj
 0004:000040d4       $pdata$TA_TAN              00000001800950d4     ta_libc_csr:ta_TAN.obj
 0004:000040e0       $pdata$0$TA_TAN            00000001800950e0     ta_libc_csr:ta_TAN.obj
 0004:000040ec       $pdata$3$TA_TAN            00000001800950ec     ta_libc_csr:ta_TAN.obj
 0004:000040f8       $pdata$5$TA_TAN            00000001800950f8     ta_libc_csr:ta_TAN.obj
 0004:00004104       $pdata$6$TA_TAN            0000000180095104     ta_libc_csr:ta_TAN.obj
 0004:00004110       $pdata$7$TA_TAN            0000000180095110     ta_libc_csr:ta_TAN.obj
 0004:0000411c       $pdata$TA_TANH             000000018009511c     ta_libc_csr:ta_TANH.obj
 0004:00004128       $pdata$0$TA_TANH           0000000180095128     ta_libc_csr:ta_TANH.obj
 0004:00004134       $pdata$3$TA_TANH           0000000180095134     ta_libc_csr:ta_TANH.obj
 0004:00004140       $pdata$5$TA_TANH           0000000180095140     ta_libc_csr:ta_TANH.obj
 0004:0000414c       $pdata$6$TA_TANH           000000018009514c     ta_libc_csr:ta_TANH.obj
 0004:00004158       $pdata$7$TA_TANH           0000000180095158     ta_libc_csr:ta_TANH.obj
 0004:00004164       $pdata$TA_TEMA             0000000180095164     ta_libc_csr:ta_TEMA.obj
 0004:00004170       $pdata$0$TA_TEMA           0000000180095170     ta_libc_csr:ta_TEMA.obj
 0004:0000417c       $pdata$2$TA_TEMA           000000018009517c     ta_libc_csr:ta_TEMA.obj
 0004:00004188       $pdata$3$TA_TEMA           0000000180095188     ta_libc_csr:ta_TEMA.obj
 0004:00004194       $pdata$4$TA_TEMA           0000000180095194     ta_libc_csr:ta_TEMA.obj
 0004:000041a0       $pdata$5$TA_TEMA           00000001800951a0     ta_libc_csr:ta_TEMA.obj
 0004:000041ac       $pdata$6$TA_TEMA           00000001800951ac     ta_libc_csr:ta_TEMA.obj
 0004:000041b8       $pdata$7$TA_TEMA           00000001800951b8     ta_libc_csr:ta_TEMA.obj
 0004:000041c4       $pdata$9$TA_TEMA           00000001800951c4     ta_libc_csr:ta_TEMA.obj
 0004:000041d0       $pdata$10$TA_TEMA          00000001800951d0     ta_libc_csr:ta_TEMA.obj
 0004:000041dc       $pdata$TA_TEMA_Lookback    00000001800951dc     ta_libc_csr:ta_TEMA.obj
 0004:000041e8       $pdata$TA_TRANGE           00000001800951e8     ta_libc_csr:ta_TRANGE.obj
 0004:000041f4       $pdata$0$TA_TRANGE         00000001800951f4     ta_libc_csr:ta_TRANGE.obj
 0004:00004200       $pdata$3$TA_TRANGE         0000000180095200     ta_libc_csr:ta_TRANGE.obj
 0004:0000420c       $pdata$5$TA_TRANGE         000000018009520c     ta_libc_csr:ta_TRANGE.obj
 0004:00004218       $pdata$10$TA_TRANGE        0000000180095218     ta_libc_csr:ta_TRANGE.obj
 0004:00004224       $pdata$11$TA_TRANGE        0000000180095224     ta_libc_csr:ta_TRANGE.obj
 0004:00004230       $pdata$12$TA_TRANGE        0000000180095230     ta_libc_csr:ta_TRANGE.obj
 0004:0000423c       $pdata$TA_TRIMA            000000018009523c     ta_libc_csr:ta_TRIMA.obj
 0004:00004248       $pdata$0$TA_TRIMA          0000000180095248     ta_libc_csr:ta_TRIMA.obj
 0004:00004254       $pdata$2$TA_TRIMA          0000000180095254     ta_libc_csr:ta_TRIMA.obj
 0004:00004260       $pdata$11$TA_TRIMA         0000000180095260     ta_libc_csr:ta_TRIMA.obj
 0004:0000426c       $pdata$12$TA_TRIMA         000000018009526c     ta_libc_csr:ta_TRIMA.obj
 0004:00004278       $pdata$TA_TRIX             0000000180095278     ta_libc_csr:ta_TRIX.obj
 0004:00004284       $pdata$1$TA_TRIX           0000000180095284     ta_libc_csr:ta_TRIX.obj
 0004:00004290       $pdata$4$TA_TRIX           0000000180095290     ta_libc_csr:ta_TRIX.obj
 0004:0000429c       $pdata$5$TA_TRIX           000000018009529c     ta_libc_csr:ta_TRIX.obj
 0004:000042a8       $pdata$6$TA_TRIX           00000001800952a8     ta_libc_csr:ta_TRIX.obj
 0004:000042b4       $pdata$7$TA_TRIX           00000001800952b4     ta_libc_csr:ta_TRIX.obj
 0004:000042c0       $pdata$9$TA_TRIX           00000001800952c0     ta_libc_csr:ta_TRIX.obj
 0004:000042cc       $pdata$10$TA_TRIX          00000001800952cc     ta_libc_csr:ta_TRIX.obj
 0004:000042d8       $pdata$TA_TRIX_Lookback    00000001800952d8     ta_libc_csr:ta_TRIX.obj
 0004:000042e4       $pdata$0$TA_TRIX_Lookback  00000001800952e4     ta_libc_csr:ta_TRIX.obj
 0004:000042f0       $pdata$1$TA_TRIX_Lookback  00000001800952f0     ta_libc_csr:ta_TRIX.obj
 0004:000042fc       $pdata$TA_TSF              00000001800952fc     ta_libc_csr:ta_TSF.obj
 0004:00004308       $pdata$0$TA_TSF            0000000180095308     ta_libc_csr:ta_TSF.obj
 0004:00004314       $pdata$1$TA_TSF            0000000180095314     ta_libc_csr:ta_TSF.obj
 0004:00004320       $pdata$2$TA_TSF            0000000180095320     ta_libc_csr:ta_TSF.obj
 0004:0000432c       $pdata$3$TA_TSF            000000018009532c     ta_libc_csr:ta_TSF.obj
 0004:00004338       $pdata$5$TA_TSF            0000000180095338     ta_libc_csr:ta_TSF.obj
 0004:00004344       $pdata$TA_TYPPRICE         0000000180095344     ta_libc_csr:ta_TYPPRICE.obj
 0004:00004350       $pdata$0$TA_TYPPRICE       0000000180095350     ta_libc_csr:ta_TYPPRICE.obj
 0004:0000435c       $pdata$3$TA_TYPPRICE       000000018009535c     ta_libc_csr:ta_TYPPRICE.obj
 0004:00004368       $pdata$8$TA_TYPPRICE       0000000180095368     ta_libc_csr:ta_TYPPRICE.obj
 0004:00004374       $pdata$9$TA_TYPPRICE       0000000180095374     ta_libc_csr:ta_TYPPRICE.obj
 0004:00004380       $pdata$10$TA_TYPPRICE      0000000180095380     ta_libc_csr:ta_TYPPRICE.obj
 0004:0000438c       $pdata$TA_ULTOSC           000000018009538c     ta_libc_csr:ta_ULTOSC.obj
 0004:00004398       $pdata$0$TA_ULTOSC         0000000180095398     ta_libc_csr:ta_ULTOSC.obj
 0004:000043a4       $pdata$3$TA_ULTOSC         00000001800953a4     ta_libc_csr:ta_ULTOSC.obj
 0004:000043b0       $pdata$4$TA_ULTOSC         00000001800953b0     ta_libc_csr:ta_ULTOSC.obj
 0004:000043bc       $pdata$5$TA_ULTOSC         00000001800953bc     ta_libc_csr:ta_ULTOSC.obj
 0004:000043c8       $pdata$15$TA_ULTOSC        00000001800953c8     ta_libc_csr:ta_ULTOSC.obj
 0004:000043d4       $pdata$16$TA_ULTOSC        00000001800953d4     ta_libc_csr:ta_ULTOSC.obj
 0004:000043e0       $pdata$17$TA_ULTOSC        00000001800953e0     ta_libc_csr:ta_ULTOSC.obj
 0004:000043ec       $pdata$18$TA_ULTOSC        00000001800953ec     ta_libc_csr:ta_ULTOSC.obj
 0004:000043f8       $pdata$19$TA_ULTOSC        00000001800953f8     ta_libc_csr:ta_ULTOSC.obj
 0004:00004404       $pdata$TA_ULTOSC_Lookback  0000000180095404     ta_libc_csr:ta_ULTOSC.obj
 0004:00004410       $pdata$TA_INT_VAR          0000000180095410     ta_libc_csr:ta_VAR.obj
 0004:0000441c       $pdata$TA_VAR              000000018009541c     ta_libc_csr:ta_VAR.obj
 0004:00004428       $pdata$TA_WCLPRICE         0000000180095428     ta_libc_csr:ta_WCLPRICE.obj
 0004:00004434       $pdata$0$TA_WCLPRICE       0000000180095434     ta_libc_csr:ta_WCLPRICE.obj
 0004:00004440       $pdata$3$TA_WCLPRICE       0000000180095440     ta_libc_csr:ta_WCLPRICE.obj
 0004:0000444c       $pdata$8$TA_WCLPRICE       000000018009544c     ta_libc_csr:ta_WCLPRICE.obj
 0004:00004458       $pdata$9$TA_WCLPRICE       0000000180095458     ta_libc_csr:ta_WCLPRICE.obj
 0004:00004464       $pdata$10$TA_WCLPRICE      0000000180095464     ta_libc_csr:ta_WCLPRICE.obj
 0004:00004470       $pdata$TA_WILLR            0000000180095470     ta_libc_csr:ta_WILLR.obj
 0004:0000447c       $pdata$5$TA_WILLR          000000018009547c     ta_libc_csr:ta_WILLR.obj
 0004:00004488       $pdata$6$TA_WILLR          0000000180095488     ta_libc_csr:ta_WILLR.obj
 0004:00004494       $pdata$TA_WMA              0000000180095494     ta_libc_csr:ta_WMA.obj
 0004:000044a0       $pdata$0$TA_WMA            00000001800954a0     ta_libc_csr:ta_WMA.obj
 0004:000044ac       $pdata$3$TA_WMA            00000001800954ac     ta_libc_csr:ta_WMA.obj
 0004:000044b8       $pdata$5$TA_WMA            00000001800954b8     ta_libc_csr:ta_WMA.obj
 0004:000044c4       $pdata$10$TA_WMA           00000001800954c4     ta_libc_csr:ta_WMA.obj
 0004:000044d0       $pdata$12$TA_WMA           00000001800954d0     ta_libc_csr:ta_WMA.obj
 0004:000044dc       $pdata$13$TA_WMA           00000001800954dc     ta_libc_csr:ta_WMA.obj
 0004:000044e8       $pdata$15$TA_WMA           00000001800954e8     ta_libc_csr:ta_WMA.obj
 0004:000044f4       $pdata$??0bad_alloc@std@@QEAA@AEBV01@@Z 00000001800954f4     libcpmt:xthrow.obj
 0004:00004500       $pdata$??0exception@std@@QEAA@AEBV01@@Z 0000000180095500     libcpmt:xthrow.obj
 0004:0000450c       $pdata$??0length_error@std@@QEAA@AEBV01@@Z 000000018009550c     libcpmt:xthrow.obj
 0004:00004518       $pdata$??0length_error@std@@QEAA@PEBD@Z 0000000180095518     libcpmt:xthrow.obj
 0004:00004524       $pdata$??0logic_error@std@@QEAA@AEBV01@@Z 0000000180095524     libcpmt:xthrow.obj
 0004:00004530       $pdata$??_Glogic_error@std@@UEAAPEAXI@Z 0000000180095530     libcpmt:xthrow.obj
 0004:00004530       $pdata$??_Gbad_array_new_length@std@@UEAAPEAXI@Z 0000000180095530     LIBCMT:throw_bad_alloc.obj
 0004:00004530       $pdata$??_Gexception@std@@UEAAPEAXI@Z 0000000180095530     libcpmt:xthrow.obj
 0004:00004530       $pdata$??_Gbad_alloc@std@@UEAAPEAXI@Z 0000000180095530     libcpmt:xthrow.obj
 0004:00004530       $pdata$??_Glength_error@std@@UEAAPEAXI@Z 0000000180095530     libcpmt:xthrow.obj
 0004:0000453c       $pdata$?_Xlength_error@std@@YAXPEBD@Z 000000018009553c     libcpmt:xthrow.obj
 0004:00004554       $pdata$??2@YAPEAX_K@Z      0000000180095554     LIBCMT:new_scalar.obj
 0004:00004560       $pdata$?dllmain_crt_dispatch@@YAHQEAUHINSTANCE__@@KQEAX@Z 0000000180095560     LIBCMT:dll_dllmain.obj
 0004:0000456c       $pdata$?dllmain_crt_process_attach@@YAHQEAUHINSTANCE__@@QEAX@Z 000000018009556c     LIBCMT:dll_dllmain.obj
 0004:00004578       $pdata$?dllmain_crt_process_detach@@YAH_N@Z 0000000180095578     LIBCMT:dll_dllmain.obj
 0004:00004584       $pdata$?dllmain_dispatch@@YAHQEAUHINSTANCE__@@KQEAX@Z 0000000180095584     LIBCMT:dll_dllmain.obj
 0004:00004590       $pdata$_DllMainCRTStartup  0000000180095590     LIBCMT:dll_dllmain.obj
 0004:0000459c       $pdata$__GSHandlerCheck    000000018009559c     LIBCMT:gshandler.obj
 0004:000045a8       $pdata$__GSHandlerCheckCommon 00000001800955a8     LIBCMT:gshandler.obj
 0004:000045b4       $pdata$__isa_available_init 00000001800955b4     LIBCMT:cpu_disp.obj
 0004:000045c0       $pdata$??_Gtype_info@@UEAAPEAXI@Z 00000001800955c0     LIBCMT:std_type_info_static.obj
 0004:000045cc       $pdata$__raise_securityfailure 00000001800955cc     LIBCMT:gs_report.obj
 0004:000045d8       $pdata$__report_gsfailure  00000001800955d8     LIBCMT:gs_report.obj
 0004:000045e4       $pdata$__report_rangecheckfailure 00000001800955e4     LIBCMT:gs_report.obj
 0004:000045f0       $pdata$__report_securityfailure 00000001800955f0     LIBCMT:gs_report.obj
 0004:000045fc       $pdata$capture_current_context 00000001800955fc     LIBCMT:gs_report.obj
 0004:00004608       $pdata$capture_previous_context 0000000180095608     LIBCMT:gs_report.obj
 0004:00004614       $pdata$??0bad_array_new_length@std@@QEAA@AEBV01@@Z 0000000180095614     LIBCMT:throw_bad_alloc.obj
 0004:00004620       $pdata$?__scrt_throw_std_bad_alloc@@YAXXZ 0000000180095620     LIBCMT:throw_bad_alloc.obj
 0004:0000462c       $pdata$?__scrt_throw_std_bad_array_new_length@@YAXXZ 000000018009562c     LIBCMT:throw_bad_alloc.obj
 0004:00004638       $pdata$__security_init_cookie 0000000180095638     LIBCMT:gs_support.obj
 0004:00004644       $pdata$__scrt_initialize_default_local_stdio_options 0000000180095644     LIBCMT:default_local_stdio_options.obj
 0004:00004650       $pdata$__scrt_acquire_startup_lock 0000000180095650     LIBCMT:utility.obj
 0004:0000465c       $pdata$__scrt_dllmain_after_initialize_c 000000018009565c     LIBCMT:utility.obj
 0004:00004668       $pdata$__scrt_dllmain_before_initialize_c 0000000180095668     LIBCMT:utility.obj
 0004:00004674       $pdata$__scrt_dllmain_crt_thread_attach 0000000180095674     LIBCMT:utility.obj
 0004:00004680       $pdata$__scrt_dllmain_crt_thread_detach 0000000180095680     LIBCMT:utility.obj
 0004:0000468c       $pdata$__scrt_dllmain_exception_filter 000000018009568c     LIBCMT:utility.obj
 0004:00004698       $pdata$__scrt_dllmain_uninitialize_c 0000000180095698     LIBCMT:utility.obj
 0004:000046a4       $pdata$__scrt_dllmain_uninitialize_critical 00000001800956a4     LIBCMT:utility.obj
 0004:000046b0       $pdata$__scrt_initialize_crt 00000001800956b0     LIBCMT:utility.obj
 0004:000046bc       $pdata$__scrt_initialize_onexit_tables 00000001800956bc     LIBCMT:utility.obj
 0004:000046c8       $pdata$__scrt_is_nonwritable_in_current_image 00000001800956c8     LIBCMT:utility.obj
 0004:000046d4       $pdata$__scrt_release_startup_lock 00000001800956d4     LIBCMT:utility.obj
 0004:000046e0       $pdata$__scrt_uninitialize_crt 00000001800956e0     LIBCMT:utility.obj
 0004:000046ec       $pdata$__scrt_fastfail     00000001800956ec     LIBCMT:utility_desktop.obj
 0004:000046f8       $pdata$_RTC_Initialize     00000001800956f8     LIBCMT:initsect.obj
 0004:00004704       $pdata$_RTC_Terminate      0000000180095704     LIBCMT:initsect.obj
 0004:00004710       $pdata$_purecall           0000000180095710     libvcruntime:purevirt.obj
 0004:0000474c       $pdata$__std_exception_copy 000000018009574c     libvcruntime:std_exception.obj
 0004:00004758       $pdata$__std_exception_destroy 0000000180095758     libvcruntime:std_exception.obj
 0004:00004764       $pdata$_CxxThrowException  0000000180095764     libvcruntime:throw.obj
 0004:00004770       $pdata$__C_specific_handler 0000000180095770     libvcruntime:riscchandler.obj
 0004:0000477c       $pdata$__std_type_info_destroy_list 000000018009577c     libvcruntime:std_type_info.obj
 0004:00004788       $pdata$__vcrt_initialize   0000000180095788     libvcruntime:initialization.obj
 0004:00004794       $pdata$__vcrt_thread_attach 0000000180095794     libvcruntime:initialization.obj
 0004:000047a0       $pdata$__vcrt_thread_detach 00000001800957a0     libvcruntime:initialization.obj
 0004:000047ac       $pdata$__vcrt_uninitialize 00000001800957ac     libvcruntime:initialization.obj
 0004:000047b8       $pdata$__vcrt_uninitialize_critical 00000001800957b8     libvcruntime:initialization.obj
 0004:000047e8       $pdata$__DestructExceptionObject 00000001800957e8     libvcruntime:ehhelpers.obj
 0004:000047f4       $pdata$__vcrt_freefls      00000001800957f4     libvcruntime:per_thread_data.obj
 0004:00004800       $pdata$__vcrt_freeptd      0000000180095800     libvcruntime:per_thread_data.obj
 0004:0000480c       $pdata$__vcrt_getptd_noexit 000000018009580c     libvcruntime:per_thread_data.obj
 0004:00004818       $pdata$__vcrt_initialize_ptd 0000000180095818     libvcruntime:per_thread_data.obj
 0004:00004824       $pdata$__vcrt_uninitialize_ptd 0000000180095824     libvcruntime:per_thread_data.obj
 0004:00004830       $pdata$__vcrt_initialize_locks 0000000180095830     libvcruntime:locks.obj
 0004:0000483c       $pdata$__vcrt_uninitialize_locks 000000018009583c     libvcruntime:locks.obj
 0004:00004848       $pdata$?try_get_function@@YAPEAXW4function_id@?A0xbfd18cd1@@QEBDQEBW4module_id@2@2@Z 0000000180095848     libvcruntime:winapi_downlevel.obj
 0004:00004854       $pdata$__vcrt_FlsAlloc     0000000180095854     libvcruntime:winapi_downlevel.obj
 0004:00004860       $pdata$__vcrt_FlsFree      0000000180095860     libvcruntime:winapi_downlevel.obj
 0004:0000486c       $pdata$__vcrt_FlsGetValue  000000018009586c     libvcruntime:winapi_downlevel.obj
 0004:00004878       $pdata$__vcrt_FlsSetValue  0000000180095878     libvcruntime:winapi_downlevel.obj
 0004:00004884       $pdata$__vcrt_InitializeCriticalSectionEx 0000000180095884     libvcruntime:winapi_downlevel.obj
 0004:00004890       $pdata$__vcrt_initialize_winapi_thunks 0000000180095890     libvcruntime:winapi_downlevel.obj
 0004:0000489c       $pdata$__vcrt_uninitialize_winapi_thunks 000000018009589c     libvcruntime:winapi_downlevel.obj
 0004:000048c0       $pdata$??$common_assert_to_message_box@_W@@YAXQEB_W0IQEAX@Z 00000001800958c0     libucrt:assert.obj
 0004:000048cc       $pdata$??$common_assert_to_message_box_build_string@_W@@YAXQEA_W_KQEB_W2IQEAX@Z 00000001800958cc     libucrt:assert.obj
 0004:000048d8       $pdata$??$common_assert_to_stderr@_W@@YAXQEB_W0I@Z 00000001800958d8     libucrt:assert.obj
 0004:000048e4       $pdata$_wassert            00000001800958e4     libucrt:assert.obj
 0004:000048f0       $pdata$fwprintf            00000001800958f0     libucrt:assert.obj
 0004:000048fc       $pdata$swprintf            00000001800958fc     libucrt:assert.obj
 0004:00004908       $pdata$__acrt_call_reportfault 0000000180095908     libucrt:invalid_parameter.obj
 0004:00004914       $pdata$_invalid_parameter  0000000180095914     libucrt:invalid_parameter.obj
 0004:00004920       $pdata$_invalid_parameter_noinfo 0000000180095920     libucrt:invalid_parameter.obj
 0004:0000492c       $pdata$_invalid_parameter_noinfo_noreturn 000000018009592c     libucrt:invalid_parameter.obj
 0004:00004938       $pdata$_invoke_watson      0000000180095938     libucrt:invalid_parameter.obj
 0004:00004944       $pdata$??0_LocaleUpdate@@QEAA@QEAU__crt_locale_pointers@@@Z 0000000180095944     libucrt:stricmp.obj
 0004:00004950       $pdata$_stricmp            0000000180095950     libucrt:stricmp.obj
 0004:0000495c       $pdata$_stricmp_l          000000018009595c     libucrt:stricmp.obj
 0004:00004968       $pdata$?internal_isupper_l@@YA_NHQEAU__crt_locale_pointers@@@Z 0000000180095968     libucrt:tolower_toupper.obj
 0004:00004974       $pdata$_tolower_l          0000000180095974     libucrt:tolower_toupper.obj
 0004:00004980       $pdata$tolower             0000000180095980     libucrt:tolower_toupper.obj
 0004:0000498c       $pdata$acos                000000018009598c     libucrt:acos.obj
 0004:00004998       $pdata$asin                0000000180095998     libucrt:asin.obj
 0004:000049a4       $pdata$atan                00000001800959a4     libucrt:atan.obj
 0004:000049b0       $pdata$sqrt                00000001800959b0     libucrt:sqrt.obj
 0004:000049c8       $pdata$cosh                00000001800959c8     libucrt:cosh.obj
 0004:000049d4       $pdata$splitexp            00000001800959d4     libucrt:cosh.obj
 0004:00004a10       $pdata$sinh                0000000180095a10     libucrt:sinh.obj
 0004:00004a1c       $pdata$splitexp            0000000180095a1c     libucrt:sinh.obj
 0004:00004a40       $pdata$splitexp            0000000180095a40     libucrt:tanh.obj
 0004:00004a4c       $pdata$tanh                0000000180095a4c     libucrt:tanh.obj
 0004:00004a58       $pdata$_callnewh           0000000180095a58     libucrt:new_handler.obj
 0004:00004a64       $pdata$_query_new_handler  0000000180095a64     libucrt:new_handler.obj
 0004:00004a70       $pdata$_initterm           0000000180095a70     libucrt:initterm.obj
 0004:00004a7c       $pdata$_initterm_e         0000000180095a7c     libucrt:initterm.obj
 0004:00004a88       $pdata$_seh_filter_exe     0000000180095a88     libucrt:exception_filter.obj
 0004:00004a94       $pdata$??$?RV<lambda_d80eeec6fff315bfe5c115232f3240e3>@@AEAV<lambda_6e4b09c48022b2350581041d5f6b0c4c>@@V<lambda_2358e3775559c9db80273638284d5e45>@@@?$__crt_seh_guarded_call@X@@QEAAX$$QEAV<lambda_d80eeec6fff315bfe5c115232f3240e3>@@AEAV<lambda_6e4b09c48022b2350581041d5f6b0c4c>@@$$QEAV<lambda_2358e3775559c9db80273638284d5e45>@@@Z 0000000180095a94     libucrt:exit.obj
 0004:00004aa0       $pdata$??R<lambda_6e4b09c48022b2350581041d5f6b0c4c>@@QEBA@XZ 0000000180095aa0     libucrt:exit.obj
 0004:00004aac       $pdata$?common_exit@@YAXHW4_crt_exit_cleanup_mode@@W4_crt_exit_return_mode@@@Z 0000000180095aac     libucrt:exit.obj
 0004:00004ab8       $pdata$?exit_or_terminate_process@@YAXI@Z 0000000180095ab8     libucrt:exit.obj
 0004:00004ac4       $pdata$?try_cor_exit_process@@YAXI@Z 0000000180095ac4     libucrt:exit.obj
 0004:00004ad0       $pdata$??$parse_command_line@D@@YAXPEADPEAPEAD0PEA_K2@Z 0000000180095ad0     libucrt:argv_parsing.obj
 0004:00004adc       $pdata$__acrt_allocate_buffer_for_argv 0000000180095adc     libucrt:argv_parsing.obj
 0004:00004ae8       $pdata$_configure_narrow_argv 0000000180095ae8     libucrt:argv_parsing.obj
 0004:00004af4       $pdata$??$common_initialize_environment_nolock@D@@YAHXZ 0000000180095af4     libucrt:environment_initialization.obj
 0004:00004b00       $pdata$??$create_environment@D@@YAQEAPEADQEAD@Z 0000000180095b00     libucrt:environment_initialization.obj
 0004:00004b0c       $pdata$??$free_environment@D@@YAXQEAPEAD@Z 0000000180095b0c     libucrt:environment_initialization.obj
 0004:00004b0c       $pdata$??$free_environment@_W@@YAXQEAPEA_W@Z 0000000180095b0c     libucrt:environment_initialization.obj
 0004:00004b18       $pdata$??$uninitialize_environment_internal@D@@YAXAEAPEAPEAD@Z 0000000180095b18     libucrt:environment_initialization.obj
 0004:00004b24       $pdata$??$uninitialize_environment_internal@_W@@YAXAEAPEAPEA_W@Z 0000000180095b24     libucrt:environment_initialization.obj
 0004:00004b30       $pdata$__dcrt_uninitialize_environments_nolock 0000000180095b30     libucrt:environment_initialization.obj
 0004:00004b3c       $pdata$??$?RV<lambda_7777bce6b2f8c936911f934f8298dc43>@@AEAV<lambda_f03950bc5685219e0bcd2087efbe011e>@@V<lambda_3883c3dff614d5e0c5f61bb1ac94921c>@@@?$__crt_seh_guarded_call@H@@QEAAH$$QEAV<lambda_7777bce6b2f8c936911f934f8298dc43>@@AEAV<lambda_f03950bc5685219e0bcd2087efbe011e>@@$$QEAV<lambda_3883c3dff614d5e0c5f61bb1ac94921c>@@@Z 0000000180095b3c     libucrt:onexit.obj
 0004:00004b48       $pdata$??R<lambda_f03950bc5685219e0bcd2087efbe011e>@@QEBAHXZ 0000000180095b48     libucrt:onexit.obj
 0004:00004b54       $pdata$_execute_onexit_table 0000000180095b54     libucrt:onexit.obj
 0004:00004b60       $pdata$initialize_c        0000000180095b60     libucrt:initialization.obj
 0004:00004b6c       $pdata$uninitialize_environment 0000000180095b6c     libucrt:initialization.obj
 0004:00004b78       $pdata$initialize_pointers 0000000180095b78     libucrt:initialization.obj
 0004:00004b84       $pdata$uninitialize_allocated_memory 0000000180095b84     libucrt:initialization.obj
 0004:00004b90       $pdata$uninitialize_allocated_io_buffers 0000000180095b90     libucrt:initialization.obj
 0004:00004b9c       $pdata$__acrt_thread_attach 0000000180095b9c     libucrt:initialization.obj
 0004:00004ba8       $pdata$__acrt_thread_detach 0000000180095ba8     libucrt:initialization.obj
 0004:00004bb4       $pdata$__acrt_uninitialize 0000000180095bb4     libucrt:initialization.obj
 0004:00004bc0       $pdata$__acrt_uninitialize_critical 0000000180095bc0     libucrt:initialization.obj
 0004:00004bcc       $pdata$terminate           0000000180095bcc     libucrt:terminate.obj
 0004:00004bd8       $pdata$abort               0000000180095bd8     libucrt:abort.obj
 0004:00004be4       $pdata$strcpy_s            0000000180095be4     libucrt:strcpy_s.obj
 0004:00004bf0       $pdata$??$?RV<lambda_0d412022a4b28cc8a401ea49574e8ae6>@@AEAV<lambda_a775ed57af18ba8e4d5dc780aa9068fe>@@V<lambda_975a71a6baa488a08f4e15f6b0339b9e>@@@?$__crt_seh_guarded_call@H@@QEAAH$$QEAV<lambda_0d412022a4b28cc8a401ea49574e8ae6>@@AEAV<lambda_a775ed57af18ba8e4d5dc780aa9068fe>@@$$QEAV<lambda_975a71a6baa488a08f4e15f6b0339b9e>@@@Z 0000000180095bf0     libucrt:output.obj
 0004:00004bfc       $pdata$??$common_vsprintf@Vstandard_base@__crt_stdio_output@@_W@@YAH_KQEA_W0QEB_WQEAU__crt_locale_pointers@@QEAD@Z 0000000180095bfc     libucrt:output.obj
 0004:00004c08       $pdata$??$ensure_buffer_is_big_enough@D@formatting_buffer@__crt_stdio_output@@QEAA_N_K@Z 0000000180095c08     libucrt:output.obj
 0004:00004c14       $pdata$??$ensure_buffer_is_big_enough@_W@formatting_buffer@__crt_stdio_output@@QEAA_N_K@Z 0000000180095c14     libucrt:output.obj
 0004:00004c20       $pdata$??$type_case_integer_parse_into_buffer@I@?$output_processor@_WV?$string_output_adapter@_W@__crt_stdio_output@@V?$standard_base@_WV?$string_output_adapter@_W@__crt_stdio_output@@@2@@__crt_stdio_output@@AEAAXII_N@Z 0000000180095c20     libucrt:output.obj
 0004:00004c20       $pdata$??$type_case_integer_parse_into_buffer@I@?$output_processor@_WV?$stream_output_adapter@_W@__crt_stdio_output@@V?$standard_base@_WV?$stream_output_adapter@_W@__crt_stdio_output@@@2@@__crt_stdio_output@@AEAAXII_N@Z 0000000180095c20     libucrt:output.obj
 0004:00004c2c       $pdata$??$type_case_integer_parse_into_buffer@_K@?$output_processor@_WV?$stream_output_adapter@_W@__crt_stdio_output@@V?$standard_base@_WV?$stream_output_adapter@_W@__crt_stdio_output@@@2@@__crt_stdio_output@@AEAAX_KI_N@Z 0000000180095c2c     libucrt:output.obj
 0004:00004c2c       $pdata$??$type_case_integer_parse_into_buffer@_K@?$output_processor@_WV?$string_output_adapter@_W@__crt_stdio_output@@V?$standard_base@_WV?$string_output_adapter@_W@__crt_stdio_output@@@2@@__crt_stdio_output@@AEAAX_KI_N@Z 0000000180095c2c     libucrt:output.obj
 0004:00004c38       $pdata$??$write_multiple_characters@V?$stream_output_adapter@_W@__crt_stdio_output@@D@__crt_stdio_output@@YAXAEBV?$stream_output_adapter@_W@0@DHQEAH@Z 0000000180095c38     libucrt:output.obj
 0004:00004c44       $pdata$??$write_multiple_characters@V?$string_output_adapter@_W@__crt_stdio_output@@D@__crt_stdio_output@@YAXAEBV?$string_output_adapter@_W@0@DHQEAH@Z 0000000180095c44     libucrt:output.obj
 0004:00004c50       $pdata$??R<lambda_a775ed57af18ba8e4d5dc780aa9068fe>@@QEBAHXZ 0000000180095c50     libucrt:output.obj
 0004:00004c5c       $pdata$?force_decimal_point@__crt_stdio_output@@YAXPEADQEAU__crt_locale_pointers@@@Z 0000000180095c5c     libucrt:output.obj
 0004:00004c68       $pdata$?parse_int_from_format_string@?$output_processor@_WV?$stream_output_adapter@_W@__crt_stdio_output@@V?$standard_base@_WV?$stream_output_adapter@_W@__crt_stdio_output@@@2@@__crt_stdio_output@@AEAA_NQEAH@Z 0000000180095c68     libucrt:output.obj
 0004:00004c68       $pdata$?parse_int_from_format_string@?$output_processor@_WV?$string_output_adapter@_W@__crt_stdio_output@@V?$standard_base@_WV?$string_output_adapter@_W@__crt_stdio_output@@@2@@__crt_stdio_output@@AEAA_NQEAH@Z 0000000180095c68     libucrt:output.obj
 0004:00004c74       $pdata$?process@?$output_processor@_WV?$stream_output_adapter@_W@__crt_stdio_output@@V?$standard_base@_WV?$stream_output_adapter@_W@__crt_stdio_output@@@2@@__crt_stdio_output@@QEAAHXZ 0000000180095c74     libucrt:output.obj
 0004:00004c80       $pdata$?process@?$output_processor@_WV?$string_output_adapter@_W@__crt_stdio_output@@V?$standard_base@_WV?$string_output_adapter@_W@__crt_stdio_output@@@2@@__crt_stdio_output@@QEAAHXZ 0000000180095c80     libucrt:output.obj
 0004:00004c8c       $pdata$?state_case_size@?$output_processor@_WV?$stream_output_adapter@_W@__crt_stdio_output@@V?$standard_base@_WV?$stream_output_adapter@_W@__crt_stdio_output@@@2@@__crt_stdio_output@@AEAA_NXZ 0000000180095c8c     libucrt:output.obj
 0004:00004c98       $pdata$?state_case_size@?$output_processor@_WV?$string_output_adapter@_W@__crt_stdio_output@@V?$standard_base@_WV?$string_output_adapter@_W@__crt_stdio_output@@@2@@__crt_stdio_output@@AEAA_NXZ 0000000180095c98     libucrt:output.obj
 0004:00004ca4       $pdata$?state_case_type@?$output_processor@_WV?$stream_output_adapter@_W@__crt_stdio_output@@V?$standard_base@_WV?$stream_output_adapter@_W@__crt_stdio_output@@@2@@__crt_stdio_output@@AEAA_NXZ 0000000180095ca4     libucrt:output.obj
 0004:00004cb0       $pdata$?state_case_type@?$output_processor@_WV?$string_output_adapter@_W@__crt_stdio_output@@V?$standard_base@_WV?$string_output_adapter@_W@__crt_stdio_output@@@2@@__crt_stdio_output@@AEAA_NXZ 0000000180095cb0     libucrt:output.obj
 0004:00004cbc       $pdata$?type_case_Z@?$output_processor@_WV?$stream_output_adapter@_W@__crt_stdio_output@@V?$standard_base@_WV?$stream_output_adapter@_W@__crt_stdio_output@@@2@@__crt_stdio_output@@AEAA_NXZ 0000000180095cbc     libucrt:output.obj
 0004:00004cbc       $pdata$?type_case_Z@?$output_processor@_WV?$string_output_adapter@_W@__crt_stdio_output@@V?$standard_base@_WV?$string_output_adapter@_W@__crt_stdio_output@@@2@@__crt_stdio_output@@AEAA_NXZ 0000000180095cbc     libucrt:output.obj
 0004:00004cc8       $pdata$?type_case_a@?$output_processor@_WV?$string_output_adapter@_W@__crt_stdio_output@@V?$standard_base@_WV?$string_output_adapter@_W@__crt_stdio_output@@@2@@__crt_stdio_output@@AEAA_NXZ 0000000180095cc8     libucrt:output.obj
 0004:00004cc8       $pdata$?type_case_a@?$output_processor@_WV?$stream_output_adapter@_W@__crt_stdio_output@@V?$standard_base@_WV?$stream_output_adapter@_W@__crt_stdio_output@@@2@@__crt_stdio_output@@AEAA_NXZ 0000000180095cc8     libucrt:output.obj
 0004:00004cd4       $pdata$?type_case_c_tchar@?$output_processor@_WV?$stream_output_adapter@_W@__crt_stdio_output@@V?$standard_base@_WV?$stream_output_adapter@_W@__crt_stdio_output@@@2@@__crt_stdio_output@@AEAA_N_W@Z 0000000180095cd4     libucrt:output.obj
 0004:00004cd4       $pdata$?type_case_c_tchar@?$output_processor@_WV?$string_output_adapter@_W@__crt_stdio_output@@V?$standard_base@_WV?$string_output_adapter@_W@__crt_stdio_output@@@2@@__crt_stdio_output@@AEAA_N_W@Z 0000000180095cd4     libucrt:output.obj
 0004:00004ce0       $pdata$?type_case_integer@?$output_processor@_WV?$string_output_adapter@_W@__crt_stdio_output@@V?$standard_base@_WV?$string_output_adapter@_W@__crt_stdio_output@@@2@@__crt_stdio_output@@AEAA_NI_N@Z 0000000180095ce0     libucrt:output.obj
 0004:00004ce0       $pdata$?type_case_integer@?$output_processor@_WV?$stream_output_adapter@_W@__crt_stdio_output@@V?$standard_base@_WV?$stream_output_adapter@_W@__crt_stdio_output@@@2@@__crt_stdio_output@@AEAA_NI_N@Z 0000000180095ce0     libucrt:output.obj
 0004:00004cec       $pdata$?type_case_n@?$output_processor@_WV?$string_output_adapter@_W@__crt_stdio_output@@V?$standard_base@_WV?$string_output_adapter@_W@__crt_stdio_output@@@2@@__crt_stdio_output@@AEAA_NXZ 0000000180095cec     libucrt:output.obj
 0004:00004cec       $pdata$?type_case_n@?$output_processor@_WV?$stream_output_adapter@_W@__crt_stdio_output@@V?$standard_base@_WV?$stream_output_adapter@_W@__crt_stdio_output@@@2@@__crt_stdio_output@@AEAA_NXZ 0000000180095cec     libucrt:output.obj
 0004:00004cf8       $pdata$?type_case_s@?$output_processor@_WV?$stream_output_adapter@_W@__crt_stdio_output@@V?$standard_base@_WV?$stream_output_adapter@_W@__crt_stdio_output@@@2@@__crt_stdio_output@@AEAA_NXZ 0000000180095cf8     libucrt:output.obj
 0004:00004cf8       $pdata$?type_case_s@?$output_processor@_WV?$string_output_adapter@_W@__crt_stdio_output@@V?$standard_base@_WV?$string_output_adapter@_W@__crt_stdio_output@@@2@@__crt_stdio_output@@AEAA_NXZ 0000000180095cf8     libucrt:output.obj
 0004:00004d04       $pdata$?write_stored_string_tchar@?$output_processor@_WV?$stream_output_adapter@_W@__crt_stdio_output@@V?$standard_base@_WV?$stream_output_adapter@_W@__crt_stdio_output@@@2@@__crt_stdio_output@@AEAA_N_W@Z 0000000180095d04     libucrt:output.obj
 0004:00004d10       $pdata$?write_stored_string_tchar@?$output_processor@_WV?$string_output_adapter@_W@__crt_stdio_output@@V?$standard_base@_WV?$string_output_adapter@_W@__crt_stdio_output@@@2@@__crt_stdio_output@@AEAA_N_W@Z 0000000180095d10     libucrt:output.obj
 0004:00004d1c       $pdata$?write_string@?$string_output_adapter@_W@__crt_stdio_output@@QEBAXQEB_WHQEAHAEAV__crt_deferred_errno_cache@@@Z 0000000180095d1c     libucrt:output.obj
 0004:00004d28       $pdata$?write_string_impl@?$output_adapter_common@_WV?$stream_output_adapter@_W@__crt_stdio_output@@@__crt_stdio_output@@IEBAXQEB_WHQEAHAEAV__crt_deferred_errno_cache@@@Z 0000000180095d28     libucrt:output.obj
 0004:00004d34       $pdata$__stdio_common_vfwprintf 0000000180095d34     libucrt:output.obj
 0004:00004d40       $pdata$??$parse_integer@KV?$c_string_character_source@_W@__crt_strtox@@@__crt_strtox@@YAKQEAU__crt_locale_pointers@@V?$c_string_character_source@_W@0@H_N@Z 0000000180095d40     libucrt:atox.obj
 0004:00004d58       $pdata$_free_base          0000000180095d58     libucrt:free_base.obj
 0004:00004d64       $pdata$__acrt_errno_map_os_error 0000000180095d64     libucrt:errno.obj
 0004:00004d70       $pdata$__doserrno          0000000180095d70     libucrt:errno.obj
 0004:00004d7c       $pdata$_errno              0000000180095d7c     libucrt:errno.obj
 0004:00004d88       $pdata$??$common_xtox@K_W@@YAHKQEA_W_KI_N@Z 0000000180095d88     libucrt:xtoa.obj
 0004:00004d94       $pdata$??$common_xtox_s@K_W@@YAHKQEA_W_KI_N@Z 0000000180095d94     libucrt:xtoa.obj
 0004:00004da0       $pdata$_itow_s             0000000180095da0     libucrt:xtoa.obj
 0004:00004dac       $pdata$_set_error_mode     0000000180095dac     libucrt:set_error_mode.obj
 0004:00004db8       $pdata$wcscat_s            0000000180095db8     libucrt:wcscat_s.obj
 0004:00004dc4       $pdata$wcscpy_s            0000000180095dc4     libucrt:wcscpy_s.obj
 0004:00004dd0       $pdata$wcsncat_s           0000000180095dd0     libucrt:wcsncat_s.obj
 0004:00004ddc       $pdata$??$__acrt_wcs_to_mbs_cp@U__crt_win32_buffer_no_resizing@@@@YAHQEB_WAEAV?$__crt_win32_buffer@DU__crt_win32_buffer_no_resizing@@@@I@Z 0000000180095ddc     libucrt:getmodulefilenamea.obj
 0004:00004de8       $pdata$__acrt_GetModuleFileNameA 0000000180095de8     libucrt:getmodulefilenamea.obj
 0004:00004df4       $pdata$__acrt_show_wide_message_box 0000000180095df4     libucrt:crtmbox.obj
 0004:00004e00       $pdata$__acrt_initialize_stdio 0000000180095e00     libucrt:_file.obj
 0004:00004e0c       $pdata$__acrt_uninitialize_stdio 0000000180095e0c     libucrt:_file.obj
 0004:00004e18       $pdata$??$?RV<lambda_842d9ff0dc9ef11c61343bbaebe7f885>@@AEAV<lambda_c5860995281e5c4ce005b3de8f5874ee>@@V<lambda_d90129c13df834fdcbf8d2b88dafcf2d>@@@?$__crt_seh_guarded_call@X@@QEAAX$$QEAV<lambda_842d9ff0dc9ef11c61343bbaebe7f885>@@AEAV<lambda_c5860995281e5c4ce005b3de8f5874ee>@@$$QEAV<lambda_d90129c13df834fdcbf8d2b88dafcf2d>@@@Z 0000000180095e18     libucrt:fflush.obj
 0004:00004e24       $pdata$??$?RV<lambda_886d6c58226a84441f68b9f2b8217b83>@@AEAV<lambda_ab61a845afdef5b7c387490eaf3616ee>@@V<lambda_f7f22ab5edc0698d5f6905b0d3f44752>@@@?$__crt_seh_guarded_call@X@@QEAAX$$QEAV<lambda_886d6c58226a84441f68b9f2b8217b83>@@AEAV<lambda_ab61a845afdef5b7c387490eaf3616ee>@@$$QEAV<lambda_f7f22ab5edc0698d5f6905b0d3f44752>@@@Z 0000000180095e24     libucrt:fflush.obj
 0004:00004e30       $pdata$??$?RV<lambda_c376a267cfb53b6959b3b692ec76b120>@@AEAV<lambda_9a32fed5bf61b6b509b2d3f6003082a1>@@V<lambda_572fbb9fa0ab338edf41edfd4b5fcc8d>@@@?$__crt_seh_guarded_call@H@@QEAAH$$QEAV<lambda_c376a267cfb53b6959b3b692ec76b120>@@AEAV<lambda_9a32fed5bf61b6b509b2d3f6003082a1>@@$$QEAV<lambda_572fbb9fa0ab338edf41edfd4b5fcc8d>@@@Z 0000000180095e30     libucrt:fflush.obj
 0004:00004e3c       $pdata$?common_flush_all@@YAH_N@Z 0000000180095e3c     libucrt:fflush.obj
 0004:00004e48       $pdata$__acrt_stdio_flush_nolock 0000000180095e48     libucrt:fflush.obj
 0004:00004e54       $pdata$_fflush_nolock      0000000180095e54     libucrt:fflush.obj
 0004:00004e60       $pdata$fflush              0000000180095e60     libucrt:fflush.obj
 0004:00004e6c       $pdata$??$?RV<lambda_84ec643ea9557e2f7dc01bb0e9624395>@@AEAV<lambda_ca71763b3c0644891230e4f79ea54fa6>@@V<lambda_439a761618c59b0600e24586724d733b>@@@?$__crt_seh_guarded_call@H@@QEAAH$$QEAV<lambda_84ec643ea9557e2f7dc01bb0e9624395>@@AEAV<lambda_ca71763b3c0644891230e4f79ea54fa6>@@$$QEAV<lambda_439a761618c59b0600e24586724d733b>@@@Z 0000000180095e6c     libucrt:setvbuf.obj
 0004:00004e78       $pdata$??R<lambda_ca71763b3c0644891230e4f79ea54fa6>@@QEBAHXZ 0000000180095e78     libucrt:setvbuf.obj
 0004:00004e84       $pdata$setvbuf             0000000180095e84     libucrt:setvbuf.obj
 0004:00004e90       $pdata$??$?RV<lambda_450d765d439847d4c735a33c368b5fc0>@@AEAV<lambda_44731a7d0e6d81c3e6aa82d741081786>@@V<lambda_601a2a7da3b7a96e9554ac7215c4b07c>@@@?$__crt_seh_guarded_call@P6AXH@Z@@QEAAP6AXH@Z$$QEAV<lambda_450d765d439847d4c735a33c368b5fc0>@@AEAV<lambda_44731a7d0e6d81c3e6aa82d741081786>@@$$QEAV<lambda_601a2a7da3b7a96e9554ac7215c4b07c>@@@Z 0000000180095e90     libucrt:signal.obj
 0004:00004e9c       $pdata$__acrt_get_sigabrt_handler 0000000180095e9c     libucrt:signal.obj
 0004:00004ea8       $pdata$raise               0000000180095ea8     libucrt:signal.obj
 0004:00004eb4       $pdata$??$?RV<lambda_0ae27a3a962d80f24befdcbee591983d>@@AEAV<lambda_8d0ee55de4b1038c4002e0adecdf1839>@@V<lambda_dc504788e8f1664fe9b84e20bfb512f2>@@@?$__crt_seh_guarded_call@X@@QEAAX$$QEAV<lambda_0ae27a3a962d80f24befdcbee591983d>@@AEAV<lambda_8d0ee55de4b1038c4002e0adecdf1839>@@$$QEAV<lambda_dc504788e8f1664fe9b84e20bfb512f2>@@@Z 0000000180095eb4     libucrt:per_thread_data.obj
 0004:00004ec0       $pdata$??$?RV<lambda_2d41944a1d46af3157314b8a01080d33>@@AEAV<lambda_8f455de75cd7d7f24b4096f044d8b9e6>@@V<lambda_aa500f224e6afead328df44964fe2772>@@@?$__crt_seh_guarded_call@X@@QEAAX$$QEAV<lambda_2d41944a1d46af3157314b8a01080d33>@@AEAV<lambda_8f455de75cd7d7f24b4096f044d8b9e6>@@$$QEAV<lambda_aa500f224e6afead328df44964fe2772>@@@Z 0000000180095ec0     libucrt:per_thread_data.obj
 0004:00004ecc       $pdata$??$?RV<lambda_aa87e3671a710a21b5dc78c0bdf72e11>@@AEAV<lambda_92619d2358a28f41a33ba319515a20b9>@@V<lambda_6992ecaafeb10aed2b74cb1fae11a551>@@@?$__crt_seh_guarded_call@X@@QEAAX$$QEAV<lambda_aa87e3671a710a21b5dc78c0bdf72e11>@@AEAV<lambda_92619d2358a28f41a33ba319515a20b9>@@$$QEAV<lambda_6992ecaafeb10aed2b74cb1fae11a551>@@@Z 0000000180095ecc     libucrt:per_thread_data.obj
 0004:00004ed8       $pdata$??$?RV<lambda_f2e299630e499de9f9a165e60fcd3db5>@@AEAV<lambda_2ae9d31cdba2644fcbeaf08da7c24588>@@V<lambda_40d01ff24d0e7b3814fdbdcee8eab3c7>@@@?$__crt_seh_guarded_call@X@@QEAAX$$QEAV<lambda_f2e299630e499de9f9a165e60fcd3db5>@@AEAV<lambda_2ae9d31cdba2644fcbeaf08da7c24588>@@$$QEAV<lambda_40d01ff24d0e7b3814fdbdcee8eab3c7>@@@Z 0000000180095ed8     libucrt:per_thread_data.obj
 0004:00004ee4       $pdata$?construct_ptd_array@@YAXQEAU__acrt_ptd@@@Z 0000000180095ee4     libucrt:per_thread_data.obj
 0004:00004ef0       $pdata$?destroy_fls@@YAXPEAX@Z 0000000180095ef0     libucrt:per_thread_data.obj
 0004:00004efc       $pdata$?destroy_ptd_array@@YAXQEAU__acrt_ptd@@@Z 0000000180095efc     libucrt:per_thread_data.obj
 0004:00004f08       $pdata$?replace_current_thread_locale_nolock@@YAXQEAU__acrt_ptd@@QEAU__crt_locale_data@@@Z 0000000180095f08     libucrt:per_thread_data.obj
 0004:00004f14       $pdata$__acrt_freeptd      0000000180095f14     libucrt:per_thread_data.obj
 0004:00004f20       $pdata$__acrt_getptd       0000000180095f20     libucrt:per_thread_data.obj
 0004:00004f2c       $pdata$__acrt_getptd_head  0000000180095f2c     libucrt:per_thread_data.obj
 0004:00004f38       $pdata$__acrt_getptd_noexit 0000000180095f38     libucrt:per_thread_data.obj
 0004:00004f44       $pdata$__acrt_initialize_ptd 0000000180095f44     libucrt:per_thread_data.obj
 0004:00004f50       $pdata$__acrt_uninitialize_ptd 0000000180095f50     libucrt:per_thread_data.obj
 0004:00004f5c       $pdata$_malloc_base        0000000180095f5c     libucrt:malloc_base.obj
 0004:00004f68       $pdata$__acrt_update_locale_info 0000000180095f68     libucrt:locale_update.obj
 0004:00004f74       $pdata$__acrt_update_multibyte_info 0000000180095f74     libucrt:locale_update.obj
 0004:00004f80       $pdata$??$?RV<lambda_410d79af7f07d98d83a3f525b3859a53>@@AEAV<lambda_3e16ef9562a7dcce91392c22ab16ea36>@@V<lambda_38119f0e861e05405d8a144b9b982f0a>@@@?$__crt_seh_guarded_call@X@@QEAAX$$QEAV<lambda_410d79af7f07d98d83a3f525b3859a53>@@AEAV<lambda_3e16ef9562a7dcce91392c22ab16ea36>@@$$QEAV<lambda_38119f0e861e05405d8a144b9b982f0a>@@@Z 0000000180095f80     libucrt:wsetlocale.obj
 0004:00004f8c       $pdata$__acrt_uninitialize_locale 0000000180095f8c     libucrt:wsetlocale.obj
 0004:00004f98       $pdata$__pctype_func       0000000180095f98     libucrt:ctype.obj
 0004:00004fa4       $pdata$_isleadbyte_l       0000000180095fa4     libucrt:_wctype.obj
 0004:00004fb0       $pdata$_isctype_l          0000000180095fb0     libucrt:isctype.obj
 0004:00004fbc       $pdata$?__acrt_LCMapStringA_stat@@YAHPEAU__crt_locale_pointers@@PEB_WKPEBDHPEADHHH@Z 0000000180095fbc     libucrt:lcmapstringa.obj
 0004:00004fc8       $pdata$__acrt_LCMapStringA 0000000180095fc8     libucrt:lcmapstringa.obj
 0004:00004fd4       $pdata$_clrfp              0000000180095fd4     libucrt:fpctrl.obj
 0004:00004fe0       $pdata$_ctrlfp             0000000180095fe0     libucrt:fpctrl.obj
 0004:00004fec       $pdata$_set_statfp         0000000180095fec     libucrt:fpctrl.obj
 0004:00004ff8       $pdata$_statfp             0000000180095ff8     libucrt:fpctrl.obj
 0004:00005004       $pdata$_call_matherr       0000000180096004     libucrt:libm_error.obj
 0004:00005010       $pdata$_exception_enabled  0000000180096010     libucrt:libm_error.obj
 0004:0000501c       $pdata$_handle_error       000000018009601c     libucrt:libm_error.obj
 0004:00005028       $pdata$__acrt_initialize_fma3 0000000180096028     libucrt:fma3_available.obj
 0004:00005064       $pdata$_sincos_special     0000000180096064     libucrt:sincos_special.obj
 0004:00005070       $pdata$_exp_special        0000000180096070     libucrt:exp_special.obj
 0004:0000507c       $pdata$_log10_special      000000018009607c     libucrt:log_special.obj
 0004:00005088       $pdata$_log_special        0000000180096088     libucrt:log_special.obj
 0004:00005094       $pdata$_log_special_common 0000000180096094     libucrt:log_special.obj
 0004:000050a0       $pdata$__acrt_initialize_locks 00000001800960a0     libucrt:locks.obj
 0004:000050ac       $pdata$__acrt_uninitialize_locks 00000001800960ac     libucrt:locks.obj
 0004:000050b8       $pdata$__acrt_get_developer_information_policy 00000001800960b8     libucrt:win_policies.obj
 0004:000050c4       $pdata$__acrt_get_process_end_policy 00000001800960c4     libucrt:win_policies.obj
 0004:000050d0       $pdata$__acrt_get_windowing_model_policy 00000001800960d0     libucrt:win_policies.obj
 0004:000050dc       $pdata$_calloc_base        00000001800960dc     libucrt:calloc_base.obj
 0004:000050e8       $pdata$??$__acrt_mbs_to_wcs_cp@U__crt_win32_buffer_internal_dynamic_resizing@@@@YAHQEBDAEAV?$__crt_win32_buffer@_WU__crt_win32_buffer_internal_dynamic_resizing@@@@I@Z 00000001800960e8     libucrt:argv_wildcards.obj
 0004:000050f4       $pdata$??$__acrt_wcs_to_mbs_cp@U__crt_win32_buffer_internal_dynamic_resizing@@@@YAHQEB_WAEAV?$__crt_win32_buffer@DU__crt_win32_buffer_internal_dynamic_resizing@@@@I@Z 00000001800960f4     libucrt:argv_wildcards.obj
 0004:00005100       $pdata$??$common_expand_argv_wildcards@D@@YAHQEAPEADQEAPEAPEAD@Z 0000000180096100     libucrt:argv_wildcards.obj
 0004:0000510c       $pdata$??$copy_and_add_argument_to_buffer@D@@YAHQEBD0_KAEAV?$argument_list@D@?A0x5f5c8891@@@Z 000000018009610c     libucrt:argv_wildcards.obj
 0004:00005118       $pdata$??$expand_argument_wildcards@D@@YAHQEAD0AEAV?$argument_list@D@?A0x5f5c8891@@@Z 0000000180096118     libucrt:argv_wildcards.obj
 0004:00005124       $pdata$??$?RV<lambda_efdfa57d1f175319df784efa44bb7b81>@@AEAV<lambda_5f0a4c1567f8adc6734073e5d1e1b35c>@@V<lambda_2e8a7d3640ea6ccb4c2413664c2db6fd>@@@?$__crt_seh_guarded_call@X@@QEAAX$$QEAV<lambda_efdfa57d1f175319df784efa44bb7b81>@@AEAV<lambda_5f0a4c1567f8adc6734073e5d1e1b35c>@@$$QEAV<lambda_2e8a7d3640ea6ccb4c2413664c2db6fd>@@@Z 0000000180096124     libucrt:mbctype.obj
 0004:00005130       $pdata$?getSystemCP@@YAHH@Z 0000000180096130     libucrt:mbctype.obj
 0004:0000513c       $pdata$?setSBCS@@YAXPEAU__crt_multibyte_data@@@Z 000000018009613c     libucrt:mbctype.obj
 0004:00005148       $pdata$?setSBUpLow@@YAXPEAU__crt_multibyte_data@@@Z 0000000180096148     libucrt:mbctype.obj
 0004:00005154       $pdata$?setmbcp_internal@@YAHH_NQEAU__acrt_ptd@@QEAPEAU__crt_multibyte_data@@@Z 0000000180096154     libucrt:mbctype.obj
 0004:00005160       $pdata$?update_thread_multibyte_data_internal@@YAPEAU__crt_multibyte_data@@QEAU__acrt_ptd@@QEAPEAU1@@Z 0000000180096160     libucrt:mbctype.obj
 0004:0000516c       $pdata$__acrt_initialize_multibyte 000000018009616c     libucrt:mbctype.obj
 0004:00005178       $pdata$__acrt_update_thread_multibyte_data 0000000180096178     libucrt:mbctype.obj
 0004:00005184       $pdata$_setmbcp_nolock     0000000180096184     libucrt:mbctype.obj
 0004:00005190       $pdata$?x_ismbbtype_l@@YAHPEAU__crt_locale_pointers@@IHH@Z 0000000180096190     libucrt:ismbbyte.obj
 0004:0000519c       $pdata$__acrt_initialize_command_line 000000018009619c     libucrt:argv_data.obj
 0004:000051a8       $pdata$__acrt_WideCharToMultiByte 00000001800961a8     libucrt:widechartomultibyte.obj
 0004:000051b4       $pdata$__dcrt_get_narrow_environment_from_os 00000001800961b4     libucrt:get_environment_from_os.obj
 0004:000051c0       $pdata$_recalloc_base      00000001800961c0     libucrt:recalloc.obj
 0004:000051cc       $pdata$?try_get_function@@YAPEAXW4function_id@?A0x391cf84c@@QEBDQEBW4module_id@2@2@Z 00000001800961cc     libucrt:winapi_thunks.obj
 0004:000051d8       $pdata$__acrt_AppPolicyGetProcessTerminationMethodInternal 00000001800961d8     libucrt:winapi_thunks.obj
 0004:000051e4       $pdata$__acrt_AppPolicyGetShowDeveloperDiagnosticInternal 00000001800961e4     libucrt:winapi_thunks.obj
 0004:000051f0       $pdata$__acrt_AppPolicyGetWindowingModelInternal 00000001800961f0     libucrt:winapi_thunks.obj
 0004:000051fc       $pdata$__acrt_AreFileApisANSI 00000001800961fc     libucrt:winapi_thunks.obj
 0004:00005208       $pdata$__acrt_FlsAlloc     0000000180096208     libucrt:winapi_thunks.obj
 0004:00005214       $pdata$__acrt_FlsFree      0000000180096214     libucrt:winapi_thunks.obj
 0004:00005220       $pdata$__acrt_FlsGetValue  0000000180096220     libucrt:winapi_thunks.obj
 0004:0000522c       $pdata$__acrt_FlsSetValue  000000018009622c     libucrt:winapi_thunks.obj
 0004:00005238       $pdata$__acrt_InitializeCriticalSectionEx 0000000180096238     libucrt:winapi_thunks.obj
 0004:00005244       $pdata$__acrt_LCMapStringEx 0000000180096244     libucrt:winapi_thunks.obj
 0004:00005250       $pdata$__acrt_LocaleNameToLCID 0000000180096250     libucrt:winapi_thunks.obj
 0004:0000525c       $pdata$__acrt_MessageBoxW  000000018009625c     libucrt:winapi_thunks.obj
 0004:00005268       $pdata$__acrt_can_show_message_box 0000000180096268     libucrt:winapi_thunks.obj
 0004:00005274       $pdata$__acrt_get_parent_window 0000000180096274     libucrt:winapi_thunks.obj
 0004:00005280       $pdata$__acrt_initialize_winapi_thunks 0000000180096280     libucrt:winapi_thunks.obj
 0004:0000528c       $pdata$__acrt_is_interactive 000000018009628c     libucrt:winapi_thunks.obj
 0004:00005298       $pdata$__acrt_uninitialize_winapi_thunks 0000000180096298     libucrt:winapi_thunks.obj
 0004:000052a4       $pdata$__acrt_initialize_heap 00000001800962a4     libucrt:heap_handle.obj
 0004:000052b0       $pdata$?initialize_inherited_file_handles_nolock@@YAXXZ 00000001800962b0     libucrt:ioinit.obj
 0004:000052bc       $pdata$?initialize_stdio_handles_nolock@@YAXXZ 00000001800962bc     libucrt:ioinit.obj
 0004:000052c8       $pdata$__acrt_initialize_lowio 00000001800962c8     libucrt:ioinit.obj
 0004:000052d4       $pdata$__acrt_uninitialize_lowio 00000001800962d4     libucrt:ioinit.obj
 0004:000052e0       $pdata$__acrt_execute_initializers 00000001800962e0     libucrt:shared_initialization.obj
 0004:000052ec       $pdata$__acrt_execute_uninitializers 00000001800962ec     libucrt:shared_initialization.obj
 0004:000052f8       $pdata$__acrt_stdio_begin_temporary_buffering_nolock 00000001800962f8     libucrt:_sftbuf.obj
 0004:00005304       $pdata$__acrt_stdio_end_temporary_buffering_nolock 0000000180096304     libucrt:_sftbuf.obj
 0004:00005310       $pdata$isdigit             0000000180096310     libucrt:_ctype.obj
 0004:0000531c       $pdata$wcstol              000000018009631c     libucrt:strtox.obj
 0004:00005328       $pdata$_mbtowc_l           0000000180096328     libucrt:mbtowc.obj
 0004:00005334       $pdata$_wctomb_s_l         0000000180096334     libucrt:wctomb.obj
 0004:00005340       $pdata$wctomb_s            0000000180096340     libucrt:wctomb.obj
 0004:0000534c       $pdata$?fp_format_a@@YAHQEBNPEAD_KQEAD2H_NIQEAU__crt_locale_pointers@@@Z 000000018009634c     libucrt:cvt.obj
 0004:00005358       $pdata$?fp_format_e@@YAHQEBNQEAD_K12H_NIQEAU__crt_locale_pointers@@@Z 0000000180096358     libucrt:cvt.obj
 0004:00005364       $pdata$?fp_format_e_internal@@YAHQEAD_KH_NIQEAU_strflt@@2QEAU__crt_locale_pointers@@@Z 0000000180096364     libucrt:cvt.obj
 0004:00005370       $pdata$?fp_format_f_internal@@YAHQEAD_KHQEAU_strflt@@_NQEAU__crt_locale_pointers@@@Z 0000000180096370     libucrt:cvt.obj
 0004:0000537c       $pdata$?fp_format_g@@YAHQEBNQEAD_K12H_NIQEAU__crt_locale_pointers@@@Z 000000018009637c     libucrt:cvt.obj
 0004:00005388       $pdata$?fp_format_nan_or_infinity@@YAHW4__acrt_fp_class@@_NPEAD_K1@Z 0000000180096388     libucrt:cvt.obj
 0004:00005394       $pdata$__acrt_fp_format    0000000180096394     libucrt:cvt.obj
 0004:000053a0       $pdata$_fputwc_nolock      00000001800963a0     libucrt:fputwc.obj
 0004:000053ac       $pdata$_fileno             00000001800963ac     libucrt:fileno.obj
 0004:000053b8       $pdata$iswctype            00000001800963b8     libucrt:iswctype.obj
 0004:000053c4       $pdata$_fcloseall          00000001800963c4     libucrt:closeall.obj
 0004:000053d0       $pdata$__acrt_stdio_free_buffer_nolock 00000001800963d0     libucrt:_freebuf.obj
 0004:000053dc       $pdata$??$?RV<lambda_a37b2b86f63e897a80ea819b0eb08c01>@@AEAV<lambda_38ce7e780aa69e748d6df282ebc68efe>@@V<lambda_99fb1378e971ab6e7edea83e3a7a83a2>@@@?$__crt_seh_guarded_call@H@@QEAAH$$QEAV<lambda_a37b2b86f63e897a80ea819b0eb08c01>@@AEAV<lambda_38ce7e780aa69e748d6df282ebc68efe>@@$$QEAV<lambda_99fb1378e971ab6e7edea83e3a7a83a2>@@@Z 00000001800963dc     libucrt:commit.obj
 0004:000053e8       $pdata$_commit             00000001800963e8     libucrt:commit.obj
 0004:000053f4       $pdata$?write_double_translated_ansi_nolock@@YA?AUwrite_result@?A0x17268360@@HQEBDI@Z 00000001800963f4     libucrt:write.obj
 0004:00005400       $pdata$?write_text_ansi_nolock@@YA?AUwrite_result@?A0x17268360@@HQEBDI@Z 0000000180096400     libucrt:write.obj
 0004:0000540c       $pdata$?write_text_utf16le_nolock@@YA?AUwrite_result@?A0x17268360@@HQEBDI@Z 000000018009640c     libucrt:write.obj
 0004:00005418       $pdata$?write_text_utf8_nolock@@YA?AUwrite_result@?A0x17268360@@HQEBDI@Z 0000000180096418     libucrt:write.obj
 0004:00005424       $pdata$_write              0000000180096424     libucrt:write.obj
 0004:00005430       $pdata$_write_nolock       0000000180096430     libucrt:write.obj
 0004:0000543c       $pdata$__acrt_free_locale  000000018009643c     libucrt:locale_refcounting.obj
 0004:00005448       $pdata$__acrt_locale_free_lc_time_if_unreferenced 0000000180096448     libucrt:locale_refcounting.obj
 0004:00005454       $pdata$__acrt_release_locale_ref 0000000180096454     libucrt:locale_refcounting.obj
 0004:00005460       $pdata$__acrt_update_thread_locale_data 0000000180096460     libucrt:locale_refcounting.obj
 0004:0000546c       $pdata$_updatetlocinfoEx_nolock 000000018009646c     libucrt:locale_refcounting.obj
 0004:00005478       $pdata$__acrt_locale_free_monetary 0000000180096478     libucrt:initmon.obj
 0004:00005484       $pdata$__acrt_locale_free_numeric 0000000180096484     libucrt:initnum.obj
 0004:00005490       $pdata$?free_crt_array_internal@@YAXQEAPEBX_K@Z 0000000180096490     libucrt:inittime.obj
 0004:0000549c       $pdata$__acrt_locale_free_time 000000018009649c     libucrt:inittime.obj
 0004:000054a8       $pdata$__acrt_GetStringTypeA 00000001800964a8     libucrt:getstringtypea.obj
 0004:000054c0       $pdata$_raise_exc          00000001800964c0     libucrt:fpexcept.obj
 0004:000054cc       $pdata$_raise_exc_ex       00000001800964cc     libucrt:fpexcept.obj
 0004:000054d8       $pdata$_set_errno_from_matherr 00000001800964d8     libucrt:fpexcept.obj
 0004:000054e4       $pdata$qsort               00000001800964e4     libucrt:qsort.obj
 0004:000054f0       $pdata$4$qsort             00000001800964f0     libucrt:qsort.obj
 0004:000054fc       $pdata$5$qsort             00000001800964fc     libucrt:qsort.obj
 0004:00005508       $pdata$strncpy_s           0000000180096508     libucrt:strncpy_s.obj
 0004:00005514       $pdata$fallbackMethod      0000000180096514     libucrt:strpbrk.obj
 0004:00005520       $pdata$strpbrk             0000000180096520     libucrt:strpbrk.obj
 0004:0000552c       $pdata$_mbsdec_l           000000018009652c     libucrt:mbsdec.obj
 0004:00005538       $pdata$?initialize_multibyte@@YAHXZ 0000000180096538     libucrt:multibyte_initializer.obj
 0004:00005544       $pdata$_msize_base         0000000180096544     libucrt:msize.obj
 0004:00005550       $pdata$_realloc_base       0000000180096550     libucrt:realloc_base.obj
 0004:0000555c       $pdata$?GetTableIndexFromLocaleName@@YAHPEB_W@Z 000000018009655c     libucrt:lcidtoname_downlevel.obj
 0004:00005568       $pdata$__acrt_DownlevelLocaleNameToLCID 0000000180096568     libucrt:lcidtoname_downlevel.obj
 0004:00005574       $pdata$__acrt_lowio_create_handle_array 0000000180096574     libucrt:osfinfo.obj
 0004:00005580       $pdata$__acrt_lowio_destroy_handle_array 0000000180096580     libucrt:osfinfo.obj
 0004:0000558c       $pdata$__acrt_lowio_ensure_fh_exists 000000018009658c     libucrt:osfinfo.obj
 0004:00005598       $pdata$_free_osfhnd        0000000180096598     libucrt:osfinfo.obj
 0004:000055a4       $pdata$_get_osfhandle      00000001800965a4     libucrt:osfinfo.obj
 0004:000055b0       $pdata$_isatty             00000001800965b0     libucrt:isatty.obj
 0004:000055bc       $pdata$?__mbrtowc_utf8@__crt_mbstring@@YA_KPEA_WPEBD_KPEAU_Mbstatet@@@Z 00000001800965bc     libucrt:mbrtowc.obj
 0004:000055c8       $pdata$?__mbsrtowcs_utf8@__crt_mbstring@@YA_KPEA_WPEAPEBD_KPEAU_Mbstatet@@@Z 00000001800965c8     libucrt:mbrtowc.obj
 0004:000055d4       $pdata$?__c32rtomb_utf8@__crt_mbstring@@YA_KPEAD_UPEAU_Mbstatet@@@Z 00000001800965d4     libucrt:c32rtomb.obj
 0004:000055e0       $pdata$__acrt_fp_strflt_to_string 00000001800965e0     libucrt:_fptostr.obj
 0004:000055ec       $pdata$?divide@__crt_strtox@@YA_KAEAUbig_integer@1@AEBU21@@Z 00000001800965ec     libucrt:cfout.obj
 0004:000055f8       $pdata$0$?divide@__crt_strtox@@YA_KAEAUbig_integer@1@AEBU21@@Z 00000001800965f8     libucrt:cfout.obj
 0004:00005604       $pdata$1$?divide@__crt_strtox@@YA_KAEAUbig_integer@1@AEBU21@@Z 0000000180096604     libucrt:cfout.obj
 0004:00005610       $pdata$__acrt_fltout       0000000180096610     libucrt:cfout.obj
 0004:0000561c       $pdata$memcpy_s            000000018009661c     libucrt:cfout.obj
 0004:00005628       $pdata$??$write_buffer_nolock@D@@YA_NDV__crt_stdio_stream@@@Z 0000000180096628     libucrt:_flsbuf.obj
 0004:00005634       $pdata$??$write_buffer_nolock@_W@@YA_N_WV__crt_stdio_stream@@@Z 0000000180096634     libucrt:_flsbuf.obj
 0004:00005640       $pdata$?stream_is_at_end_of_file_nolock@@YA_NV__crt_stdio_stream@@@Z 0000000180096640     libucrt:_flsbuf.obj
 0004:0000564c       $pdata$__acrt_stdio_flush_and_write_narrow_nolock 000000018009664c     libucrt:_flsbuf.obj
 0004:00005658       $pdata$__acrt_stdio_flush_and_write_wide_nolock 0000000180096658     libucrt:_flsbuf.obj
 0004:00005664       $pdata$_fclose_nolock      0000000180096664     libucrt:fclose.obj
 0004:00005670       $pdata$fclose              0000000180096670     libucrt:fclose.obj
 0004:0000567c       $pdata$??$common_lseek@_J@@YA_JH_JH@Z 000000018009667c     libucrt:lseek.obj
 0004:00005688       $pdata$??$common_lseek_nolock@_J@@YA_JH_JH@Z 0000000180096688     libucrt:lseek.obj
 0004:00005694       $pdata$_putwch_nolock      0000000180096694     libucrt:putwch.obj
 0004:000056a0       $pdata$?__mbrtoc32_utf8@__crt_mbstring@@YA_KPEA_UPEBD_KPEAU_Mbstatet@@@Z 00000001800966a0     libucrt:mbrtoc32.obj
 0004:000056ac       $pdata$fegetenv            00000001800966ac     libucrt:fegetenv.obj
 0004:000056b8       $pdata$fesetenv            00000001800966b8     libucrt:fesetenv.obj
 0004:000056c4       $pdata$feholdexcept        00000001800966c4     libucrt:feholdexcept.obj
 0004:000056d0       $pdata$__acrt_stdio_allocate_buffer_nolock 00000001800966d0     libucrt:_getbuf.obj
 0004:000056dc       $pdata$??$?RV<lambda_751a882b2c74d4b022dec766aa51a29a>@@AEAV<lambda_628dfdc04ba53c8bfc02c9951375f3f5>@@V<lambda_f6c7be5f7998530c34de24c7437d6b54>@@@?$__crt_seh_guarded_call@H@@QEAAH$$QEAV<lambda_751a882b2c74d4b022dec766aa51a29a>@@AEAV<lambda_628dfdc04ba53c8bfc02c9951375f3f5>@@$$QEAV<lambda_f6c7be5f7998530c34de24c7437d6b54>@@@Z 00000001800966dc     libucrt:close.obj
 0004:000056e8       $pdata$_close              00000001800966e8     libucrt:close.obj
 0004:000056f4       $pdata$_close_nolock       00000001800966f4     libucrt:close.obj
 0004:00005700       $pdata$__dcrt_lowio_ensure_console_output_initialized 0000000180096700     libucrt:initcon.obj
 0004:0000570c       $pdata$__dcrt_terminate_console_output 000000018009670c     libucrt:initcon.obj
 0004:00005718       $pdata$__dcrt_write_console 0000000180096718     libucrt:initcon.obj
 0004:00005724       $pdata$__acrt_fenv_set_control 0000000180096724     libucrt:_fenvutils.obj
 0004:00005730       $pdata$_clearfp            0000000180096730     libucrt:ieee.obj
 0004:0000573c       $pdata$?DloadAcquireSectionWriteAccess@@YAXXZ 000000018009673c     DelayImp:delayhlp.obj
 0004:00005748       $pdata$?DloadGetSRWLockFunctionPointers@@YAEXZ 0000000180096748     DelayImp:delayhlp.obj
 0004:00005754       $pdata$?DloadMakePermanentImageCommit@@YAXPEAX_K@Z 0000000180096754     DelayImp:delayhlp.obj
 0004:00005760       $pdata$?DloadObtainSection@@YAPEAXPEAK0@Z 0000000180096760     DelayImp:delayhlp.obj
 0004:0000576c       $pdata$?DloadProtectSection@@YAXKPEAK@Z 000000018009676c     DelayImp:delayhlp.obj
 0004:00005778       $pdata$?DloadReleaseSectionWriteAccess@@YAXXZ 0000000180096778     DelayImp:delayhlp.obj
 0004:00005784       $pdata$__delayLoadHelper2  0000000180096784     DelayImp:delayhlp.obj
 0004:00005790       $pdata$_IsNonwritableInCurrentImage 0000000180096790     LIBCMT:pesect.obj
 0004:000057b4       $pdata$strrchr             00000001800967b4     libvcruntime:strrchr.obj
 0004:000057cc       $pdata$?fin$0@?0??dllmain_crt_process_attach@@YAHQEAUHINSTANCE__@@QEAX@Z@4HA 00000001800967cc     LIBCMT:dll_dllmain.obj
 0004:000057d8       $pdata$?fin$0@?0??dllmain_crt_process_detach@@YAH_N@Z@4HA 00000001800967d8     LIBCMT:dll_dllmain.obj
 0004:000057e4       $pdata$?filt$0@?0??dllmain_dispatch@@YAHQEAUHINSTANCE__@@KQEAX@Z@4HA 00000001800967e4     LIBCMT:dll_dllmain.obj
 0004:000057f0       $pdata$__scrt_is_nonwritable_in_current_image$filt$0 00000001800967f0     LIBCMT:utility.obj
 0004:000057fc       $pdata$__DestructExceptionObject$filt$0 00000001800967fc     libvcruntime:ehhelpers.obj
 0004:00005808       $pdata$_query_new_handler$fin$0 0000000180096808     libucrt:new_handler.obj
 0004:00005814       $pdata$?fin$0@?0???$?RV<lambda_d80eeec6fff315bfe5c115232f3240e3>@@AEAV<lambda_6e4b09c48022b2350581041d5f6b0c4c>@@V<lambda_2358e3775559c9db80273638284d5e45>@@@?$__crt_seh_guarded_call@X@@QEAAX$$QEAV<lambda_d80eeec6fff315bfe5c115232f3240e3>@@AEAV<lambda_6e4b09c48022b2350581041d5f6b0c4c>@@$$QEAV<lambda_2358e3775559c9db80273638284d5e45>@@@Z@4HA 0000000180096814     libucrt:exit.obj
 0004:00005814       $pdata$?fin$0@?0???$?RV<lambda_7777bce6b2f8c936911f934f8298dc43>@@AEAV<lambda_f03950bc5685219e0bcd2087efbe011e>@@V<lambda_3883c3dff614d5e0c5f61bb1ac94921c>@@@?$__crt_seh_guarded_call@H@@QEAAH$$QEAV<lambda_7777bce6b2f8c936911f934f8298dc43>@@AEAV<lambda_f03950bc5685219e0bcd2087efbe011e>@@$$QEAV<lambda_3883c3dff614d5e0c5f61bb1ac94921c>@@@Z@4HA 0000000180096814     libucrt:onexit.obj
 0004:00005814       $pdata$?fin$0@?0???$?RV<lambda_2d41944a1d46af3157314b8a01080d33>@@AEAV<lambda_8f455de75cd7d7f24b4096f044d8b9e6>@@V<lambda_aa500f224e6afead328df44964fe2772>@@@?$__crt_seh_guarded_call@X@@QEAAX$$QEAV<lambda_2d41944a1d46af3157314b8a01080d33>@@AEAV<lambda_8f455de75cd7d7f24b4096f044d8b9e6>@@$$QEAV<lambda_aa500f224e6afead328df44964fe2772>@@@Z@4HA 0000000180096814     libucrt:per_thread_data.obj
 0004:00005814       $pdata$?fin$0@?0???$?RV<lambda_efdfa57d1f175319df784efa44bb7b81>@@AEAV<lambda_5f0a4c1567f8adc6734073e5d1e1b35c>@@V<lambda_2e8a7d3640ea6ccb4c2413664c2db6fd>@@@?$__crt_seh_guarded_call@X@@QEAAX$$QEAV<lambda_efdfa57d1f175319df784efa44bb7b81>@@AEAV<lambda_5f0a4c1567f8adc6734073e5d1e1b35c>@@$$QEAV<lambda_2e8a7d3640ea6ccb4c2413664c2db6fd>@@@Z@4HA 0000000180096814     libucrt:mbctype.obj
 0004:00005814       $pdata$?fin$0@?0???$?RV<lambda_450d765d439847d4c735a33c368b5fc0>@@AEAV<lambda_44731a7d0e6d81c3e6aa82d741081786>@@V<lambda_601a2a7da3b7a96e9554ac7215c4b07c>@@@?$__crt_seh_guarded_call@P6AXH@Z@@QEAAP6AXH@Z$$QEAV<lambda_450d765d439847d4c735a33c368b5fc0>@@AEAV<lambda_44731a7d0e6d81c3e6aa82d741081786>@@$$QEAV<lambda_601a2a7da3b7a96e9554ac7215c4b07c>@@@Z@4HA 0000000180096814     libucrt:signal.obj
 0004:00005814       $pdata$?fin$0@?0???$?RV<lambda_0ae27a3a962d80f24befdcbee591983d>@@AEAV<lambda_8d0ee55de4b1038c4002e0adecdf1839>@@V<lambda_dc504788e8f1664fe9b84e20bfb512f2>@@@?$__crt_seh_guarded_call@X@@QEAAX$$QEAV<lambda_0ae27a3a962d80f24befdcbee591983d>@@AEAV<lambda_8d0ee55de4b1038c4002e0adecdf1839>@@$$QEAV<lambda_dc504788e8f1664fe9b84e20bfb512f2>@@@Z@4HA 0000000180096814     libucrt:per_thread_data.obj
 0004:00005814       $pdata$?fin$0@?0???$?RV<lambda_aa87e3671a710a21b5dc78c0bdf72e11>@@AEAV<lambda_92619d2358a28f41a33ba319515a20b9>@@V<lambda_6992ecaafeb10aed2b74cb1fae11a551>@@@?$__crt_seh_guarded_call@X@@QEAAX$$QEAV<lambda_aa87e3671a710a21b5dc78c0bdf72e11>@@AEAV<lambda_92619d2358a28f41a33ba319515a20b9>@@$$QEAV<lambda_6992ecaafeb10aed2b74cb1fae11a551>@@@Z@4HA 0000000180096814     libucrt:per_thread_data.obj
 0004:00005814       $pdata$?fin$0@?0???$?RV<lambda_f2e299630e499de9f9a165e60fcd3db5>@@AEAV<lambda_2ae9d31cdba2644fcbeaf08da7c24588>@@V<lambda_40d01ff24d0e7b3814fdbdcee8eab3c7>@@@?$__crt_seh_guarded_call@X@@QEAAX$$QEAV<lambda_f2e299630e499de9f9a165e60fcd3db5>@@AEAV<lambda_2ae9d31cdba2644fcbeaf08da7c24588>@@$$QEAV<lambda_40d01ff24d0e7b3814fdbdcee8eab3c7>@@@Z@4HA 0000000180096814     libucrt:per_thread_data.obj
 0004:00005820       $pdata$?filt$0@?0???R<lambda_6e4b09c48022b2350581041d5f6b0c4c>@@QEBA@XZ@4HA 0000000180096820     libucrt:exit.obj
 0004:0000582c       $pdata$?fin$0@?0???$?RV<lambda_c376a267cfb53b6959b3b692ec76b120>@@AEAV<lambda_9a32fed5bf61b6b509b2d3f6003082a1>@@V<lambda_572fbb9fa0ab338edf41edfd4b5fcc8d>@@@?$__crt_seh_guarded_call@H@@QEAAH$$QEAV<lambda_c376a267cfb53b6959b3b692ec76b120>@@AEAV<lambda_9a32fed5bf61b6b509b2d3f6003082a1>@@$$QEAV<lambda_572fbb9fa0ab338edf41edfd4b5fcc8d>@@@Z@4HA 000000018009682c     libucrt:fflush.obj
 0004:0000582c       $pdata$?fin$0@?0???$?RV<lambda_842d9ff0dc9ef11c61343bbaebe7f885>@@AEAV<lambda_c5860995281e5c4ce005b3de8f5874ee>@@V<lambda_d90129c13df834fdcbf8d2b88dafcf2d>@@@?$__crt_seh_guarded_call@X@@QEAAX$$QEAV<lambda_842d9ff0dc9ef11c61343bbaebe7f885>@@AEAV<lambda_c5860995281e5c4ce005b3de8f5874ee>@@$$QEAV<lambda_d90129c13df834fdcbf8d2b88dafcf2d>@@@Z@4HA 000000018009682c     libucrt:fflush.obj
 0004:0000582c       $pdata$?fin$0@?0???$?RV<lambda_0d412022a4b28cc8a401ea49574e8ae6>@@AEAV<lambda_a775ed57af18ba8e4d5dc780aa9068fe>@@V<lambda_975a71a6baa488a08f4e15f6b0339b9e>@@@?$__crt_seh_guarded_call@H@@QEAAH$$QEAV<lambda_0d412022a4b28cc8a401ea49574e8ae6>@@AEAV<lambda_a775ed57af18ba8e4d5dc780aa9068fe>@@$$QEAV<lambda_975a71a6baa488a08f4e15f6b0339b9e>@@@Z@4HA 000000018009682c     libucrt:output.obj
 0004:0000582c       $pdata$?fin$0@?0???$?RV<lambda_84ec643ea9557e2f7dc01bb0e9624395>@@AEAV<lambda_ca71763b3c0644891230e4f79ea54fa6>@@V<lambda_439a761618c59b0600e24586724d733b>@@@?$__crt_seh_guarded_call@H@@QEAAH$$QEAV<lambda_84ec643ea9557e2f7dc01bb0e9624395>@@AEAV<lambda_ca71763b3c0644891230e4f79ea54fa6>@@$$QEAV<lambda_439a761618c59b0600e24586724d733b>@@@Z@4HA 000000018009682c     libucrt:setvbuf.obj
 0004:00005838       $pdata$?fin$0@?0???$?RV<lambda_886d6c58226a84441f68b9f2b8217b83>@@AEAV<lambda_ab61a845afdef5b7c387490eaf3616ee>@@V<lambda_f7f22ab5edc0698d5f6905b0d3f44752>@@@?$__crt_seh_guarded_call@X@@QEAAX$$QEAV<lambda_886d6c58226a84441f68b9f2b8217b83>@@AEAV<lambda_ab61a845afdef5b7c387490eaf3616ee>@@$$QEAV<lambda_f7f22ab5edc0698d5f6905b0d3f44752>@@@Z@4HA 0000000180096838     libucrt:fflush.obj
 0004:00005844       $pdata$raise$fin$0         0000000180096844     libucrt:signal.obj
 0004:00005850       $pdata$?fin$0@?0???$?RV<lambda_410d79af7f07d98d83a3f525b3859a53>@@AEAV<lambda_3e16ef9562a7dcce91392c22ab16ea36>@@V<lambda_38119f0e861e05405d8a144b9b982f0a>@@@?$__crt_seh_guarded_call@X@@QEAAX$$QEAV<lambda_410d79af7f07d98d83a3f525b3859a53>@@AEAV<lambda_3e16ef9562a7dcce91392c22ab16ea36>@@$$QEAV<lambda_38119f0e861e05405d8a144b9b982f0a>@@@Z@4HA 0000000180096850     libucrt:wsetlocale.obj
 0004:0000585c       $pdata$_ctrlfp$filt$0      000000018009685c     libucrt:fpctrl.obj
 0004:00005868       $pdata$?fin$0@?0??update_thread_multibyte_data_internal@@YAPEAU__crt_multibyte_data@@QEAU__acrt_ptd@@QEAPEAU1@@Z@4HA 0000000180096868     libucrt:mbctype.obj
 0004:00005874       $pdata$__acrt_initialize_lowio$fin$0 0000000180096874     libucrt:ioinit.obj
 0004:00005874       $pdata$__acrt_lowio_ensure_fh_exists$fin$0 0000000180096874     libucrt:osfinfo.obj
 0004:00005880       $pdata$_fcloseall$fin$0    0000000180096880     libucrt:closeall.obj
 0004:0000588c       $pdata$?fin$0@?0???$?RV<lambda_751a882b2c74d4b022dec766aa51a29a>@@AEAV<lambda_628dfdc04ba53c8bfc02c9951375f3f5>@@V<lambda_f6c7be5f7998530c34de24c7437d6b54>@@@?$__crt_seh_guarded_call@H@@QEAAH$$QEAV<lambda_751a882b2c74d4b022dec766aa51a29a>@@AEAV<lambda_628dfdc04ba53c8bfc02c9951375f3f5>@@$$QEAV<lambda_f6c7be5f7998530c34de24c7437d6b54>@@@Z@4HA 000000018009688c     libucrt:close.obj
 0004:0000588c       $pdata$?fin$0@?0???$?RV<lambda_a37b2b86f63e897a80ea819b0eb08c01>@@AEAV<lambda_38ce7e780aa69e748d6df282ebc68efe>@@V<lambda_99fb1378e971ab6e7edea83e3a7a83a2>@@@?$__crt_seh_guarded_call@H@@QEAAH$$QEAV<lambda_a37b2b86f63e897a80ea819b0eb08c01>@@AEAV<lambda_38ce7e780aa69e748d6df282ebc68efe>@@$$QEAV<lambda_99fb1378e971ab6e7edea83e3a7a83a2>@@@Z@4HA 000000018009688c     libucrt:commit.obj
 0004:00005898       $pdata$?fin$0@?0???$common_lseek@_J@@YA_JH_JH@Z@4HA 0000000180096898     libucrt:lseek.obj
 0004:00005898       $pdata$_write$fin$0        0000000180096898     libucrt:write.obj
 0004:000058a4       $pdata$__acrt_update_thread_locale_data$fin$0 00000001800968a4     libucrt:locale_refcounting.obj
 0004:000058b0       $pdata$fclose$fin$0        00000001800968b0     libucrt:fclose.obj
 0004:000058bc       $pdata$_IsNonwritableInCurrentImage$filt$0 00000001800968bc     LIBCMT:pesect.obj
 0005:00000060       $R000000                   0000000180097060     * linker generated manifest res *

 Exports

  ordinal    name

        1    _register_talib_
        2    node_register_module_v64
